(dp1
I0
S'fawn'
p2
sI1
S'pardon'
p3
sI2
S'yellow'
p4
sI3
S'four'
p5
sI4
S'hath'
p6
sI5
S'sleep'
p7
sI6
S"friend's"
p8
sI7
S'hanging'
p9
sI8
S'mansion'
p10
sI9
S'appetite'
p11
sI10
S'evermore'
p12
sI11
S'hate'
p13
sI12
S'forget'
p14
sI13
S'whose'
p15
sI14
S'feeding'
p16
sI15
S'vile'
p17
sI16
S'granting'
p18
sI17
S'sweetest'
p19
sI18
S'presents'
p20
sI19
S'walks'
p21
sI20
S"there's"
p22
sI21
S'whatsoever'
p23
sI22
S'under'
p24
sI23
S'lord'
p25
sI24
S'sorry'
p26
sI25
S'pride'
p27
sI26
S'sway'
p28
sI27
S'worth'
p29
sI28
S'wondrous'
p30
sI29
S'discased'
p31
sI30
S'dispense'
p32
sI31
S'hadst'
p33
sI32
S'inhearse'
p34
sI33
S"women's"
p35
sI34
S'shoot'
p36
sI35
S'every'
p37
sI36
S'foul'
p38
sI37
S'nourished'
p39
sI38
S"o'er-read"
p40
sI39
S'special'
p41
sI40
S'believed'
p42
sI41
S'uttering'
p43
sI42
S'prize'
p44
sI43
S'unrest'
p45
sI44
S'graced'
p46
sI45
S'succession'
p47
sI46
S'graces'
p48
sI47
S'triumph'
p49
sI48
S'enjoy'
p50
sI49
S'charter'
p51
sI50
S'force'
p52
sI51
S'tired'
p53
sI52
S'awake'
p54
sI53
S'razed'
p55
sI54
S'out-going'
p56
sI55
S'assure'
p57
sI56
S'tires'
p58
sI57
S'crave'
p59
sI58
S'persuade'
p60
sI59
S'quill'
p61
sI60
S'even'
p62
sI61
S'beated'
p63
sI62
S'captain'
p64
sI63
S'hide'
p65
sI64
S"ne'er"
p66
sI65
S'solemn'
p67
sI66
S'thunder'
p68
sI67
S'fingers'
p69
sI68
S'liberty'
p70
sI69
S'children'
p71
sI70
S'worser'
p72
sI71
S'inheritors'
p73
sI72
S'above'
p74
sI73
S'guilty'
p75
sI74
S'matcheth'
p76
sI75
S'new'
p77
sI76
S'poorly'
p78
sI77
S'ever'
p79
sI78
S'told'
p80
sI79
S'deemed'
p81
sI80
S'merchandized'
p82
sI81
S'sinks'
p83
sI82
S'join'
p84
sI83
S'never'
p85
sI84
S'here'
p86
sI85
S'herd'
p87
sI86
S'beck'
p88
sI87
S"sweet'st"
p89
sI88
S'pursuit'
p90
sI89
S'active'
p91
sI90
S'spies'
p92
sI91
S'a-doting'
p93
sI92
S'effectually'
p94
sI93
S'dry'
p95
sI94
S'resty'
p96
sI95
S'substance'
p97
sI96
S'gaol'
p98
sI97
S'leaves'
p99
sI98
S'climbed'
p100
sI99
S'credit'
p101
sI100
S'smoke'
p102
sI101
S'permit'
p103
sI102
S'bettered'
p104
sI103
S'mistake'
p105
sI104
S'settled'
p106
sI105
S'politic'
p107
sI106
S'golden'
p108
sI107
S'swearing'
p109
sI108
S'divide'
p110
sI109
S'motley'
p111
sI110
S'blessed-fair'
p112
sI111
S'sorrows'
p113
sI112
S'patience'
p114
sI113
S'stern'
p115
sI114
S'costly'
p116
sI115
S'glance'
p117
sI116
S"light's"
p118
sI117
S'plot'
p119
sI118
S'budding'
p120
sI119
S'would'
p121
sI120
S'recured'
p122
sI121
S"world's"
p123
sI122
S'junes'
p124
sI123
S'music'
p125
sI124
S'therefore'
p126
sI125
S'survive'
p127
sI126
S'gilding'
p128
sI127
S'tell'
p129
sI128
S'breathe'
p130
sI129
S'leese'
p131
sI130
S'unbless'
p132
sI131
S'holy'
p133
sI132
S'wary'
p134
sI133
S'brings'
p135
sI134
S'muse'
p136
sI135
S'herein'
p137
sI136
S'grief'
p138
sI137
S'glass'
p139
sI138
S'warm'
p140
sI139
S'excellent'
p141
sI140
S'robbing'
p142
sI141
S'ward'
p143
sI142
S'hold'
p144
sI143
S'striving'
p145
sI144
S'must'
p146
sI145
S'me'
p147
sI146
S'locked'
p148
sI147
S'room'
p149
sI148
S'err'
p150
sI149
S'rights'
p151
sI150
S'work'
p152
sI151
S'eclipse'
p153
sI152
S'roof'
p154
sI153
S'meadows'
p155
sI154
S'ere'
p156
sI155
S'leaped'
p157
sI156
S'revenues'
p158
sI157
S'my'
p159
sI158
S'example'
p160
sI159
S'lodged'
p161
sI160
S'phrase'
p162
sI161
S'subtleties'
p163
sI162
S'fresher'
p164
sI163
S'wane'
p165
sI164
S'unjust'
p166
sI165
S'honey'
p167
sI166
S'foist'
p168
sI167
S'kingdoms'
p169
sI168
S'respose'
p170
sI169
S'times'
p171
sI170
S'worse'
p172
sI171
S'ceremony'
p173
sI172
S"consum'st"
p174
sI173
S'gusts'
p175
sI174
S'provide'
p176
sI175
S'dignifies'
p177
sI176
S'travel'
p178
sI177
S'indirectly'
p179
sI178
S'feature'
p180
sI179
S'wights'
p181
sI180
S'far'
p182
sI181
S'hot'
p183
sI182
S'writers'
p184
sI183
S'answer'
p185
sI184
S'gate'
p186
sI185
S'dignified'
p187
sI186
S"o'er-snowed"
p188
sI187
S'blanks'
p189
sI188
S'beauty'
p190
sI189
S'after'
p191
sI190
S'wrong'
p192
sI191
S'lay'
p193
sI192
S'lap'
p194
sI193
S'wronk'
p195
sI194
S'third'
p196
sI195
S"rud'st"
p197
sI196
S'revolt'
p198
sI197
S'greet'
p199
sI198
S'purging'
p200
sI199
S'wink'
p201
sI200
S'maintain'
p202
sI201
S'haste'
p203
sI202
S'keeps'
p204
sI203
S'alack'
p205
sI204
S'wouldst'
p206
sI205
S'wind'
p207
sI206
S'bed-vow'
p208
sI207
S'determinate'
p209
sI208
S'couplement'
p210
sI209
S'after-loss'
p211
sI210
S'office'
p212
sI211
S'consent'
p213
sI212
S'over'
p214
sI213
S'profaned'
p215
sI214
S'sickly'
p216
sI215
S'fortify'
p217
sI216
S'ghastly'
p218
sI217
S'strangle'
p219
sI218
S"bestow'st"
p220
sI219
S'wrought'
p221
sI220
S'before'
p222
sI221
S'better'
p223
sI222
S'fade'
p224
sI223
S'carve'
p225
sI224
S'hidden'
p226
sI225
S'savour'
p227
sI226
S'then'
p228
sI227
S'them'
p229
sI228
S'blots'
p230
sI229
S'enrich'
p231
sI230
S'thee'
p232
sI231
S"truth's"
p233
sI232
S'break'
p234
sI233
S"winter's"
p235
sI234
S'diseased'
p236
sI235
S'they'
p237
sI236
S'glazed'
p238
sI237
S'one'
p239
sI238
S'silver'
p240
sI239
S'shadows'
p241
sI240
S'rhetoric'
p242
sI241
S'brightness'
p243
sI242
S'slavery'
p244
sI243
S'rocks'
p245
sI244
S'herald'
p246
sI245
S'victories'
p247
sI246
S'needing'
p248
sI247
S'each'
p249
sI248
S'wantonly'
p250
sI249
S'dulness'
p251
sI250
S'went'
p252
sI251
S'side'
p253
sI252
S'luck'
p254
sI253
S'true-telling'
p255
sI254
S'woes'
p256
sI255
S'concord'
p257
sI256
S"'will'"
p258
sI257
S'taught'
p259
sI258
S'forgot'
p260
sI259
S'misprision'
p261
sI260
S'whit'
p262
sI261
S'truant'
p263
sI262
S'array'
p264
sI263
S'borne'
p265
sI264
S'contend'
p266
sI265
S'large'
p267
sI266
S'decree'
p268
sI267
S'weakness'
p269
sI268
S'sang'
p270
sI269
S'god'
p271
sI270
S'forty'
p272
sI271
S"run'st"
p273
sI272
S'content'
p274
sI273
S'laid'
p275
sI274
S'heart-inflaming'
p276
sI275
S'heavenly'
p277
sI276
S'got'
p278
sI277
S'marigold'
p279
sI278
S'forth'
p280
sI279
S'prizing'
p281
sI280
S'assured'
p282
sI281
S'fadeth'
p283
sI282
S'hang'
p284
sI283
S'deceived'
p285
sI284
S'eternal'
p286
sI285
S'given'
p287
sI286
S'free'
p288
sI287
S'mourning'
p289
sI288
S'mistaking'
p290
sI289
S'bestow'
p291
sI290
S'whereupon'
p292
sI291
S'evil'
p293
sI292
S'crowned'
p294
sI293
S'mistress'
p295
sI294
S'knit'
p296
sI295
S'wantonness'
p297
sI296
S"receiv'st"
p298
sI297
S'created'
p299
sI298
S'days'
p300
sI299
S'sue'
p301
sI300
S'bears'
p302
sI301
S'renew'
p303
sI302
S'tempting'
p304
sI303
S'unknown'
p305
sI304
S'tied'
p306
sI305
S'potions'
p307
sI306
S'loud'
p308
sI307
S'ruinate'
p309
sI308
S'user'
p310
sI309
S'separable'
p311
sI310
S'untutored'
p312
sI311
S'already'
p313
sI312
S'crowning'
p314
sI313
S'hearsay'
p315
sI314
S"'greeing"
p316
sI315
S'rank'
p317
sI316
S'hearing'
p318
sI317
S'jealous'
p319
sI318
S'featured'
p320
sI319
S'another'
p321
sI320
S'sober'
p322
sI321
S'filching'
p323
sI322
S'exchequer'
p324
sI323
S'usurer'
p325
sI324
S'top'
p326
sI325
S'hawks'
p327
sI326
S'millioned'
p328
sI327
S'master'
p329
sI328
S'too'
p330
sI329
S'dwell'
p331
sI330
S'bitter'
p332
sI331
S'saith'
p333
sI332
S'broils'
p334
sI333
S'feathers'
p335
sI334
S'griefs'
p336
sI335
S'took'
p337
sI336
S'wisdom'
p338
sI337
S'wardrobe'
p339
sI338
S"youth's"
p340
sI339
S'character'
p341
sI340
S'begins'
p342
sI341
S'distance'
p343
sI342
S"here's"
p344
sI343
S'coward'
p345
sI344
S"mother's"
p346
sI345
S'bitterness'
p347
sI346
S'idly'
p348
sI347
S'matter'
p349
sI348
S'idle'
p350
sI349
S'titles'
p351
sI350
S'flame'
p352
sI351
S'friend'
p353
sI352
S'deserving'
p354
sI353
S'askance'
p355
sI354
S'knights'
p356
sI355
S'beard'
p357
sI356
S'powers'
p358
sI357
S'swift-footed'
p359
sI358
S'fashion'
p360
sI359
S'sees'
p361
sI360
S'hue'
p362
sI361
S"mind's"
p363
sI362
S'modern'
p364
sI363
S'mind'
p365
sI364
S'mine'
p366
sI365
S'spent'
p367
sI366
S'manner'
p368
sI367
S'amiss'
p369
sI368
S'bewailed'
p370
sI369
S"deserv'st"
p371
sI370
S'churl'
p372
sI371
S'seem'
p373
sI372
S'seek'
p374
sI373
S'tells'
p375
sI374
S'contents'
p376
sI375
S'praising'
p377
sI376
S'strength'
p378
sI377
S'neck'
p379
sI378
S'snow'
p380
sI379
S'sound'
p381
sI380
S'chest'
p382
sI381
S'subjects'
p383
sI382
S'laughed'
p384
sI383
S'pilgrimage'
p385
sI384
S'rider'
p386
sI385
S'aggravate'
p387
sI386
S'maiden'
p388
sI387
S'though'
p389
sI388
S'object'
p390
sI389
S'dial'
p391
sI390
S'justify'
p392
sI391
S'dulling'
p393
sI392
S'errors'
p394
sI393
S'ashes'
p395
sI394
S'disarmed'
p396
sI395
S'grave'
p397
sI396
S'shalt'
p398
sI397
S'constancy'
p399
sI398
S'consumed'
p400
sI399
S'flow'
p401
sI400
S'breathes'
p402
sI401
S'steeled'
p403
sI402
S'points'
p404
sI403
S'breathed'
p405
sI404
S'wrecked'
p406
sI405
S'fitted'
p407
sI406
S'reserve'
p408
sI407
S'wild'
p409
sI408
S'renewed'
p410
sI409
S'bait'
p411
sI410
S'oaths'
p412
sI411
S'enjoyer'
p413
sI412
S'ending'
p414
sI413
S'poison'
p415
sI414
S'earth'
p416
sI415
S'bail'
p417
sI416
S'enjoyed'
p418
sI417
S'bearer'
p419
sI418
S'touches'
p420
sI419
S'copy'
p421
sI420
S'proposed'
p422
sI421
S'spite'
p423
sI422
S'herself'
p424
sI423
S'cupid'
p425
sI424
S'bliss'
p426
sI425
S'touched'
p427
sI426
S'rich'
p428
sI427
S'pursuing'
p429
sI428
S'mend'
p430
sI429
S"'thou"
p431
sI430
S'borrowed'
p432
sI431
S'do'
p433
sI432
S'blenches'
p434
sI433
S'forsworn'
p435
sI434
S"'i"
p436
sI435
S'stop'
p437
sI436
S'perceive'
p438
sI437
S'leisure'
p439
sI438
S'raiment'
p440
sI439
S'gored'
p441
sI440
S'bootless'
p442
sI441
S'spirit'
p443
sI442
S'despite'
p444
sI443
S'report'
p445
sI444
S'saturn'
p446
sI445
S'seemly'
p447
sI446
S'runs'
p448
sI447
S'increasing'
p449
sI448
S'bar'
p450
sI449
S'exchanged'
p451
sI450
S'beseem'
p452
sI451
S'thrusts'
p453
sI452
S'doting'
p454
sI453
S'twice'
p455
sI454
S'eyelids'
p456
sI455
S'esteeming'
p457
sI456
S'hasten'
p458
sI457
S'steal'
p459
sI458
S'farther'
p460
sI459
S'unprovident'
p461
sI460
S'penance'
p462
sI461
S"wond'ring"
p463
sI462
S'unrespected'
p464
sI463
S'fair'
p465
sI464
S'habit'
p466
sI465
S'imitate'
p467
sI466
S'proclaims'
p468
sI467
S'depends'
p469
sI468
S'corrupt'
p470
sI469
S'best'
p471
sI470
S'subject'
p472
sI471
S'said'
p473
sI472
S'temptation'
p474
sI473
S"bett'ring"
p475
sI474
S'away'
p476
sI475
S'sail'
p477
sI476
S'bier'
p478
sI477
S'madding'
p479
sI478
S'wilful-slow'
p480
sI479
S'mud'
p481
sI480
S'score'
p482
sI481
S'finger'
p483
sI482
S'pebbled'
p484
sI483
S'scorn'
p485
sI484
S'drawn'
p486
sI485
S'enlighten'
p487
sI486
S'preserve'
p488
sI487
S'warrior'
p489
sI488
S'we'
p490
sI489
S'men'
p491
sI490
S'terms'
p492
sI491
S'parallels'
p493
sI492
S'nature'
p494
sI493
S'weak'
p495
sI494
S'ignorance'
p496
sI495
S'authorizing'
p497
sI496
S'disdaineth'
p498
sI497
S'wear'
p499
sI498
S'diest'
p500
sI499
S'news'
p501
sI500
S'debt'
p502
sI501
S'tempests'
p503
sI502
S'pity'
p504
sI503
S'foes'
p505
sI504
S'goddess'
p506
sI505
S'accident'
p507
sI506
S'disdain'
p508
sI507
S'fault'
p509
sI508
S'ill'
p510
sI509
S'against'
p511
sI510
S'brag'
p512
sI511
S'receives'
p513
sI512
S'faces'
p514
sI513
S'exceeds'
p515
sI514
S'expense'
p516
sI515
S'groans'
p517
sI516
S'asked'
p518
sI517
S'suggest'
p519
sI518
S'vexed'
p520
sI519
S'honouring'
p521
sI520
S'burthen'
p522
sI521
S'height'
p523
sI522
S'hers'
p524
sI523
S'prone'
p525
sI524
S'springs'
p526
sI525
S'over-plus'
p527
sI526
S'trust'
p528
sI527
S'heals'
p529
sI528
S'speak'
p530
sI529
S'yellowed'
p531
sI530
S'unhappily'
p532
sI531
S'puts'
p533
sI532
S'eager'
p534
sI533
S'time-bettering'
p535
sI534
S'condemned'
p536
sI535
S'three'
p537
sI536
S'been'
p538
sI537
S'particulars'
p539
sI538
S'twain'
p540
sI539
S'much'
p541
sI540
S'interest'
p542
sI541
S'incertainty'
p543
sI542
S'privilege'
p544
sI543
S'vermilion'
p545
sI544
S'lovely'
p546
sI545
S'thrice'
p547
sI546
S'idol'
p548
sI547
S'threw'
p549
sI548
S'life'
p550
sI549
S"brav'ry"
p551
sI550
S'easy'
p552
sI551
S'erred'
p553
sI552
S'drugs'
p554
sI553
S'maladies'
p555
sI554
S'decrepit'
p556
sI555
S'dote'
p557
sI556
S'child'
p558
sI557
S'catch'
p559
sI558
S'doth'
p560
sI559
S'erst'
p561
sI560
S'gracious'
p562
sI561
S'physician'
p563
sI562
S'east'
p564
sI563
S'air'
p565
sI564
S'lesser'
p566
sI565
S'ugly'
p567
sI566
S'near'
p568
sI567
S'suppose'
p569
sI568
S'aid'
p570
sI569
S'voice'
p571
sI570
S'weakens'
p572
sI571
S'played'
p573
sI572
S'is'
p574
sI573
S'it'
p575
sI574
S'defeated'
p576
sI575
S'shame'
p577
sI576
S'to-morrow'
p578
sI577
S'splendour'
p579
sI578
S'watching'
p580
sI579
S'in'
p581
sI580
S'bounteous'
p582
sI581
S'if'
p583
sI582
S'grown'
p584
sI583
S'wooing'
p585
sI584
S'memorial'
p586
sI585
S'awakes'
p587
sI586
S'cools'
p588
sI587
S'patent'
p589
sI588
S'things'
p590
sI589
S'make'
p591
sI590
S'wound'
p592
sI591
S"lords'"
p593
sI592
S'beside'
p594
sI593
S'bosoms'
p595
sI594
S"th'"
p596
sI595
S'several'
p597
sI596
S'grows'
p598
sI597
S'entitled'
p599
sI598
S'lusty'
p600
sI599
S'fairly'
p601
sI600
S'tops'
p602
sI601
S'rain'
p603
sI602
S'hand'
p604
sI603
S'delight'
p605
sI604
S'supposing'
p606
sI605
S'dark'
p607
sI606
S'bequest'
p608
sI607
S'blamed'
p609
sI608
S'thoughts'
p610
sI609
S'censures'
p611
sI610
S'kept'
p612
sI611
S'thy'
p613
sI612
S'singleness'
p614
sI613
S'sweetness'
p615
sI614
S'possessed'
p616
sI615
S'humble'
p617
sI616
S'inherit'
p618
sI617
S'ocean'
p619
sI618
S'ragged'
p620
sI619
S'fulness'
p621
sI620
S'greatest'
p622
sI621
S'incapable'
p623
sI622
S'mother'
p624
sI623
S'hearts'
p625
sI624
S'the'
p626
sI625
S'cure'
p627
sI626
S'yours'
p628
sI627
S'left'
p629
sI628
S'reeks'
p630
sI629
S'just'
p631
sI630
S'wasteful'
p632
sI631
S'yea'
p633
sI632
S"poet's"
p634
sI633
S'unfair'
p635
sI634
S'repose'
p636
sI635
S'verses'
p637
sI636
S'maketh'
p638
sI637
S'thanks'
p639
sI638
S'swears'
p640
sI639
S'prognosticate'
p641
sI640
S'plight'
p642
sI641
S'yet'
p643
sI642
S'succeeding'
p644
sI643
S'vices'
p645
sI644
S'adding'
p646
sI645
S'dearer'
p647
sI646
S'compeers'
p648
sI647
S'had'
p649
sI648
S'counted'
p650
sI649
S'presagers'
p651
sI650
S'alchemy'
p652
sI651
S'belongs'
p653
sI652
S'beloved'
p654
sI653
S'prison'
p655
sI654
S'hap'
p656
sI655
S'pitiful'
p657
sI656
S'save'
p658
sI657
S'gave'
p659
sI658
S"others'"
p660
sI659
S'dignity'
p661
sI660
S'spacious'
p662
sI661
S'reviewest'
p663
sI662
S'birth'
p664
sI663
S'wanting'
p665
sI664
S'shadow'
p666
sI665
S'dreams'
p667
sI666
S"picture's"
p668
sI667
S'desire'
p669
sI668
S'brought'
p670
sI669
S"feed'st"
p671
sI670
S'gift'
p672
sI671
S'new-found'
p673
sI672
S'vilest'
p674
sI673
S'offices'
p675
sI674
S'night'
p676
sI675
S'hung'
p677
sI676
S'antique'
p678
sI677
S'right'
p679
sI678
S'old'
p680
sI679
S'flatter'
p681
sI680
S"war's"
p682
sI681
S'deaf'
p683
sI682
S'short-numbered'
p684
sI683
S'dead'
p685
sI684
S'born'
p686
sI685
S'dear'
p687
sI686
S'altered'
p688
sI687
S'bore'
p689
sI688
S'guess'
p690
sI689
S'creep'
p691
sI690
S'enemies'
p692
sI691
S'for'
p693
sI692
S'purple'
p694
sI693
S"bosom's"
p695
sI694
S'rehearse'
p696
sI695
S'comments'
p697
sI696
S'foe'
p698
sI697
S'denied'
p699
sI698
S'bold'
p700
sI699
S'burn'
p701
sI700
S'divining'
p702
sI701
S'shifting'
p703
sI702
S'losing'
p704
sI703
S'taker'
p705
sI704
S'peep'
p706
sI705
S'disdains'
p707
sI706
S'shaken'
p708
sI707
S'proceed'
p709
sI708
S'theirs'
p710
sI709
S'coral'
p711
sI710
S'haply'
p712
sI711
S'frailer'
p713
sI712
S'o'
sI713
S'costs'
p714
sI714
S'despair'
p715
sI715
S'felt'
p716
sI716
S'cherish'
p717
sI717
S'commit'
p718
sI718
S'lacked'
p719
sI719
S'bath'
p720
sI720
S'raised'
p721
sI721
S'faint'
p722
sI722
S'presence'
p723
sI723
S'civil'
p724
sI724
S'pays'
p725
sI725
S'nought'
p726
sI726
S'bound'
p727
sI727
S'son'
p728
sI728
S'down'
p729
sI729
S'lies'
p730
sI730
S'refined'
p731
sI731
S"pour'st"
p732
sI732
S'methods'
p733
sI733
S'strangely'
p734
sI734
S'despised'
p735
sI735
S'jealousy'
p736
sI736
S'sovereign'
p737
sI737
S'fight'
p738
sI738
S'virgin'
p739
sI739
S'way'
p740
sI740
S'call'
p741
sI741
S'was'
p742
sI742
S'war'
p743
sI743
S'happy'
p744
sI744
S'head'
p745
sI745
S'faring'
p746
sI746
S'form'
p747
sI747
S'statute'
p748
sI748
S'crown'
p749
sI749
S'becoming'
p750
sI750
S'forgetful'
p751
sI751
S'fore'
p752
sI752
S'back'
p753
sI753
S'heinous'
p754
sI754
S'pricked'
p755
sI755
S'heat'
p756
sI756
S'hear'
p757
sI757
S'odours'
p758
sI758
S'learned'
p759
sI759
S'astonished'
p760
sI760
S'blindness'
p761
sI761
S'removed'
p762
sI762
S'true'
p763
sI763
S'deepest'
p764
sI764
S'absent'
p765
sI765
S'lilies'
p766
sI766
S'captive'
p767
sI767
S'extremity'
p768
sI768
S"for't"
p769
sI769
S'bids'
p770
sI770
S'until'
p771
sI771
S'crystal'
p772
sI772
S'unfathered'
p773
sI773
S'adore'
p774
sI774
S'anew'
p775
sI775
S'engraft'
p776
sI776
S'bide'
p777
sI777
S'latch'
p778
sI778
S'trim'
p779
sI779
S'disgrace'
p780
sI780
S'ornaments'
p781
sI781
S'fury'
p782
sI782
S'sinful'
p783
sI783
S'steep-up'
p784
sI784
S"beauty's"
p785
sI785
S'hungry'
p786
sI786
S'huswife'
p787
sI787
S'sometime'
p788
sI788
S'subsist'
p789
sI789
S'shines'
p790
sI790
S'face'
p791
sI791
S'injurious'
p792
sI792
S'posting'
p793
sI793
S'willingly'
p794
sI794
S'looked'
p795
sI795
S'dying'
p796
sI796
S'no'
p797
sI797
S'excel'
p798
sI798
S"lov'st"
p799
sI799
S'actor'
p800
sI800
S'thriftless'
p801
sI801
S'despising'
p802
sI802
S'falsely'
p803
sI803
S'papers'
p804
sI804
S'tie'
p805
sI805
S'vanished'
p806
sI806
S'smell'
p807
sI807
S'eternity'
p808
sI808
S'picture'
p809
sI809
S'intend'
p810
sI810
S'phoenix'
p811
sI811
S'pyramids'
p812
sI812
S'dies'
p813
sI813
S'welcome'
p814
sI814
S'first-born'
p815
sI815
S'present-absent'
p816
sI816
S'journey'
p817
sI817
S'reign'
p818
sI818
S'rolling'
p819
sI819
S'pierced'
p820
sI820
S'seeing'
p821
sI821
S'died'
p822
sI822
S'wrackful'
p823
sI823
S'to-day'
p824
sI824
S'longer'
p825
sI825
S'blushing'
p826
sI826
S'daily'
p827
sI827
S'cheater'
p828
sI828
S'teeth'
p829
sI829
S"dian's"
p830
sI830
S'laws'
p831
sI831
S'restored'
p832
sI832
S'songs'
p833
sI833
S'whoever'
p834
sI834
S'varying'
p835
sI835
S"perceiv'st"
p836
sI836
S'souls'
p837
sI837
S'invent'
p838
sI838
S'engrafted'
p839
sI839
S'leads'
p840
sI840
S'continual'
p841
sI841
S'slandered'
p842
sI842
S'idolatry'
p843
sI843
S'abundant'
p844
sI844
S'retention'
p845
sI845
S'mounted'
p846
sI846
S'praises'
p847
sI847
S'father'
p848
sI848
S'confounds'
p849
sI849
S'vex'
p850
sI850
S'answered'
p851
sI851
S'charge'
p852
sI852
S'praised'
p853
sI853
S'suffered'
p854
sI854
S'addeth'
p855
sI855
S'furrows'
p856
sI856
S'abundance'
p857
sI857
S'strumpeted'
p858
sI858
S'string'
p859
sI859
S'advantage'
p860
sI860
S'drudge'
p861
sI861
S'fleece'
p862
sI862
S'votary'
p863
sI863
S'mourn'
p864
sI864
S'advised'
p865
sI865
S'word'
p866
sI866
S'trouble'
p867
sI867
S'feeble'
p868
sI868
S'cool'
p869
sI869
S"soul's"
p870
sI870
S'perceived'
p871
sI871
S'clouds'
p872
sI872
S'level'
p873
sI873
S'did'
p874
sI874
S'die'
p875
sI875
S'dig'
p876
sI876
S'leave'
p877
sI877
S'excellence'
p878
sI878
S'burned'
p879
sI879
S'quick'
p880
sI880
S'prevent'
p881
sI881
S'brave'
p882
sI882
S'says'
p883
sI883
S'fearing'
p884
sI884
S"offender's"
p885
sI885
S'double-vantage'
p886
sI886
S'sigh'
p887
sI887
S'wherefore'
p888
sI888
S'cost'
p889
sI889
S"show'st"
p890
sI890
S'patient'
p891
sI891
S'fear'
p892
sI892
S'indigest'
p893
sI893
S'hymn'
p894
sI894
S"fleet'st"
p895
sI895
S'curse'
p896
sI896
S'appear'
p897
sI897
S'assistance'
p898
sI898
S'contracted'
p899
sI899
S'favour'
p900
sI900
S'pleased'
p901
sI901
S'suspect'
p902
sI902
S'goes'
p903
sI903
S'pine'
p904
sI904
S'appeal'
p905
sI905
S'filled'
p906
sI906
S"april's"
p907
sI907
S'prescriptions'
p908
sI908
S'wail'
p909
sI909
S'honour'
p910
sI910
S'clerk'
p911
sI911
S'water'
p912
sI912
S'entertain'
p913
sI913
S'alone'
p914
sI914
S'appears'
p915
sI915
S'change'
p916
sI916
S'blunter'
p917
sI917
S'boy'
p918
sI918
S'boast'
p919
sI919
S'root'
p920
sI920
S'wherever'
p921
sI921
S'bow'
p922
sI922
S'spheres'
p923
sI923
S'shook'
p924
sI924
S'recounting'
p925
sI925
S'stained'
p926
sI926
S'love'
p927
sI927
S'humour'
p928
sI928
S'tempteth'
p929
sI929
S'bloody'
p930
sI930
S'withal'
p931
sI931
S'betraying'
p932
sI932
S'surmount'
p933
sI933
S'swallowed'
p934
sI934
S"suff'ring"
p935
sI935
S"o'erworn"
p936
sI936
S'voices'
p937
sI937
S'wealth'
p938
sI938
S'prove'
p939
sI939
S'sake'
p940
sI940
S'confounded'
p941
sI941
S'angry'
p942
sI942
S'give'
p943
sI943
S'only'
p944
sI944
S"batt'ring"
p945
sI945
S'wrongs'
p946
sI946
S'live'
p947
sI947
S'wood'
p948
sI948
S'prey'
p949
sI949
S'memory'
p950
sI950
S'scope'
p951
sI951
S'loving'
p952
sI952
S"love's"
p953
sI953
S'fierce'
p954
sI954
S'riot'
p955
sI955
S'sessions'
p956
sI956
S'towers'
p957
sI957
S'neglected'
p958
sI958
S'acceptable'
p959
sI959
S"strength's"
p960
sI960
S'drown'
p961
sI961
S'everywhere'
p962
sI962
S'virtue'
p963
sI963
S'robe'
p964
sI964
S'epitaph'
p965
sI965
S'fly'
p966
sI966
S'impair'
p967
sI967
S'sheds'
p968
sI968
S'car'
p969
sI969
S'soul'
p970
sI970
S'purge'
p971
sI971
S'hardest'
p972
sI972
S'sour'
p973
sI973
S'can'
p974
sI974
S'growing'
p975
sI975
S'making'
p976
sI976
S"prevent'st"
p977
sI977
S'deceased'
p978
sI978
S'breeds'
p979
sI979
S'heart'
p980
sI980
S'dedicated'
p981
sI981
S"servant's"
p982
sI982
S'want'
p983
sI983
S'figure'
p984
sI984
S'predict'
p985
sI985
S'sense'
p986
sI986
S'distillation'
p987
sI987
S'heard'
p988
sI988
S'critic'
p989
sI989
S'purity'
p990
sI990
S'hides'
p991
sI991
S"mak'st"
p992
sI992
S'provoke'
p993
sI993
S'stole'
p994
sI994
S'bereft'
p995
sI995
S'churls'
p996
sI996
S'winter'
p997
sI997
S'dress'
p998
sI998
S'divided'
p999
sI999
S'undivided'
p1000
sI1000
S'cloak'
p1001
sI1001
S'trophies'
p1002
sI1002
S"lour'st"
p1003
sI1003
S'write'
p1004
sI1004
S'till'
p1005
sI1005
S'sword'
p1006
sI1006
S'husbandry'
p1007
sI1007
S'sworn'
p1008
sI1008
S"eye's"
p1009
sI1009
S'map'
p1010
sI1010
S'mar'
p1011
sI1011
S'where-through'
p1012
sI1012
S'all-tyrant'
p1013
sI1013
S'may'
p1014
sI1014
S'fed'
p1015
sI1015
S'spot'
p1016
sI1016
S'siren'
p1017
sI1017
S'mad'
p1018
sI1018
S'date'
p1019
sI1019
S'end'
p1020
sI1020
S'hateth'
p1021
sI1021
S'flourish'
p1022
sI1022
S'grow'
p1023
sI1023
S'man'
p1024
sI1024
S'temperate'
p1025
sI1025
S'remember'
p1026
sI1026
S'liquid'
p1027
sI1027
S'candles'
p1028
sI1028
S'rather'
p1029
sI1029
S'so'
p1030
sI1030
S'silence'
p1031
sI1031
S'deceive'
p1032
sI1032
S'thorns'
p1033
sI1033
S'tall'
p1034
sI1034
S'increase'
p1035
sI1035
S'forced'
p1036
sI1036
S'serving'
p1037
sI1037
S'receivest'
p1038
sI1038
S'indeed'
p1039
sI1039
S'forfeit'
p1040
sI1040
S'wishing'
p1041
sI1041
S'years'
p1042
sI1042
S'course'
p1043
sI1043
S'pitch'
p1044
sI1044
S'cold'
p1045
sI1045
S'still'
p1046
sI1046
S'birds'
p1047
sI1047
S'trifle'
p1048
sI1048
S'limbs'
p1049
sI1049
S'derive'
p1050
sI1050
S'thank'
p1051
sI1051
S'acknowledge'
p1052
sI1052
S'muses'
p1053
sI1053
S'chips'
p1054
sI1054
S'inferior'
p1055
sI1055
S'curls'
p1056
sI1056
S'maid'
p1057
sI1057
S'tillage'
p1058
sI1058
S"play'st"
p1059
sI1059
S'policy'
p1060
sI1060
S"stol'n"
p1061
sI1061
S'main'
p1062
sI1062
S'into'
p1063
sI1063
S'correspondence'
p1064
sI1064
S'closure'
p1065
sI1065
S'truest'
p1066
sI1066
S'equipage'
p1067
sI1067
S'thereby'
p1068
sI1068
S'sooner'
p1069
sI1069
S'delighted'
p1070
sI1070
S'records'
p1071
sI1071
S'half'
p1072
sI1072
S'not'
p1073
sI1073
S'now'
p1074
sI1074
S'twilight'
p1075
sI1075
S'nor'
p1076
sI1076
S'wont'
p1077
sI1077
S'term'
p1078
sI1078
S'name'
p1079
sI1079
S'servant'
p1080
sI1080
S'uncertain'
p1081
sI1081
S'drop'
p1082
sI1082
S'breach'
p1083
sI1083
S'veins'
p1084
sI1084
S'orphans'
p1085
sI1085
S'surfeit'
p1086
sI1086
S"another's"
p1087
sI1087
S'receipt'
p1088
sI1088
S'richly'
p1089
sI1089
S'fever'
p1090
sI1090
S'farewell'
p1091
sI1091
S'seeting'
p1092
sI1092
S'year'
p1093
sI1093
S'hymns'
p1094
sI1094
S'living'
p1095
sI1095
S'shown'
p1096
sI1096
S'followed'
p1097
sI1097
S'mouths'
p1098
sI1098
S'space'
p1099
sI1099
S'profit'
p1100
sI1100
S'confine'
p1101
sI1101
S'abide'
p1102
sI1102
S'looking'
p1103
sI1103
S'boundless'
p1104
sI1104
S'grecian'
p1105
sI1105
S'receiving'
p1106
sI1106
S'correct'
p1107
sI1107
S'shows'
p1108
sI1108
S'worthiness'
p1109
sI1109
S'siege'
p1110
sI1110
S'cars'
p1111
sI1111
S'sweet-seasoned'
p1112
sI1112
S'quite'
p1113
sI1113
S'rebel'
p1114
sI1114
S'plea'
p1115
sI1115
S"feel'st"
p1116
sI1116
S'care'
p1117
sI1117
S'advance'
p1118
sI1118
S"age's"
p1119
sI1119
S'embassage'
p1120
sI1120
S'goest'
p1121
sI1121
S'contented'
p1122
sI1122
S"wand'rest"
p1123
sI1123
S'honest'
p1124
sI1124
S'motion'
p1125
sI1125
S'thing'
p1126
sI1126
S'thine'
p1127
sI1127
S'place'
p1128
sI1128
S'recompense'
p1129
sI1129
S'sufferance'
p1130
sI1130
S'widow'
p1131
sI1131
S'warning'
p1132
sI1132
S'think'
p1133
sI1133
S'frequent'
p1134
sI1134
S'first'
p1135
sI1135
S'blind'
p1136
sI1136
S'mayst'
p1137
sI1137
S'waves'
p1138
sI1138
S'teachest'
p1139
sI1139
S'nativity'
p1140
sI1140
S'consecrate'
p1141
sI1141
S'long'
p1142
sI1142
S'directly'
p1143
sI1143
S'habitation'
p1144
sI1144
S'carry'
p1145
sI1145
S'ill-used'
p1146
sI1146
S'sounds'
p1147
sI1147
S'tame'
p1148
sI1148
S'open'
p1149
sI1149
S'affords'
p1150
sI1150
S'millions'
p1151
sI1151
S'interchange'
p1152
sI1152
S'little'
p1153
sI1153
S'checked'
p1154
sI1154
S'silent'
p1155
sI1155
S'breed'
p1156
sI1156
S'fiery'
p1157
sI1157
S'bounty'
p1158
sI1158
S'white'
p1159
sI1159
S"tiger's"
p1160
sI1160
S'speaking'
p1161
sI1161
S'gives'
p1162
sI1162
S'gaudy'
p1163
sI1163
S'eyes'
p1164
sI1164
S'pomp'
p1165
sI1165
S'blazon'
p1166
sI1166
S'that'
p1167
sI1167
S'brains'
p1168
sI1168
S"men's"
p1169
sI1169
S'proving'
p1170
sI1170
S'hurt'
p1171
sI1171
S'alas'
p1172
sI1172
S'eyed'
p1173
sI1173
S'girded'
p1174
sI1174
S'reproving'
p1175
sI1175
S'flowers'
p1176
sI1176
S'than'
p1177
sI1177
S"stick'st"
p1178
sI1178
S'wide'
p1179
sI1179
S'wert'
p1180
sI1180
S'require'
p1181
sI1181
S'folly'
p1182
sI1182
S'transferred'
p1183
sI1183
S'were'
p1184
sI1184
S'carcanet'
p1185
sI1185
S'and'
p1186
sI1186
S'desperate'
p1187
sI1187
S'angel'
p1188
sI1188
S'slay'
p1189
sI1189
S'correction'
p1190
sI1190
S'confessed'
p1191
sI1191
S'turned'
p1192
sI1192
S'argument'
p1193
sI1193
S'jewels'
p1194
sI1194
S'sad'
p1195
sI1195
S'entombed'
p1196
sI1196
S'say'
p1197
sI1197
S'perfumes'
p1198
sI1198
S'buried'
p1199
sI1199
S'foiled'
p1200
sI1200
S'anger'
p1201
sI1201
S'sap'
p1202
sI1202
S'pry'
p1203
sI1203
S'any'
p1204
sI1204
S'jacks'
p1205
sI1205
S'sport'
p1206
sI1206
S'defaced'
p1207
sI1207
S'mourners'
p1208
sI1208
S'aside'
p1209
sI1209
S'note'
p1210
sI1210
S'wretch'
p1211
sI1211
S'take'
p1212
sI1212
S'resembling'
p1213
sI1213
S'green'
p1214
sI1214
S'blunt'
p1215
sI1215
S'flattered'
p1216
sI1216
S'urge'
p1217
sI1217
S'begin'
p1218
sI1218
S'sure'
p1219
sI1219
S'pain'
p1220
sI1220
S'busy'
p1221
sI1221
S'tallies'
p1222
sI1222
S'knew'
p1223
sI1223
S'clearer'
p1224
sI1224
S'paid'
p1225
sI1225
S'remover'
p1226
sI1226
S'unkindness'
p1227
sI1227
S'staineth'
p1228
sI1228
S'flatterer'
p1229
sI1229
S'tract'
p1230
sI1230
S'palate'
p1231
sI1231
S'winters'
p1232
sI1232
S'garments'
p1233
sI1233
S'proud'
p1234
sI1234
S"travel's"
p1235
sI1235
S'wing'
p1236
sI1236
S"perfect'st"
p1237
sI1237
S'sunset'
p1238
sI1238
S'amis'
p1239
sI1239
S'glutton'
p1240
sI1240
S'perfumed'
p1241
sI1241
S'sourest'
p1242
sI1242
S'buriest'
p1243
sI1243
S'shop'
p1244
sI1244
S'show'
p1245
sI1245
S'cheap'
p1246
sI1246
S'merit'
p1247
sI1247
S'trespass'
p1248
sI1248
S'bright'
p1249
sI1249
S'saying'
p1250
sI1250
S'untold'
p1251
sI1251
S'ground'
p1252
sI1252
S'slow'
p1253
sI1253
S'woos'
p1254
sI1254
S'unkind'
p1255
sI1255
S'stormy'
p1256
sI1256
S'title'
p1257
sI1257
S'treasure'
p1258
sI1258
S'robs'
p1259
sI1259
S'written'
p1260
sI1260
S'crime'
p1261
sI1261
S'tears'
p1262
sI1262
S'going'
p1263
sI1263
S'black'
p1264
sI1264
S'partake'
p1265
sI1265
S'stain'
p1266
sI1266
S'wilfully'
p1267
sI1267
S'hindmost'
p1268
sI1268
S'get'
p1269
sI1269
S"'tis"
p1270
sI1270
S'limbecks'
p1271
sI1271
S'truly'
p1272
sI1272
S'cannot'
p1273
sI1273
S'nearly'
p1274
sI1274
S'dye'
p1275
sI1275
S'prime'
p1276
sI1276
S'seldom'
p1277
sI1277
S'yield'
p1278
sI1278
S'morning'
p1279
sI1279
S'naked'
p1280
sI1280
S'miles'
p1281
sI1281
S'where'
p1282
sI1282
S'husband'
p1283
sI1283
S"monarch's"
p1284
sI1284
S'committed'
p1285
sI1285
S'up'
p1286
sI1286
S"fortune's"
p1287
sI1287
S'asleep'
p1288
sI1288
S'expiate'
p1289
sI1289
S'successive'
p1290
sI1290
S'seal'
p1291
sI1291
S'salutation'
p1292
sI1292
S'ruined'
p1293
sI1293
S'prayers'
p1294
sI1294
S'purest'
p1295
sI1295
S'wonder'
p1296
sI1296
S'invoked'
p1297
sI1297
S'tongue-tied'
p1298
sI1298
S'compounds'
p1299
sI1299
S'crooked'
p1300
sI1300
S'review'
p1301
sI1301
S'amen'
p1302
sI1302
S'ornament'
p1303
sI1303
S'behind'
p1304
sI1304
S'departest'
p1305
sI1305
S'complexion'
p1306
sI1306
S'sable'
p1307
sI1307
S'import'
p1308
sI1308
S'enjoys'
p1309
sI1309
S'presage'
p1310
sI1310
S'untainted'
p1311
sI1311
S'forsake'
p1312
sI1312
S'lays'
p1313
sI1313
S'discloses'
p1314
sI1314
S'pluck'
p1315
sI1315
S'blame'
p1316
sI1316
S'faults'
p1317
sI1317
S'countenance'
p1318
sI1318
S'reigns'
p1319
sI1319
S'profitless'
p1320
sI1320
S'come'
p1321
sI1321
S'grieved'
p1322
sI1322
S'dates'
p1323
sI1323
S'many'
p1324
sI1324
S'region'
p1325
sI1325
S'quiet'
p1326
sI1326
S'dwellers'
p1327
sI1327
S'awards'
p1328
sI1328
S"sea's"
p1329
sI1329
S'duty'
p1330
sI1330
S'among'
p1331
sI1331
S'unthrifts'
p1332
sI1332
S'madness'
p1333
sI1333
S'spoil'
p1334
sI1334
S'unthrifty'
p1335
sI1335
S'lace'
p1336
sI1336
S'swerving'
p1337
sI1337
S'dispatch'
p1338
sI1338
S'slain'
p1339
sI1339
S'stretched'
p1340
sI1340
S'learning'
p1341
sI1341
S'proved'
p1342
sI1342
S'hounds'
p1343
sI1343
S'boat'
p1344
sI1344
S'doctor-like'
p1345
sI1345
S'arts'
p1346
sI1346
S'self-doing'
p1347
sI1347
S'west'
p1348
sI1348
S'dross'
p1349
sI1349
S'mark'
p1350
sI1350
S'breath'
p1351
sI1351
S'subscribes'
p1352
sI1352
S"self's"
p1353
sI1353
S'mars'
p1354
sI1354
S'informer'
p1355
sI1355
S'fickle'
p1356
sI1356
S'straying'
p1357
sI1357
S'robbed'
p1358
sI1358
S'thousand'
p1359
sI1359
S'blessing'
p1360
sI1360
S'nobler'
p1361
sI1361
S'wake'
p1362
sI1362
S'external'
p1363
sI1363
S'frantic-mad'
p1364
sI1364
S'masonry'
p1365
sI1365
S'careful'
p1366
sI1366
S'deceivest'
p1367
sI1367
S'those'
p1368
sI1368
S'case'
p1369
sI1369
S'clears'
p1370
sI1370
S'profane'
p1371
sI1371
S'scarlet'
p1372
sI1372
S'these'
p1373
sI1373
S'sheaves'
p1374
sI1374
S'compile'
p1375
sI1375
S'cast'
p1376
sI1376
S'proves'
p1377
sI1377
S'cancelled'
p1378
sI1378
S'situation'
p1379
sI1379
S'endured'
p1380
sI1380
S'fool'
p1381
sI1381
S'endowed'
p1382
sI1382
S'brow'
p1383
sI1383
S'gluttoning'
p1384
sI1384
S'middle'
p1385
sI1385
S'limping'
p1386
sI1386
S'return'
p1387
sI1387
S'fame'
p1388
sI1388
S'different'
p1389
sI1389
S'harsh'
p1390
sI1390
S"tyrants'"
p1391
sI1391
S'strains'
p1392
sI1392
S'pay'
p1393
sI1393
S'same'
p1394
sI1394
S'check'
p1395
sI1395
S'shifts'
p1396
sI1396
S'distilled'
p1397
sI1397
S'figures'
p1398
sI1398
S'ladies'
p1399
sI1399
S"'truth"
p1400
sI1400
S'wires'
p1401
sI1401
S'faculty'
p1402
sI1402
S'sickness'
p1403
sI1403
S'tyrannous'
p1404
sI1404
S'defy'
p1405
sI1405
S'weed'
p1406
sI1406
S'fruit'
p1407
sI1407
S'scorned'
p1408
sI1408
S'conquered'
p1409
sI1409
S'extern'
p1410
sI1410
S'changing'
p1411
sI1411
S'weep'
p1412
sI1412
S"slander's"
p1413
sI1413
S'vowed'
p1414
sI1414
S'vantage'
p1415
sI1415
S'dear-purchased'
p1416
sI1416
S'throned'
p1417
sI1417
S'random'
p1418
sI1418
S'vacant'
p1419
sI1419
S'without'
p1420
sI1420
S'relief'
p1421
sI1421
S'charged'
p1422
sI1422
S'distills'
p1423
sI1423
S'summer'
p1424
sI1424
S'ransoms'
p1425
sI1425
S'being'
p1426
sI1426
S'when'
p1427
sI1427
S'compound'
p1428
sI1428
S'shamefully'
p1429
sI1429
S'rest'
p1430
sI1430
S'imprint'
p1431
sI1431
S'bareness'
p1432
sI1432
S'cease'
p1433
sI1433
S'disperse'
p1434
sI1434
S'aspect'
p1435
sI1435
S'touch'
p1436
sI1436
S'speed'
p1437
sI1437
S'guides'
p1438
sI1438
S'afterwards'
p1439
sI1439
S'blow'
p1440
sI1440
S'blot'
p1441
sI1441
S'unwooed'
p1442
sI1442
S'charactered'
p1443
sI1443
S'thinking'
p1444
sI1444
S'rose'
p1445
sI1445
S'seems'
p1446
sI1446
S"summer's"
p1447
sI1447
S"summers'"
p1448
sI1448
S'verse'
p1449
sI1449
S'suppressed'
p1450
sI1450
S'worthier'
p1451
sI1451
S'throw'
p1452
sI1452
S'dully'
p1453
sI1453
S'bond'
p1454
sI1454
S'valley-fountain'
p1455
sI1455
S'struck'
p1456
sI1456
S'kingdom'
p1457
sI1457
S'frown'
p1458
sI1458
S'kills'
p1459
sI1459
S'read'
p1460
sI1460
S'offence'
p1461
sI1461
S'sums'
p1462
sI1462
S'dart'
p1463
sI1463
S'basest'
p1464
sI1464
S'traffic'
p1465
sI1465
S'confined'
p1466
sI1466
S'world'
p1467
sI1467
S'reap'
p1468
sI1468
S'dare'
p1469
sI1469
S'acquainted'
p1470
sI1470
S'fortune'
p1471
sI1471
S'achieve'
p1472
sI1472
S'miracle'
p1473
sI1473
S'benefit'
p1474
sI1474
S"wretch's"
p1475
sI1475
S'either'
p1476
sI1476
S'robbery'
p1477
sI1477
S'offenders'
p1478
sI1478
S'warrantise'
p1479
sI1479
S'tombed'
p1480
sI1480
S'fulfil'
p1481
sI1481
S'falsehood'
p1482
sI1482
S'kings'
p1483
sI1483
S'images'
p1484
sI1484
S'divine'
p1485
sI1485
S'thinks'
p1486
sI1486
S'gross'
p1487
sI1487
S'courses'
p1488
sI1488
S'noon'
p1489
sI1489
S'lend'
p1490
sI1490
S'stops'
p1491
sI1491
S'moon'
p1492
sI1492
S'forgoing'
p1493
sI1493
S'expressing'
p1494
sI1494
S'self-loving'
p1495
sI1495
S'knife'
p1496
sI1496
S'destroys'
p1497
sI1497
S'shorn'
p1498
sI1498
S'power'
p1499
sI1499
S'seconds'
p1500
sI1500
S'blest'
p1501
sI1501
S'strained'
p1502
sI1502
S'olives'
p1503
sI1503
S'forgetfulness'
p1504
sI1504
S'broken'
p1505
sI1505
S"o'er-green"
p1506
sI1506
S'assemble'
p1507
sI1507
S'feeds'
p1508
sI1508
S'death-bed'
p1509
sI1509
S'on'
p1510
sI1510
S'stone'
p1511
sI1511
S'subdued'
p1512
sI1512
S'zealous'
p1513
sI1513
S'of'
p1514
sI1514
S'choirs'
p1515
sI1515
S'feil'
p1516
sI1516
S'whence'
p1517
sI1517
S'fell'
p1518
sI1518
S'wolf'
p1519
sI1519
S'stand'
p1520
sI1520
S'act'
p1521
sI1521
S'mixed'
p1522
sI1522
S"bear'st"
p1523
sI1523
S'or'
p1524
sI1524
S'imitated'
p1525
sI1525
S'widowed'
p1526
sI1526
S'long-lived'
p1527
sI1527
S'burning'
p1528
sI1528
S"put'st"
p1529
sI1529
S'distempered'
p1530
sI1530
S'image'
p1531
sI1531
S'blessed'
p1532
sI1532
S'rising'
p1533
sI1533
S'lively'
p1534
sI1534
S'dreaming'
p1535
sI1535
S'blesses'
p1536
sI1536
S'your'
p1537
sI1537
S'buds'
p1538
sI1538
S"oaths'"
p1539
sI1539
S'fast'
p1540
sI1540
S'prepare'
p1541
sI1541
S'there'
p1542
sI1542
S'disposed'
p1543
sI1543
S'sides'
p1544
sI1544
S'stealth'
p1545
sI1545
S'gaze'
p1546
sI1546
S"seasons'"
p1547
sI1547
S'stars'
p1548
sI1548
S'jaws'
p1549
sI1549
S'groan'
p1550
sI1550
S'enough'
p1551
sI1551
S"you'"
p1552
sI1552
S'petty'
p1553
sI1553
S"dyer's"
p1554
sI1554
S'delayed'
p1555
sI1555
S'strikes'
p1556
sI1556
S'meetness'
p1557
sI1557
S'suffers'
p1558
sI1558
S'with'
p1559
sI1559
S'happies'
p1560
sI1560
S'abused'
p1561
sI1561
S'applying'
p1562
sI1562
S'rage'
p1563
sI1563
S'niggarding'
p1564
sI1564
S'self-same'
p1565
sI1565
S'impute'
p1566
sI1566
S'abuses'
p1567
sI1567
S'strongly'
p1568
sI1568
S'gone'
p1569
sI1569
S'intents'
p1570
sI1570
S'celestial'
p1571
sI1571
S'fist'
p1572
sI1572
S'taste'
p1573
sI1573
S'ah'
p1574
sI1574
S'accents'
p1575
sI1575
S'stealing'
p1576
sI1576
S'am'
p1577
sI1577
S'deep'
p1578
sI1578
S'an'
p1579
sI1579
S'toiled'
p1580
sI1580
S'excusing'
p1581
sI1581
S'deem'
p1582
sI1582
S'carved'
p1583
sI1583
S'pen'
p1584
sI1584
S'ay'
p1585
sI1585
S'spends'
p1586
sI1586
S'fill'
p1587
sI1587
S'again'
p1588
sI1588
S'proudly'
p1589
sI1589
S"judgment's"
p1590
sI1590
S'deserve'
p1591
sI1591
S'ever-fixed'
p1592
sI1592
S"helen's"
p1593
sI1593
S'repent'
p1594
sI1594
S'incertainties'
p1595
sI1595
S'roses'
p1596
sI1596
S"wand'ring"
p1597
sI1597
S'you'
p1598
sI1598
S'abysm'
p1599
sI1599
S'poor'
p1600
sI1600
S'time'
p1601
sI1601
S'gifts'
p1602
sI1602
S'flower'
p1603
sI1603
S'suited'
p1604
sI1604
S'brass'
p1605
sI1605
S'sequent'
p1606
sI1606
S'building'
p1607
sI1607
S'backward'
p1608
sI1608
S'remote'
p1609
sI1609
S'calls'
p1610
sI1610
S'wife'
p1611
sI1611
S"life's"
p1612
sI1612
S'dyed'
p1613
sI1613
S'repay'
p1614
sI1614
S'hugely'
p1615
sI1615
S'treason'
p1616
sI1616
S'apparel'
p1617
sI1617
S'tanned'
p1618
sI1618
S'unset'
p1619
sI1619
S'all'
p1620
sI1620
S'consider'
p1621
sI1621
S'pointing'
p1622
sI1622
S'suns'
p1623
sI1623
S'forbidden'
p1624
sI1624
S'lack'
p1625
sI1625
S'neigh'
p1626
sI1626
S'worms'
p1627
sI1627
S'importune'
p1628
sI1628
S'seals'
p1629
sI1629
S'sunk'
p1630
sI1630
S"'gainst"
p1631
sI1631
S'forged'
p1632
sI1632
S'welfare'
p1633
sI1633
S'follow'
p1634
sI1634
S'meditation'
p1635
sI1635
S'faster'
p1636
sI1636
S'religious'
p1637
sI1637
S"gild'st"
p1638
sI1638
S'wakened'
p1639
sI1639
S'wanton'
p1640
sI1640
S'homage'
p1641
sI1641
S'sparkling'
p1642
sI1642
S'former'
p1643
sI1643
S"keep'st"
p1644
sI1644
S'to'
p1645
sI1645
S'present'
p1646
sI1646
S'dressing'
p1647
sI1647
S'nurseth'
p1648
sI1648
S'hideous'
p1649
sI1649
S'weeks'
p1650
sI1650
S'paying'
p1651
sI1651
S'woman'
p1652
sI1652
S'returned'
p1653
sI1653
S'song'
p1654
sI1654
S'very'
p1655
sI1655
S"'will"
p1656
sI1656
S'saved'
p1657
sI1657
S'coloured'
p1658
sI1658
S'oblation'
p1659
sI1659
S'medicine'
p1660
sI1660
S'worst'
p1661
sI1661
S'minded'
p1662
sI1662
S'fall'
p1663
sI1663
S'hems'
p1664
sI1664
S'difference'
p1665
sI1665
S'vouchsafe'
p1666
sI1666
S'heaven'
p1667
sI1667
S'list'
p1668
sI1668
S'silvered'
p1669
sI1669
S'fearful'
p1670
sI1670
S'small'
p1671
sI1671
S"t'"
p1672
sI1672
S'tender'
p1673
sI1673
S"i'll"
p1674
sI1674
S'quicker'
p1675
sI1675
S'ten'
p1676
sI1676
S'outworn'
p1677
sI1677
S'past'
p1678
sI1678
S'winds'
p1679
sI1679
S'invention'
p1680
sI1680
S'perspective'
p1681
sI1681
S'pass'
p1682
sI1682
S'savage'
p1683
sI1683
S'affable'
p1684
sI1684
S'befriends'
p1685
sI1685
S'crests'
p1686
sI1686
S'creatures'
p1687
sI1687
S'conscience'
p1688
sI1688
S'gazers'
p1689
sI1689
S'what'
p1690
sI1690
S'defence'
p1691
sI1691
S'darkness'
p1692
sI1692
S'sweetly'
p1693
sI1693
S'clock'
p1694
sI1694
S'sun'
p1695
sI1695
S'sum'
p1696
sI1696
S'brief'
p1697
sI1697
S'prevailed'
p1698
sI1698
S'foison'
p1699
sI1699
S'ill-wresting'
p1700
sI1700
S'nurse'
p1701
sI1701
S'shun'
p1702
sI1702
S'public'
p1703
sI1703
S'womb'
p1704
sI1704
S'dwells'
p1705
sI1705
S'full'
p1706
sI1706
S'ranged'
p1707
sI1707
S'love-suit'
p1708
sI1708
S'answers'
p1709
sI1709
S'revenge'
p1710
sI1710
S'hours'
p1711
sI1711
S'ensconce'
p1712
sI1712
S'excess'
p1713
sI1713
S'hast'
p1714
sI1714
S'depend'
p1715
sI1715
S'strong'
p1716
sI1716
S'respect'
p1717
sI1717
S'enmity'
p1718
sI1718
S'losses'
p1719
sI1719
S'dearths'
p1720
sI1720
S'reason'
p1721
sI1721
S'simply'
p1722
sI1722
S'action'
p1723
sI1723
S'steepy'
p1724
sI1724
S'extant'
p1725
sI1725
S'onwards'
p1726
sI1726
S"day's"
p1727
sI1727
S'depart'
p1728
sI1728
S'impiety'
p1729
sI1729
S'tendered'
p1730
sI1730
S'fearfully'
p1731
sI1731
S'sealed'
p1732
sI1732
S"lion's"
p1733
sI1733
S'estimate'
p1734
sI1734
S'unthrift'
p1735
sI1735
S'self-love'
p1736
sI1736
S'eye'
p1737
sI1737
S'takes'
p1738
sI1738
S'cherubins'
p1739
sI1739
S'contains'
p1740
sI1740
S'two'
p1741
sI1741
S'pearl'
p1742
sI1742
S'morn'
p1743
sI1743
S'soil'
p1744
sI1744
S'taken'
p1745
sI1745
S'injury'
p1746
sI1746
S'more'
p1747
sI1747
S'horses'
p1748
sI1748
S'wretched'
p1749
sI1749
S'unlearned'
p1750
sI1750
S'knows'
p1751
sI1751
S'delves'
p1752
sI1752
S"ow'st"
p1753
sI1753
S'foregone'
p1754
sI1754
S'spoils'
p1755
sI1755
S'woeful'
p1756
sI1756
S'excuse'
p1757
sI1757
S'lameness'
p1758
sI1758
S'controlling'
p1759
sI1759
S'broke'
p1760
sI1760
S'graven'
p1761
sI1761
S'known'
p1762
sI1762
S'doom'
p1763
sI1763
S'glad'
p1764
sI1764
S'cunning'
p1765
sI1765
S'commanded'
p1766
sI1766
S'over-goes'
p1767
sI1767
S'none'
p1768
sI1768
S'hour'
p1769
sI1769
S'besides'
p1770
sI1770
S'remain'
p1771
sI1771
S'nine'
p1772
sI1772
S'learn'
p1773
sI1773
S'marble'
p1774
sI1774
S'history'
p1775
sI1775
S'beautiful'
p1776
sI1776
S'compare'
p1777
sI1777
S'attainted'
p1778
sI1778
S'visage'
p1779
sI1779
S'trial'
p1780
sI1780
S'share'
p1781
sI1781
S'conspire'
p1782
sI1782
S'thievish'
p1783
sI1783
S'well-seeing'
p1784
sI1784
S'numbers'
p1785
sI1785
S'well-tuned'
p1786
sI1786
S'sharp'
p1787
sI1787
S'allege'
p1788
sI1788
S'huge'
p1789
sI1789
S'needs'
p1790
sI1790
S'drained'
p1791
sI1791
S'needy'
p1792
sI1792
S"'thus"
p1793
sI1793
S'comfort'
p1794
sI1794
S'chopt'
p1795
sI1795
S"adder's"
p1796
sI1796
S'glowing'
p1797
sI1797
S"heart's"
p1798
sI1798
S'sacred'
p1799
sI1799
S'new-fangled'
p1800
sI1800
S'creature'
p1801
sI1801
S'simplicity'
p1802
sI1802
S'rude'
p1803
sI1803
S'disgraced'
p1804
sI1804
S'mended'
p1805
sI1805
S'blood'
p1806
sI1806
S'coming'
p1807
sI1807
S'monsters'
p1808
sI1808
S'replete'
p1809
sI1809
S'a'
sI1810
S'refuse'
p1810
sI1811
S'short'
p1811
sI1812
S'resemble'
p1812
sI1813
S'shady'
p1813
sI1814
S'register'
p1814
sI1815
S"present'st"
p1815
sI1816
S'shore'
p1816
sI1817
S'shade'
p1817
sI1818
S'perjured'
p1818
sI1819
S'banks'
p1819
sI1820
S'pleasure'
p1820
sI1821
S"gav'st"
p1821
sI1822
S'penury'
p1822
sI1823
S'dream'
p1823
sI1824
S"that's"
p1824
sI1825
S'recite'
p1825
sI1826
S'help'
p1826
sI1827
S'winged'
p1827
sI1828
S'stays'
p1828
sI1829
S'soon'
p1829
sI1830
S'disabled'
p1830
sI1831
S'held'
p1831
sI1832
S'paper'
p1832
sI1833
S'through'
p1833
sI1834
S'signs'
p1834
sI1835
S'hell'
p1835
sI1836
S'smiling'
p1836
sI1837
S'suffer'
p1837
sI1838
S'saucy'
p1838
sI1839
S'style'
p1839
sI1840
S'pent'
p1840
sI1841
S'render'
p1841
sI1842
S'termed'
p1842
sI1843
S'pray'
p1843
sI1844
S'inward'
p1844
sI1845
S'deeds'
p1845
sI1846
S'bosom'
p1846
sI1847
S'teeming'
p1847
sI1848
S'famished'
p1848
sI1849
S'late'
p1849
sI1850
S'resort'
p1850
sI1851
S'absence'
p1851
sI1852
S'strange'
p1852
sI1853
S'threescore'
p1853
sI1854
S'ruining'
p1854
sI1855
S'self-willed'
p1855
sI1856
S'might'
p1856
sI1857
S'alter'
p1857
sI1858
S'crawls'
p1858
sI1859
S'forbear'
p1859
sI1860
S'tune'
p1860
sI1861
S'good'
p1861
sI1862
S'tyrants'
p1862
sI1863
S'kingly'
p1863
sI1864
S'seeking'
p1864
sI1865
S'food'
p1865
sI1866
S'ye'
p1866
sI1867
S'storm-beaten'
p1867
sI1868
S'speechless'
p1868
sI1869
S'walls'
p1869
sI1870
S'nymphs'
p1870
sI1871
S'thereof'
p1871
sI1872
S'weeds'
p1872
sI1873
S'foot'
p1873
sI1874
S'hunted'
p1874
sI1875
S'breathers'
p1875
sI1876
S"mistress'"
p1876
sI1877
S'complain'
p1877
sI1878
S'likeness'
p1878
sI1879
S'imprisoned'
p1879
sI1880
S'bent'
p1880
sI1881
S'always'
p1881
sI1882
S'truths'
p1882
sI1883
S'eloquence'
p1883
sI1884
S'tear'
p1884
sI1885
S'stopped'
p1885
sI1886
S'turns'
p1886
sI1887
S'found'
p1887
sI1888
S'heavy'
p1888
sI1889
S'weighs'
p1889
sI1890
S'proud-pied'
p1890
sI1891
S'bends'
p1891
sI1892
S'weight'
p1892
sI1893
S'house'
p1893
sI1894
S'hard'
p1894
sI1895
S'oppressed'
p1895
sI1896
S'surly'
p1896
sI1897
S"nature's"
p1897
sI1898
S'beyond'
p1898
sI1899
S'orient'
p1899
sI1900
S'travels'
p1900
sI1901
S'lovers'
p1901
sI1902
S'missed'
p1902
sI1903
S'since'
p1903
sI1904
S'publish'
p1904
sI1905
S'admired'
p1905
sI1906
S'health'
p1906
sI1907
S'hill'
p1907
sI1908
S'print'
p1908
sI1909
S'darling'
p1909
sI1910
S'issue'
p1910
sI1911
S'sympathized'
p1911
sI1912
S'stewards'
p1912
sI1913
S'boldness'
p1913
sI1914
S'belied'
p1914
sI1915
S'commits'
p1915
sI1916
S'fore-bemoaned'
p1916
sI1917
S'forgive'
p1917
sI1918
S'pleasant'
p1918
sI1919
S'qualify'
p1919
sI1920
S'base'
p1920
sI1921
S'impeached'
p1921
sI1922
S'put'
p1922
sI1923
S'teach'
p1923
sI1924
S'reproach'
p1924
sI1925
S"know'st"
p1925
sI1926
S'beast'
p1926
sI1927
S'owners'
p1927
sI1928
S'service'
p1928
sI1929
S"woman's"
p1929
sI1930
S'noted'
p1930
sI1931
S'sicken'
p1931
sI1932
S'pure'
p1932
sI1933
S'twenty'
p1933
sI1934
S'corrupting'
p1934
sI1935
S'feed'
p1935
sI1936
S'gazed'
p1936
sI1937
S'seeming'
p1937
sI1938
S'forwards'
p1938
sI1939
S'blush'
p1939
sI1940
S'feel'
p1940
sI1941
S'number'
p1941
sI1942
S'antiquity'
p1942
sI1943
S'elder'
p1943
sI1944
S'enlarged'
p1944
sI1945
S'revolution'
p1945
sI1946
S'done'
p1946
sI1947
S'defects'
p1947
sI1948
S'dreading'
p1948
sI1949
S'slept'
p1949
sI1950
S'rents'
p1950
sI1951
S'moan'
p1951
sI1952
S'horse'
p1952
sI1953
S'guest'
p1953
sI1954
S'become'
p1954
sI1955
S'rondure'
p1955
sI1956
S'together'
p1956
sI1957
S'slanderers'
p1957
sI1958
S'least'
p1958
sI1959
S'hallowed'
p1959
sI1960
S'minion'
p1960
sI1961
S'shamed'
p1961
sI1962
S'passed'
p1962
sI1963
S'essays'
p1963
sI1964
S'hundred'
p1964
sI1965
S'store'
p1965
sI1966
S'lease'
p1966
sI1967
S'youngly'
p1967
sI1968
S'selling'
p1968
sI1969
S'imperfect'
p1969
sI1970
S'saint'
p1970
sI1971
S'longing'
p1971
sI1972
S'adonis'
p1972
sI1973
S'part'
p1973
sI1974
S'bower'
p1974
sI1975
S'believe'
p1975
sI1976
S'grace'
p1976
sI1977
S'king'
p1977
sI1978
S'kind'
p1978
sI1979
S'grew'
p1979
sI1980
S'mortality'
p1980
sI1981
S'vial'
p1981
sI1982
S'double'
p1982
sI1983
S'anticipate'
p1983
sI1984
S'mortgaged'
p1984
sI1985
S'grey'
p1985
sI1986
S'shallowest'
p1986
sI1987
S'youth'
p1987
sI1988
S'autumn'
p1988
sI1989
S'determined'
p1989
sI1990
S'contrary'
p1990
sI1991
S'supposed'
p1991
sI1992
S'toward'
p1992
sI1993
S'restful'
p1993
sI1994
S'afar'
p1994
sI1995
S'tongues'
p1995
sI1996
S'trifles'
p1996
sI1997
S'ages'
p1997
sI1998
S'defect'
p1998
sI1999
S'livery'
p1999
sI2000
S'new-fired'
p2000
sI2001
S'alike'
p2001
sI2002
S'showers'
p2002
sI2003
S'travail'
p2003
sI2004
S'fading'
p2004
sI2005
S'sensual'
p2005
sI2006
S'sell'
p2006
sI2007
S'mountain'
p2007
sI2008
S'nights'
p2008
sI2009
S'built'
p2009
sI2010
S'drunk'
p2010
sI2011
S'dancing'
p2011
sI2012
S'self'
p2012
sI2013
S'onset'
p2013
sI2014
S'lifts'
p2014
sI2015
S'lip'
p2015
sI2016
S'finding'
p2016
sI2017
S'drinks'
p2017
sI2018
S'chary'
p2018
sI2019
S"art's"
p2019
sI2020
S"'had"
p2020
sI2021
S'towards'
p2021
sI2022
S'reckon'
p2022
sI2023
S'drowns'
p2023
sI2024
S'unswayed'
p2024
sI2025
S'unused'
p2025
sI2026
S'most'
p2026
sI2027
S'offences'
p2027
sI2028
S'blunting'
p2028
sI2029
S'amazeth'
p2029
sI2030
S'nothing'
p2030
sI2031
S'seasons'
p2031
sI2032
S"o'ercharged"
p2032
sI2033
S'wastes'
p2033
sI2034
S'measured'
p2034
sI2035
S'stands'
p2035
sI2036
S'chronicle'
p2036
sI2037
S'feasting'
p2037
sI2038
S'windows'
p2038
sI2039
S'builded'
p2039
sI2040
S'clear'
p2040
sI2041
S'sometimes'
p2041
sI2042
S'cover'
p2042
sI2043
S'unbred'
p2043
sI2044
S'waning'
p2044
sI2045
S'reeleth'
p2045
sI2046
S'barren'
p2046
sI2047
S'convertest'
p2047
sI2048
S'eisel'
p2048
sI2049
S'lying'
p2049
sI2050
S'stones'
p2050
sI2051
S'self-substantial'
p2051
sI2052
S'despise'
p2052
sI2053
S'gold'
p2053
sI2054
S'gates'
p2054
sI2055
S"y'have"
p2055
sI2056
S'wailing'
p2056
sI2057
S'fond'
p2057
sI2058
S'bending'
p2058
sI2059
S'rhymers'
p2059
sI2060
S'wasted'
p2060
sI2061
S'registers'
p2061
sI2062
S'fine'
p2062
sI2063
S'find'
p2063
sI2064
S'viewest'
p2064
sI2065
S'sportive'
p2065
sI2066
S'gilded'
p2066
sI2067
S'flattery'
p2067
sI2068
S'shouldst'
p2068
sI2069
S'deserts'
p2069
sI2070
S'ruin'
p2070
sI2071
S'less'
p2071
sI2072
S'waiting'
p2072
sI2073
S'vision'
p2073
sI2074
S'betray'
p2074
sI2075
S'beauteous'
p2075
sI2076
S'fiend'
p2076
sI2077
S"painter's"
p2077
sI2078
S'niggard'
p2078
sI2079
S'gains'
p2079
sI2080
S'mercy'
p2080
sI2081
S'compiled'
p2081
sI2082
S'express'
p2082
sI2083
S'impregnable'
p2083
sI2084
S'trees'
p2084
sI2085
S'remedy'
p2085
sI2086
S'hid'
p2086
sI2087
S'breast'
p2087
sI2088
S'theft'
p2088
sI2089
S'compass'
p2089
sI2090
S'swart-complexioned'
p2090
sI2091
S'sepulchres'
p2091
sI2092
S"send'st"
p2092
sI2093
S'him'
p2093
sI2094
S'distraction'
p2094
sI2095
S'grievances'
p2095
sI2096
S'pleasures'
p2096
sI2097
S'cry'
p2097
sI2098
S'impanelled'
p2098
sI2099
S'remove'
p2099
sI2100
S'augurs'
p2100
sI2101
S'common'
p2101
sI2102
S'kill'
p2102
sI2103
S'poisoned'
p2103
sI2104
S'wrongfully'
p2104
sI2105
S'bars'
p2105
sI2106
S'set'
p2106
sI2107
S'art'
p2107
sI2108
S'declines'
p2108
sI2109
S'jade'
p2109
sI2110
S"o'ersways"
p2110
sI2111
S'see'
p2111
sI2112
S'bare'
p2112
sI2113
S'are'
p2113
sI2114
S'sea'
p2114
sI2115
S'presenteth'
p2115
sI2116
S'bark'
p2116
sI2117
S'outward'
p2117
sI2118
S'spirits'
p2118
sI2119
S'forlorn'
p2119
sI2120
S'please'
p2120
sI2121
S'drooping'
p2121
sI2122
S'unions'
p2122
sI2123
S'won'
p2123
sI2124
S'gentlest'
p2124
sI2125
S'affairs'
p2125
sI2126
S'woe'
p2126
sI2127
S'guilt'
p2127
sI2128
S'rite'
p2128
sI2129
S'tibey'
p2129
sI2130
S'thrive'
p2130
sI2131
S'endure'
p2131
sI2132
S'knowing'
p2132
sI2133
S'creating'
p2133
sI2134
S'sold'
p2134
sI2135
S'sole'
p2135
sI2136
S'vanishing'
p2136
sI2137
S'death'
p2137
sI2138
S'alters'
p2138
sI2139
S'both'
p2139
sI2140
S'feeling'
p2140
sI2141
S'last'
p2141
sI2142
S'grounded'
p2142
sI2143
S'desired'
p2143
sI2144
S'thou'
p2144
sI2145
S'anon'
p2145
sI2146
S'forgotten'
p2146
sI2147
S'poverty'
p2147
sI2148
S'possesseth'
p2148
sI2149
S'approve'
p2149
sI2150
S'finds'
p2150
sI2151
S'usest'
p2151
sI2152
S'flies'
p2152
sI2153
S'majesty'
p2153
sI2154
S'point'
p2154
sI2155
S'reasons'
p2155
sI2156
S'sweet'
p2156
sI2157
S'loan'
p2157
sI2158
S'manners'
p2158
sI2159
S'except'
p2159
sI2160
S'liker'
p2160
sI2161
S'worthless'
p2161
sI2162
S'devil'
p2162
sI2163
S'unworthiness'
p2163
sI2164
S"'scaped"
p2164
sI2165
S'arrest'
p2165
sI2166
S'stamp'
p2166
sI2167
S'devouring'
p2167
sI2168
S'acceptance'
p2168
sI2169
S'satire'
p2169
sI2170
S'due'
p2170
sI2171
S'adulterate'
p2171
sI2172
S'whom'
p2172
sI2173
S'secret'
p2173
sI2174
S"wood's"
p2174
sI2175
S'wait'
p2175
sI2176
S'delights'
p2176
sI2177
S'rosy'
p2177
sI2178
S'firm'
p2178
sI2179
S'lived'
p2179
sI2180
S'partly'
p2180
sI2181
S'gay'
p2181
sI2182
S"'twixt"
p2182
sI2183
S'fire'
p2183
sI2184
S"dial's"
p2184
sI2185
S'overthrow'
p2185
sI2186
S'convert'
p2186
sI2187
S'else'
p2187
sI2188
S'lives'
p2188
sI2189
S'receive'
p2189
sI2190
S'mournful'
p2190
sI2191
S'plants'
p2191
sI2192
S'utmost'
p2192
sI2193
S'look'
p2193
sI2194
S'straight'
p2194
sI2195
S'admire'
p2195
sI2196
S'pace'
p2196
sI2197
S'while'
p2197
sI2198
S'rigour'
p2198
sI2199
S"intermixed'"
p2199
sI2200
S'kissing'
p2200
sI2201
S'eclipses'
p2201
sI2202
S'all-oblivious'
p2202
sI2203
S'odour'
p2203
sI2204
S"is't"
p2204
sI2205
S'confound'
p2205
sI2206
S'vow'
p2206
sI2207
S'unperfect'
p2207
sI2208
S'owes'
p2208
sI2209
S'seen'
p2209
sI2210
S'rid'
p2210
sI2211
S'seest'
p2211
sI2212
S'fairer'
p2212
sI2213
S'chase'
p2213
sI2214
S'twofold'
p2214
sI2215
S'grant'
p2215
sI2216
S'lengths'
p2216
sI2217
S'bristly'
p2217
sI2218
S'belong'
p2218
sI2219
S'engrossed'
p2219
sI2220
S'wherein'
p2220
sI2221
S'discourse'
p2221
sI2222
S'esteemed'
p2222
sI2223
S'ruth'
p2223
sI2224
S'composition'
p2224
sI2225
S'covetous'
p2225
sI2226
S'used'
p2226
sI2227
S'lie'
p2227
sI2228
S'mow'
p2228
sI2229
S'moment'
p2229
sI2230
S'flown'
p2230
sI2231
S'moving'
p2231
sI2232
S'purpose'
p2232
sI2233
S'wretchcd'
p2233
sI2234
S'early'
p2234
sI2235
S'task'
p2235
sI2236
S'older'
p2236
sI2237
S'accumulate'
p2237
sI2238
S'bevel'
p2238
sI2239
S'cheek'
p2239
sI2240
S'loathsome'
p2240
sI2241
S"frown'st"
p2241
sI2242
S'grind'
p2242
sI2243
S'morrow'
p2243
sI2244
S'cheer'
p2244
sI2245
S'edge'
p2245
sI2246
S'starved'
p2246
sI2247
S'toil'
p2247
sI2248
S'stelled'
p2248
sI2249
S'spend'
p2249
sI2250
S'grossly'
p2250
sI2251
S'plagues'
p2251
sI2252
S'presume'
p2252
sI2253
S'salve'
p2253
sI2254
S'shape'
p2254
sI2255
S'aright'
p2255
sI2256
S'injuries'
p2256
sI2257
S'unto'
p2257
sI2258
S'gems'
p2258
sI2259
S'tables'
p2259
sI2260
S'cut'
p2260
sI2261
S'cup'
p2261
sI2262
S'hated'
p2262
sI2263
S'decayed'
p2263
sI2264
S'hues'
p2264
sI2265
S'crying'
p2265
sI2266
S"either's"
p2266
sI2267
S"tongue's"
p2267
sI2268
S'march'
p2268
sI2269
S'lacking'
p2269
sI2270
S'big'
p2270
sI2271
S'bid'
p2271
sI2272
S'advocate'
p2272
sI2273
S'judgement'
p2273
sI2274
S'redeem'
p2274
sI2275
S'quest'
p2275
sI2276
S'messengers'
p2276
sI2277
S'dearly'
p2277
sI2278
S'necessary'
p2278
sI2279
S'sharpened'
p2279
sI2280
S"garments'"
p2280
sI2281
S'outright'
p2281
sI2282
S'inviting'
p2282
sI2283
S'follows'
p2283
sI2284
S"hate'"
p2284
sI2285
S'strife'
p2285
sI2286
S'shapes'
p2286
sI2287
S'translated'
p2287
sI2288
S'tribes'
p2288
sI2289
S'foolish'
p2289
sI2290
S'canst'
p2290
sI2291
S'wrack'
p2291
sI2292
S'often'
p2292
sI2293
S'wombs'
p2293
sI2294
S'spring'
p2294
sI2295
S'creation'
p2295
sI2296
S'some'
p2296
sI2297
S'play'
p2297
sI2298
S'sighs'
p2298
sI2299
S'lips'
p2299
sI2300
S'added'
p2300
sI2301
S'sight'
p2301
sI2302
S'curious'
p2302
sI2303
S'pale'
p2303
sI2304
S'sauces'
p2304
sI2305
S'delivered'
p2305
sI2306
S'acquaintance'
p2306
sI2307
S'fairing'
p2307
sI2308
S'shall'
p2308
sI2309
S'oblivion'
p2309
sI2310
S'balmy'
p2310
sI2311
S'kind-hearted'
p2311
sI2312
S'barrenly'
p2312
sI2313
S'lark'
p2313
sI2314
S'worship'
p2314
sI2315
S'be'
p2315
sI2316
S'run'
p2316
sI2317
S'remembered'
p2317
sI2318
S'clay'
p2318
sI2319
S"shadow's"
p2319
sI2320
S"'this"
p2320
sI2321
S'aloft'
p2321
sI2322
S'rent'
p2322
sI2323
S'fee'
p2323
sI2324
S'concealed'
p2324
sI2325
S'universe'
p2325
sI2326
S'by'
p2326
sI2327
S'shine'
p2327
sI2328
S'faith'
p2328
sI2329
S'deserved'
p2329
sI2330
S'wrinkles'
p2330
sI2331
S'deserves'
p2331
sI2332
S'ambush'
p2332
sI2333
S'hatred'
p2333
sI2334
S'tenants'
p2334
sI2335
S'youthful'
p2335
sI2336
S'misplaced'
p2336
sI2337
S'repair'
p2337
sI2338
S'conquest'
p2338
sI2339
S'within'
p2339
sI2340
S'warmed'
p2340
sI2341
S'debateth'
p2341
sI2342
S'services'
p2342
sI2343
S'because'
p2343
sI2344
S'remembrance'
p2344
sI2345
S'lesson'
p2345
sI2346
S"sharp'st"
p2346
sI2347
S'smells'
p2347
sI2348
S'torn'
p2348
sI2349
S'story'
p2349
sI2350
S'featureless'
p2350
sI2351
S'spending'
p2351
sI2352
S'question'
p2352
sI2353
S'chide'
p2353
sI2354
S'whereto'
p2354
sI2355
S'slandering'
p2355
sI2356
S'suit'
p2356
sI2357
S'forward'
p2357
sI2358
S'translate'
p2358
sI2359
S'himself'
p2359
sI2360
S'arise'
p2360
sI2361
S'elsewhere'
p2361
sI2362
S'governs'
p2362
sI2363
S'graciously'
p2363
sI2364
S'healthful'
p2364
sI2365
S'frost'
p2365
sI2366
S'vowing'
p2366
sI2367
S'authority'
p2367
sI2368
S'newer'
p2368
sI2369
S'filed'
p2369
sI2370
S'hopes'
p2370
sI2371
S'line'
p2371
sI2372
S'dull'
p2372
sI2373
S'usury'
p2373
sI2374
S'directed'
p2374
sI2375
S'hush'
p2375
sI2376
S'immured'
p2376
sI2377
S"lover's"
p2377
sI2378
S'sullied'
p2378
sI2379
S'us'
p2379
sI2380
S'lords'
p2380
sI2381
S'maturity'
p2381
sI2382
S'slander'
p2382
sI2383
S'hied'
p2383
sI2384
S'called'
p2384
sI2385
S'vassalage'
p2385
sI2386
S'bell'
p2386
sI2387
S'sort'
p2387
sI2388
S'constant'
p2388
sI2389
S'bind'
p2389
sI2390
S'goodly'
p2390
sI2391
S'allayed'
p2391
sI2392
S'influence'
p2392
sI2393
S'rarities'
p2393
sI2394
S'single'
p2394
sI2395
S'mightier'
p2395
sI2396
S'assailed'
p2396
sI2397
S'surmise'
p2397
sI2398
S'rainy'
p2398
sI2399
S'sullen'
p2399
sI2400
S'sunken'
p2400
sI2401
S'impediments'
p2401
sI2402
S'peace'
p2402
sI2403
S'fears'
p2403
sI2404
S'dimmed'
p2404
sI2405
S'afford'
p2405
sI2406
S'becomes'
p2406
sI2407
S'nay'
p2407
sI2408
S'mock'
p2408
sI2409
S'perusal'
p2409
sI2410
S'draw'
p2410
sI2411
S'elements'
p2411
sI2412
S'clean'
p2412
sI2413
S'besiege'
p2413
sI2414
S'breasts'
p2414
sI2415
S'rise'
p2415
sI2416
S'weigh'
p2416
sI2417
S'makeless'
p2417
sI2418
S'wrinkle'
p2418
sI2419
S'desert'
p2419
sI2420
S'land'
p2420
sI2421
S'happier'
p2421
sI2422
S"excuse'"
p2422
sI2423
S"spend'st"
p2423
sI2424
S'vice'
p2424
sI2425
S'age'
p2425
sI2426
S'wards'
p2426
sI2427
S'admiring'
p2427
sI2428
S'heats'
p2428
sI2429
S'came'
p2429
sI2430
S'fresh'
p2430
sI2431
S'marvel'
p2431
sI2432
S'having'
p2432
sI2433
S'once'
p2433
sI2434
S'wilfulness'
p2434
sI2435
S'discontent'
p2435
sI2436
S'highmost'
p2436
sI2437
S'tombs'
p2437
sI2438
S"deformed'st"
p2438
sI2439
S'alien'
p2439
sI2440
S'windy'
p2440
sI2441
S'special-blest'
p2441
sI2442
S'go'
p2442
sI2443
S'ruminate'
p2443
sI2444
S'seemed'
p2444
sI2445
S'graves'
p2445
sI2446
S'tincture'
p2446
sI2447
S'uphold'
p2447
sI2448
S'reckoned'
p2448
sI2449
S'young'
p2449
sI2450
S'send'
p2450
sI2451
S'debarred'
p2451
sI2452
S'pleasing'
p2452
sI2453
S'virtuous'
p2453
sI2454
S'over-partial'
p2454
sI2455
S'queen'
p2455
sI2456
S'wished'
p2456
sI2457
S'torture'
p2457
sI2458
S"'now"
p2458
sI2459
S"'not"
p2459
sI2460
S'confounding'
p2460
sI2461
S'rhyme'
p2461
sI2462
S'languished'
p2462
sI2463
S'rebuked'
p2463
sI2464
S'scanted'
p2464
sI2465
S'accuse'
p2465
sI2466
S'telling'
p2466
sI2467
S'false-speaking'
p2467
sI2468
S'iniquity'
p2468
sI2469
S'bonds'
p2469
sI2470
S'try'
p2470
sI2471
S"eve's"
p2471
sI2472
S'race'
p2472
sI2473
S'verdict'
p2473
sI2474
S'betwixt'
p2474
sI2475
S'rack'
p2475
sI2476
S"alt'ring"
p2476
sI2477
S'crow'
p2477
sI2478
S"work's"
p2478
sI2479
S'thinly'
p2479
sI2480
S'waking'
p2480
sI2481
S'jump'
p2481
sI2482
S'issueless'
p2482
sI2483
S'plead'
p2483
sI2484
S'decrees'
p2484
sI2485
S'pity-wanting'
p2485
sI2486
S'victor'
p2486
sI2487
S'giving'
p2487
sI2488
S'saw'
p2488
sI2489
S'expressed'
p2489
sI2490
S"man's"
p2490
sI2491
S'rotten'
p2491
sI2492
S'bird'
p2492
sI2493
S'body'
p2493
sI2494
S'melancholy'
p2494
sI2495
S'chose'
p2495
sI2496
S'gathered'
p2496
sI2497
S'sins'
p2497
sI2498
S'nimble'
p2498
sI2499
S'scythe'
p2499
sI2500
S'objects'
p2500
sI2501
S'let'
p2501
sI2502
S'separation'
p2502
sI2503
S'others'
p2503
sI2504
S'dissuade'
p2504
sI2505
S'sing'
p2505
sI2506
S'miser'
p2506
sI2507
S'extreme'
p2507
sI2508
S'great'
p2508
sI2509
S'burthens'
p2509
sI2510
S'conceit'
p2510
sI2511
S'metre'
p2511
sI2512
S'leaving'
p2512
sI2513
S'survey'
p2513
sI2514
S'defeat'
p2514
sI2515
S'proof'
p2515
sI2516
S'makes'
p2516
sI2517
S'writes'
p2517
sI2518
S'composed'
p2518
sI2519
S'thralled'
p2519
sI2520
S'chaste'
p2520
sI2521
S'apple'
p2521
sI2522
S'sire'
p2522
sI2523
S'forbid'
p2523
sI2524
S'win'
p2524
sI2525
S"whoe'er"
p2525
sI2526
S'private'
p2526
sI2527
S'uprear'
p2527
sI2528
S'instinct'
p2528
sI2529
S'wit'
p2529
sI2530
S'decrease'
p2530
sI2531
S'scandal'
p2531
sI2532
S'cloud'
p2532
sI2533
S'desiring'
p2533
sI2534
S"lovers'"
p2534
sI2535
S'use'
p2535
sI2536
S'cheered'
p2536
sI2537
S'from'
p2537
sI2538
S'remains'
p2538
sI2539
S'hammered'
p2539
sI2540
S'next'
p2540
sI2541
S'few'
p2541
sI2542
S'doubt'
p2542
sI2543
S'themselves'
p2543
sI2544
S'hiding'
p2544
sI2545
S"sun's"
p2545
sI2546
S'defendant'
p2546
sI2547
S'cheeks'
p2547
sI2548
S'possession'
p2548
sI2549
S'pencil'
p2549
sI2550
S'babe'
p2550
sI2551
S'pretty'
p2551
sI2552
S'misuse'
p2552
sI2553
S'famoused'
p2553
sI2554
S'heir'
p2554
sI2555
S"need'st"
p2555
sI2556
S'infection'
p2556
sI2557
S'insufficiency'
p2557
sI2558
S'tattered'
p2558
sI2559
S'gladly'
p2559
sI2560
S'harvest'
p2560
sI2561
S'annoy'
p2561
sI2562
S"none'"
p2562
sI2563
S'account'
p2563
sI2564
S'salving'
p2564
sI2565
S'this'
p2565
sI2566
S'ride'
p2566
sI2567
S'crossed'
p2567
sI2568
S'praise'
p2568
sI2569
S'executor'
p2569
sI2570
S'meet'
p2570
sI2571
S'drops'
p2571
sI2572
S'befits'
p2572
sI2573
S'vaunt'
p2573
sI2574
S'control'
p2574
sI2575
S'dregs'
p2575
sI2576
S'unswept'
p2576
sI2577
S"grow'st"
p2577
sI2578
S'ushers'
p2578
sI2579
S'process'
p2579
sI2580
S'high'
p2580
sI2581
S'sought'
p2581
sI2582
S'his'
p2582
sI2583
S'something'
p2583
sI2584
S'bones'
p2584
sI2585
S'purposed'
p2585
sI2586
S'paws'
p2586
sI2587
S'darkening'
p2587
sI2588
S'counterfeit'
p2588
sI2589
S'lamb'
p2589
sI2590
S'comes'
p2590
sI2591
S'counting'
p2591
sI2592
S'compounded'
p2592
sI2593
S'falls'
p2593
sI2594
S'sit'
p2594
sI2595
S"sickle's"
p2595
sI2596
S'holds'
p2596
sI2597
S'thrall'
p2597
sI2598
S'moods'
p2598
sI2599
S'swear'
p2599
sI2600
S'beams'
p2600
sI2601
S'mightst'
p2601
sI2602
S'forsaken'
p2602
sI2603
S'sin'
p2603
sI2604
S'watery'
p2604
sI2605
S'attend'
p2605
sI2606
S'watch'
p2606
sI2607
S'annexed'
p2607
sI2608
S'canker'
p2608
sI2609
S'abuse'
p2609
sI2610
S'fits'
p2610
sI2611
S"worth's"
p2611
sI2612
S'tomb'
p2612
sI2613
S'physic'
p2613
sI2614
S'bankrupt'
p2614
sI2615
S'untrimmed'
p2615
sI2616
S'light'
p2616
sI2617
S'lame'
p2617
sI2618
S'lines'
p2618
sI2619
S'chief'
p2619
sI2620
S'writ'
p2620
sI2621
S'allow'
p2621
sI2622
S'tenure'
p2622
sI2623
S'favourites'
p2623
sI2624
S'dispraise'
p2624
sI2625
S'neglect'
p2625
sI2626
S'beauties'
p2626
sI2627
S'stamped'
p2627
sI2628
S'transfix'
p2628
sI2629
S'move'
p2629
sI2630
S'sightless'
p2630
sI2631
S"o'erlook"
p2631
sI2632
S'vainly'
p2632
sI2633
S'whilst'
p2633
sI2634
S'beguile'
p2634
sI2635
S'dearest'
p2635
sI2636
S'enclose'
p2636
sI2637
S'looks'
p2637
sI2638
S'tyrant'
p2638
sI2639
S'thyself'
p2639
sI2640
S'badges'
p2640
sI2641
S'perfect'
p2641
sI2642
S'refusest'
p2642
sI2643
S'frailties'
p2643
sI2644
S'brood'
p2644
sI2645
S'whereon'
p2645
sI2646
S'unstained'
p2646
sI2647
S'decay'
p2647
sI2648
S'lo'
p2648
sI2649
S'whereof'
p2649
sI2650
S'banquet'
p2650
sI2651
S'themes'
p2651
sI2652
S'willing'
p2652
sI2653
S'choose'
p2653
sI2654
S'tickled'
p2654
sI2655
S'greater'
p2655
sI2656
S'anchored'
p2656
sI2657
S'sweets'
p2657
sI2658
S'stout'
p2658
sI2659
S'hands'
p2659
sI2660
S'front'
p2660
sI2661
S"owner's"
p2661
sI2662
S'kindness'
p2662
sI2663
S'affections'
p2663
sI2664
S'day'
p2664
sI2665
S'damasked'
p2665
sI2666
S'strive'
p2666
sI2667
S'profound'
p2667
sI2668
S'eased'
p2668
sI2669
S'feast'
p2669
sI2670
S'mouthed'
p2670
sI2671
S'trimmed'
p2671
sI2672
S'slide'
p2672
sI2673
S'truth'
p2673
sI2674
S'gazing'
p2674
sI2675
S'legions'
p2675
sI2676
S'treads'
p2676
sI2677
S'pitying'
p2677
sI2678
S'female'
p2678
sI2679
S'doing'
p2679
sI2680
S"princes'"
p2680
sI2681
S'ills'
p2681
sI2682
S'alteration'
p2682
sI2683
S'society'
p2683
sI2684
S'decays'
p2684
sI2685
S'exceeded'
p2685
sI2686
S'our'
p2686
sI2687
S'bay'
p2687
sI2688
S'tenth'
p2688
sI2689
S'beweep'
p2689
sI2690
S'out'
p2690
sI2691
S'respects'
p2691
sI2692
S"'"
sI2693
S"children's"
p2692
sI2694
S'plods'
p2693
sI2695
S'confess'
p2694
sI2696
S'sufficed'
p2695
sI2697
S'bad'
p2696
sI2698
S'frowns'
p2697
sI2699
S'impart'
p2698
sI2700
S'cause'
p2699
sI2701
S'red'
p2700
sI2702
S'monuments'
p2701
sI2703
S'perish'
p2702
sI2704
S'frank'
p2703
sI2705
S'withering'
p2704
sI2706
S'darkly'
p2705
sI2707
S'embassy'
p2706
sI2708
S'attending'
p2707
sI2709
S'tresses'
p2708
sI2710
S'thrust'
p2709
sI2711
S'yore'
p2710
sI2712
S'cured'
p2711
sI2713
S'her'
p2712
sI2714
S'rearward'
p2713
sI2715
S'could'
p2714
sI2716
S'keep'
p2715
sI2717
S'counterpart'
p2716
sI2718
S'keen'
p2717
sI2719
S'length'
p2718
sI2720
S'cures'
p2719
sI2721
S'mortal'
p2720
sI2722
S'hence'
p2721
sI2723
S'ears'
p2722
sI2724
S'rudely'
p2723
sI2725
S'new-appearing'
p2724
sI2726
S'fragrant'
p2725
sI2727
S'pitied'
p2726
sI2728
S'possessing'
p2727
sI2729
S'powerful'
p2728
sI2730
S'loveliness'
p2729
sI2731
S'feasts'
p2730
sI2732
S"learned's"
p2731
sI2733
S'such'
p2732
sI2734
S'reigned'
p2733
sI2735
S'quality'
p2734
sI2736
S'moiety'
p2735
sI2737
S'uneared'
p2736
sI2738
S"love'"
p2737
sI2739
S'sadly'
p2738
sI2740
S'ordering'
p2739
sI2741
S'dove'
p2740
sI2742
S'vulgar'
p2741
sI2743
S'seat'
p2742
sI2744
S'their'
p2743
sI2745
S'intelligence'
p2744
sI2746
S'prouder'
p2745
sI2747
S'travelled'
p2746
sI2748
S'badness'
p2747
sI2749
S'fairest'
p2748
sI2750
S'painful'
p2749
sI2751
S'low'
p2750
sI2752
S'never-resting'
p2751
sI2753
S"were't"
p2752
sI2754
S'perforce'
p2753
sI2755
S'quenched'
p2754
sI2756
S'prefiguring'
p2755
sI2757
S'spites'
p2756
sI2758
S'commence'
p2757
sI2759
S'soundless'
p2758
sI2760
S'steel'
p2759
sI2761
S'loved'
p2760
sI2762
S'unlooked'
p2761
sI2763
S'aught'
p2762
sI2764
S"o'er"
p2763
sI2765
S'riches'
p2764
sI2766
S'richer'
p2765
sI2767
S'bed'
p2766
sI2768
S'jollity'
p2767
sI2769
S'transgression'
p2768
sI2770
S"body's"
p2769
sI2771
S'loves'
p2770
sI2772
S'lover'
p2771
sI2773
S'dumb'
p2772
sI2774
S"lily's"
p2773
sI2775
S'steep'
p2774
sI2776
S'descriptions'
p2775
sI2777
S'vengeful'
p2776
sI2778
S'accusing'
p2777
sI2779
S'enforced'
p2778
sI2780
S'beggared'
p2779
sI2781
S'false'
p2780
sI2782
S"forget'st"
p2781
sI2783
S'beggar'
p2782
sI2784
S'labouring'
p2783
sI2785
S'gently'
p2784
sI2786
S'refigured'
p2785
sI2787
S'gentle'
p2786
sI2788
S'buy'
p2787
sI2789
S'torment'
p2788
sI2790
S'have'
p2789
sI2791
S're-survey'
p2790
sI2792
S'need'
p2791
sI2793
S'turn'
p2792
sI2794
S'sings'
p2793
sI2795
S'bastard'
p2794
sI2796
S'bough'
p2795
sI2797
S'wits'
p2796
sI2798
S'able'
p2797
sI2799
S'gravity'
p2798
sI2800
S'adjunct'
p2799
sI2801
S'which'
p2800
sI2802
S'divert'
p2801
sI2803
S'lily'
p2802
sI2804
S'abhor'
p2803
sI2805
S'adieu'
p2804
sI2806
S'unless'
p2805
sI2807
S'centre'
p2806
sI2808
S'senses'
p2807
sI2809
S'who'
p2808
sI2810
S'privilage'
p2809
sI2811
S"beds'"
p2810
sI2812
S"time's"
p2811
sI2813
S'harmful'
p2812
sI2814
S'offend'
p2813
sI2815
S'lust'
p2814
sI2816
S'but'
p2815
sI2817
S'prisoner'
p2816
sI2818
S'expired'
p2817
sI2819
S'why'
p2818
sI2820
S"husband's"
p2819
sI2821
S'afresh'
p2820
sI2822
S'deny'
p2821
sI2823
S'wherewith'
p2822
sI2824
S'bred'
p2823
sI2825
S'stronger'
p2824
sI2826
S'disease'
p2825
sI2827
S"widow's"
p2826
sI2828
S'pipe'
p2827
sI2829
S'wounded'
p2828
sI2830
S'painting'
p2829
sI2831
S'outlive'
p2830
sI2832
S'deface'
p2831
sI2833
S'impression'
p2832
sI2834
S'afloat'
p2833
sI2835
S'wilful'
p2834
sI2836
S'couldst'
p2835
sI2837
S'burden'
p2836
sI2838
S'poesy'
p2837
sI2839
S'bring'
p2838
sI2840
S"many's"
p2839
sI2841
S'rough'
p2840
sI2842
S'obsequious'
p2841
sI2843
S'debate'
p2842
sI2844
S'spurring'
p2843
sI2845
S'envy'
p2844
sI2846
S'knowledge'
p2845
sI2847
S'chiding'
p2846
sI2848
S'philomel'
p2847
sI2849
S'mute'
p2848
sI2850
S'woo'
p2849
sI2851
S'world-without-end'
p2850
sI2852
S'should'
p2851
sI2853
S'bases'
p2852
sI2854
S'preposterously'
p2853
sI2855
S'fuel'
p2854
sI2856
S'marriage'
p2855
sI2857
S'inhabit'
p2856
sI2858
S'hope'
p2857
sI2859
S'meant'
p2858
sI2860
S'accessary'
p2859
sI2861
S'doubting'
p2860
sI2862
S'means'
p2861
sI2863
S'familiar'
p2862
sI2864
S'bear'
p2863
sI2865
S'perfection'
p2864
sI2866
S'words'
p2865
sI2867
S'durst'
p2866
sI2868
S'leases'
p2867
sI2869
S'spur'
p2868
sI2870
S"offence's"
p2869
sI2871
S'endless'
p2870
sI2872
S'heretic'
p2871
sI2873
S'evident'
p2872
sI2874
S'brain'
p2873
sI2875
S'gust'
p2874
sI2876
S'married'
p2875
sI2877
S'summon'
p2876
sI2878
S'she'
p2877
sI2879
S'contain'
p2878
sI2880
S'fixed'
p2879
sI2881
S'view'
p2880
sI2882
S'strengthened'
p2881
sI2883
S'sluttish'
p2882
sI2884
S'untrue'
p2883
sI2885
S'outbraves'
p2884
sI2886
S'farthest'
p2885
sI2887
S'miscalled'
p2886
sI2888
S'frame'
p2887
sI2889
S'shake'
p2888
sI2890
S'legacy'
p2889
sI2891
S'merits'
p2890
sI2892
S'changes'
p2891
sI2893
S'enfeebled'
p2892
sI2894
S'violet'
p2893
sI2895
S'sleeping'
p2894
sI2896
S'tripping'
p2895
sI2897
S'error'
p2896
sI2898
S'closet'
p2897
sI2899
S'record'
p2898
sI2900
S'pattern'
p2899
sI2901
S'vows'
p2900
sI2902
S'unseeing'
p2901
sI2903
S'tend'
p2902
sI2904
S'state'
p2903
sI2905
S'boughs'
p2904
sI2906
S'progress'
p2905
sI2907
S'neither'
p2906
sI2908
S'besmeared'
p2907
sI2909
S'wiry'
p2908
sI2910
S'down-rased'
p2909
sI2911
S'dateless'
p2910
sI2912
S'dressings'
p2911
sI2913
S'joy'
p2912
sI2914
S'sorrow'
p2913
sI2915
S'hooks'
p2914
sI2916
S'key'
p2915
sI2917
S'precious'
p2916
sI2918
S'weary'
p2917
sI2919
S'swift'
p2918
sI2920
S'hits'
p2919
sI2921
S'figured'
p2920
sI2922
S'instant'
p2921
sI2923
S'limits'
p2922
sI2924
S'invited'
p2923
sI2925
S'thence'
p2924
sI2926
S'equal'
p2925
sI2927
S'minds'
p2926
sI2928
S'april'
p2927
sI2929
S'admit'
p2928
sI2930
S'devour'
p2929
sI2931
S'streams'
p2930
sI2932
S"store's"
p2931
sI2933
S'behaviour'
p2932
sI2934
S'canopy'
p2933
sI2935
S'lofty'
p2934
sI2936
S'kinds'
p2935
sI2937
S'glorious'
p2936
sI2938
S'aye'
p2937
sI2939
S'comment'
p2938
sI2940
S'fester'
p2939
sI2941
S'marjoram'
p2940
sI2942
S'statues'
p2941
sI2943
S'unfolding'
p2942
sI2944
S'walk'
p2943
sI2945
S'commend'
p2944
sI2946
S'beguiled'
p2945
sI2947
S'table'
p2946
sI2948
S'renewest'
p2947
sI2949
S'second'
p2948
sI2950
S'addition'
p2949
sI2951
S'wills'
p2950
sI2952
S"whate'er"
p2951
sI2953
S'certain'
p2952
sI2954
S'poet'
p2953
sI2955
S'waste'
p2954
sI2956
S'define'
p2955
sI2957
S'tyranny'
p2956
sI2958
S'describe'
p2957
sI2959
S'general'
p2958
sI2960
S'proudest'
p2959
sI2961
S'league'
p2960
sI2962
S'painted'
p2961
sI2963
S'releasing'
p2962
sI2964
S"hear'st"
p2963
sI2965
S'lets'
p2964
sI2966
S'unmoved'
p2965
sI2967
S'overturn'
p2966
sI2968
S'painter'
p2967
sI2969
S'debtor'
p2968
sI2970
S'novel'
p2969
sI2971
S'sourly'
p2970
sI2972
S'surety-like'
p2971
sI2973
S'wilt'
p2972
sI2974
S'plain'
p2973
sI2975
S'appearance'
p2974
sI2976
S'as'
p2975
sI2977
S'three-fold'
p2976
sI2978
S'will'
p2977
sI2979
S'riper'
p2978
sI2980
S"hate's"
p2979
sI2981
S'at'
p2980
sI2982
S'ripe'
p2981
sI2983
S'physicians'
p2982
sI2984
S'almost'
p2983
sI2985
S'up-locked'
p2984
sI2986
S'thus'
p2985
sI2987
S'lascivious'
p2986
sI2988
S'lambs'
p2987
sI2989
S'sits'
p2988
sI2990
S'halt'
p2989
sI2991
S'ransom'
p2990
sI2992
S'all-eating'
p2991
sI2993
S'perhaps'
p2992
sI2994
S'cross'
p2993
sI2995
S'proceeds'
p2994
sI2996
S'largess'
p2995
sI2997
S'adverse'
p2996
sI2998
S'parts'
p2997
sI2999
S'duteous'
p2998
sI3000
S'freezings'
p2999
sI3001
S'party'
p3000
sI3002
S'well-contented'
p3001
sI3003
S'blooms'
p3002
sI3004
S'slave'
p3003
sI3005
S'flesh'
p3004
sI3006
S'shames'
p3005
sI3007
S'lasting'
p3006
sI3008
S'drink'
p3007
sI3009
S'upon'
p3008
sI3010
S'effect'
p3009
sI3011
S'outcast'
p3010
sI3012
S'nightly'
p3011
sI3013
S"december's"
p3012
sI3014
S'dust'
p3013
sI3015
S'judgment'
p3014
sI3016
S'steals'
p3015
sI3017
S'audit'
p3016
sI3018
S'scarcely'
p3017
sI3019
S'off'
p3018
sI3020
S'i'
sI3021
S'whole'
p3019
sI3022
S'colour'
p3020
sI3023
S'well'
p3021
sI3024
S'thought'
p3022
sI3025
S'amends'
p3023
sI3026
S'oft'
p3024
sI3027
S'sets'
p3025
sI3028
S'arising'
p3026
sI3029
S'twire'
p3027
sI3030
S'lest'
p3028
sI3031
S'restore'
p3029
sI3032
S'feathered'
p3030
sI3033
S'stores'
p3031
sI3034
S'kiss'
p3032
sI3035
S'heavily'
p3033
sI3036
S"o'erpressed"
p3034
sI3037
S'gulls'
p3035
sI3038
S'love-god'
p3036
sI3039
S'cries'
p3037
sI3040
S'interim'
p3038
sI3041
S'skill'
p3039
sI3042
S'thither'
p3040
sI3043
S'dost'
p3041
sI3044
S'reckoning'
p3042
sI3045
S'field'
p3043
sI3046
S'onward'
p3044
sI3047
S'sky'
p3045
sI3048
S'fled'
p3046
sI3049
S'simple'
p3047
sI3050
S'add'
p3048
sI3051
S'other'
p3049
sI3052
S'wet'
p3050
sI3053
S"infant's"
p3051
sI3054
S'raven'
p3052
sI3055
S'wooed'
p3053
sI3056
S'fate'
p3054
sI3057
S'testy'
p3055
sI3058
S'devised'
p3056
sI3059
S'famine'
p3057
sI3060
S"who's"
p3058
sI3061
S'crushed'
p3059
sI3062
S'smother'
p3060
sI3063
S'five'
p3061
sI3064
S'know'
p3062
sI3065
S'unseen'
p3063
sI3066
S'press'
p3064
sI3067
S'fools'
p3065
sI3068
S'loss'
p3066
sI3069
S'showing'
p3067
sI3070
S'like'
p3068
sI3071
S'lost'
p3069
sI3072
S'perpetual'
p3070
sI3073
S'rich-proud'
p3071
sI3074
S'admitted'
p3072
sI3075
S'beseechers'
p3073
sI3076
S'heed'
p3074
sI3077
S'lose'
p3075
sI3078
S'nerves'
p3076
sI3079
S'works'
p3077
sI3080
S'soft'
p3078
sI3081
S'page'
p3079
sI3082
S'lends'
p3080
sI3083
S'therein'
p3081
sI3084
S'decease'
p3082
sI3085
S'exceed'
p3083
sI3086
S'inconstant'
p3084
sI3087
S'workings'
p3085
sI3088
S'thief'
p3086
sI3089
S'alive'
p3087
sI3090
S'immortal'
p3088
sI3091
S'hair'
p3089
sI3092
S'growth'
p3090
sI3093
S'home'
p3091
sI3094
S'transport'
p3092
sI3095
S"heaven's"
p3093
sI3096
S'lead'
p3094
sI3097
S'broad'
p3095
sI3098
S'lean'
p3096
sI3099
S'leap'
p3097
sI3100
S'passion'
p3098
sI3101
S'masked'
p3099
sI3102
S"o'ertake"
p3100
sI3103
S'poets'
p3101
sI3104
S'slight'
p3102
sI3105
S"death's"
p3103
sI3106
S'how'
p3104
sI3107
S'expire'
p3105
sI3108
S'although'
p3106
sI3109
S'worthy'
p3107
sI3110
S'posterity'
p3108
sI3111
S'imaginary'
p3109
sI3112
S'insults'
p3110
sI3113
S'worths'
p3111
sI3114
S'stage'
p3112
sI3115
S'about'
p3113
sI3116
S"murd'rous"
p3114
sI3117
S'rare'
p3115
sI3118
S'dun'
p3116
sI3119
S'linger'
p3117
sI3120
S'freedom'
p3118
sI3121
S'harder'
p3119
sI3122
S'blessings'
p3120
sI3123
S'gainer'
p3121
sI3124
S'hairs'
p3122
sI3125
S'tongue'
p3123
sI3126
S'beshrew'
p3124
sI3127
S'outstripped'
p3125
sI3128
S'own'
p3126
sI3129
S'polished'
p3127
sI3130
S'owe'
p3128
sI3131
S'attaint'
p3129
sI3132
S'guard'
p3130
sI3133
S'promise'
p3131
sI3134
S'esteem'
p3132
sI3135
S"ne'er-cloying"
p3133
sI3136
S'lawful'
p3134
sI3137
S'quickly'
p3135
sI3138
S'gazeth'
p3136
sI3139
S'suborned'
p3137
sI3140
S'victors'
p3138
sI3141
S'veil'
p3139
sI3142
S'trenches'
p3140
sI3143
S'watchman'
p3141
sI3144
S'spread'
p3142
sI3145
S"grief's"
p3143
sI3146
S'function'
p3144
sI3147
S'prophetic'
p3145
sI3148
S'hoisted'
p3146
sI3149
S'brand'
p3147
sI3150
S'invocate'
p3148
sI3151
S'fountains'
p3149
sI3152
S'gait'
p3150
sI3153
S'prophecies'
p3151
sI3154
S'plague'
p3152
sI3155
S'gain'
p3153
sI3156
S'delivers'
p3154
sI3157
S'ear'
p3155
sI3158
S'eat'
p3156
sI3159
S'bud'
p3157
sI3160
S'he'
p3158
sI3161
S'count'
p3159
sI3162
S'made'
p3160
sI3163
S'wise'
p3161
sI3164
S'princes'
p3162
sI3165
S'glory'
p3163
sI3166
S'whether'
p3164
sI3167
S'wish'
p3165
sI3168
S'grieve'
p3166
sI3169
S'triumphant'
p3167
sI3170
S"eyes'"
p3168
sI3171
S'placed'
p3169
sI3172
S'cruel'
p3170
sI3173
S'converted'
p3171
sI3174
S'limit'
p3172
sI3175
S'monument'
p3173
sI3176
S'minutes'
p3174
sI3177
S'bearing'
p3175
sI3178
S'rightly'
p3176
sI3179
S'deaths'
p3177
sI3180
S'devise'
p3178
sI3181
S'measure'
p3179
sI3182
S'dearth'
p3180
sI3183
S'denote'
p3181
sI3184
S'goodness'
p3182
sI3185
S'ink'
p3183
sI3186
S'fleeting'
p3184
sI3187
S'self-killed'
p3185
sI3188
S'naming'
p3186
sI3189
S'endeared'
p3187
sI3190
S'nursed'
p3188
sI3191
S'mutual'
p3189
sI3192
S'compared'
p3190
sI3193
S'didst'
p3191
sI3194
S'dressed'
p3192
sI3195
S'boot'
p3193
sI3196
S'forests'
p3194
sI3197
S'detain'
p3195
sI3198
S'slumbers'
p3196
sI3199
S'book'
p3197
sI3200
S'witness'
p3198
sI3201
S'sick'
p3199
sI3202
S'unlettered'
p3200
sI3203
S'behold'
p3201
sI3204
S"what's"
p3202
sI3205
S'thrivers'
p3203
sI3206
S'semblance'
p3204
sI3207
S'star'
p3205
sI3208
S'oppression'
p3206
sI3209
S'variation'
p3207
sI3210
S'stay'
p3208
sI3211
S'methinks'
p3209
sI3212
S'chance'
p3210
sI3213
S'quietus'
p3211
sI3214
S'earthly'
p3212
sI3215
S'astronomy'
p3213
sI3216
S'friends'
p3214
sI3217
S'tan'
p3215
sI3218
S'ghost'
p3216
sI3219
S'stirred'
p3217
sI3220
S'self-example'
p3218
sI3221
S'ranks'
p3219
sI3222
S"he's"
p3220
sI3223
S'love-kindling'
p3221
sI3224
S'jewel'
p3222
sI3225
S'pictured'
p3223
sI3226
S'pupil'
p3224
sI3227
S"sway'st"
p3225
sI3228
S'vassal'
p3226
sI3229
S'determination'
p3227
sI3230
S'accidents'
p3228
sI3231
S'gardens'
p3229
s.