(lp1
(lp2
I2516
aI2726
aI1677
aI486
aI664
aI1028
aa(lp3
I1159
aI1061
aI780
aI1436
aI1845
aI83
aI869
aa(lp4
I2791
aI2951
aI621
aI2954
aI2827
aI2308
aI1591
aI3058
aa(lp5
I2561
aI1663
aI2533
aI1845
aI2839
aI2561
aI943
aa(lp6
I2791
aI2129
aI892
aI1635
aI1119
aI3102
aI1241
aI1156
aa(lp7
I666
aI608
aI116
aI348
aI1549
aI2037
aI2830
aa(lp8
I969
aI1798
aI3034
aI1274
aI851
aI725
aa(lp9
I608
aI1999
aI608
aI692
aI1635
aI608
aI2141
aI1999
aI326
aI3146
aa(lp10
I2129
aI1159
aI2092
aI1067
aI621
aI121
aI2409
aI1295
aa(lp11
I1178
aI937
aI242
aI1635
aI621
aI1155
aI2276
aa(lp12
I2321
aI1119
aI3102
aI3133
aI1235
aI608
aI270
aa(lp13
I1178
aI1663
aI368
aI985
aI2930
aI576
aI1554
aa(lp14
I500
aI621
aI1458
aI1515
aI2172
aI2544
aI1232
aI2297
aa(lp15
I1635
aI3132
aI621
aI121
aI2155
aI2308
aI621
aI393
aI1178
aI228
aa(lp16
I1418
aI268
aI1224
aI2290
aI2392
aI608
aI1374
aa(lp17
I1178
aI870
aI1568
aI3116
aI576
aI608
aI780
aI3020
aa(lp18
I608
aI336
aI1226
aI1987
aI1023
aI1925
aI1501
aI1067
aa(lp19
I2953
aI2297
aI1798
aI2537
aI1397
aI1505
aI1661
aI27
aI1820
aa(lp20
I224
aI1417
aI514
aI1274
aI1610
aI608
aI188
aI725
aa(lp21
I1274
aI1610
aI621
aI1250
aI1505
aI608
aI595
aI296
aa(lp22
I1635
aI1189
aI2321
aI1119
aI3102
aI1568
aI2379
aI1156
aa(lp23
I1176
aI1569
aI2967
aI572
aI1178
aI796
aI2547
aa(lp24
I3080
aI536
aI1735
aI2547
aI2311
aI608
aI780
aI2514
aa(lp25
I578
aI2129
aI2811
aI183
aI2302
aI461
aI553
aI1505
aI362
aa(lp26
I2290
aI1686
aI157
aI3135
aI1178
aI586
aI157
aI675
aI2401
aa(lp27
I1162
aI2561
aI188
aI2308
aI45
aI1119
aa(lp28
I2544
aI1176
aI1635
aI2297
aI75
aI3136
aI1418
aI2129
aI2092
aI675
aa(lp29
I1178
aI2096
aI608
aI1794
aI138
aI1418
aI2129
aI1109
aI570
aI1038
aa(lp30
I2178
aI576
aI608
aI137
aI1178
aI127
aI621
aI786
aI2129
aI2050
aa(lp31
I1067
aI569
aI621
aI1591
aI1159
aI786
aI2827
aI742
aI317
aa(lp32
I13
aI2409
aI2319
aI578
aI1067
aI2129
aI1066
aI2923
aa(lp33
I2129
aI3018
aI2612
aI621
aI1458
aI130
aI2278
aI619
aa(lp34
I688
aI1274
aI569
aI2853
aI1023
aI461
aI13
aI2714
aI1694
aa(lp35
I701
aI621
aI1051
aI1505
aI608
aI1000
aa(lp36
I1515
aI2784
aI569
aI3134
aI1023
aI2043
aI2953
aI2297
aI621
aI2590
aa(lp37
I1505
aI2561
aI1724
aI1635
aI433
aI3084
aa(lp38
I2129
aI2092
aI608
aI342
aI137
aI1178
aI2853
aI576
aI228
aa(lp39
I1600
aI748
aI621
aI541
aI2903
aI1505
aI2690
aI1268
aa(lp40
I1023
aI2129
aI1822
aI2025
aI1505
aI1119
aI2404
aI394
aI2096
aa(lp41
I440
aI1505
aI2312
aI2544
aI608
aI106
aI1591
aa(lp42
I2791
aI578
aI2129
aI940
aI2299
aI1066
aI1635
aI2297
aa(lp43
I869
aI2373
aI1178
aI1119
aI1522
aI808
aI1549
aI228
aa(lp44
I1327
aI2707
aI2794
aI3018
aI2129
aI2233
aa(lp45
I2984
aI608
aI1999
aI608
aI780
aI2865
aa(lp46
I1886
aI603
aI1154
aI2017
aI2791
aI555
aI1481
aa(lp47
I1178
aI1417
aI2682
aI2853
aI3056
aI1635
aI1359
aI2098
aI284
aa(lp48
I224
aI2061
aI2064
aI2794
aI3018
aI2129
aI2587
aa(lp49
I621
aI577
aI2971
aI283
aI228
aI1635
aI936
aa(lp50
I1312
aI321
aI2794
aI3018
aI2129
aI2514
aa(lp51
I1023
aI2487
aI1798
aI1686
aI1505
aI1453
aI638
aI2273
aI1066
aI940
aa(lp52
I688
aI2411
aI1456
aI1549
aI608
aI1999
aI907
aa(lp53
I2129
aI1505
aI608
aI1999
aI608
aI2141
aI1999
aI3018
aI1025
aa(lp54
I224
aI3080
aI1418
aI490
aI1600
aI228
aI1635
aI2297
aI1559
aa(lp55
I1680
aI952
aI2992
aI2273
aI2129
aI871
aa(lp56
I608
aI2012
aI188
aI144
aI2297
aI1471
aI1549
aI228
aa(lp57
I2777
aI2211
aI2173
aI591
aI2548
aI1635
aI2297
aa(lp58
I1359
aI1701
aI1159
aI1549
aI2763
aI150
aI868
aI2863
aa(lp59
I621
aI541
aI1537
aI1274
aI35
aI1725
aI555
aI327
aa(lp60
I2953
aI2279
aI621
aI1851
aI1635
aI621
aI1645
aI1385
aa(lp61
I1178
aI1159
aI630
aI2777
aI596
aI555
aI793
aa(lp62
I688
aI2729
aI1591
aI835
aI1415
aI1501
aa(lp63
I1635
aI1639
aI990
aI1178
aI844
aI2078
aI1533
aa(lp64
I1194
aI1146
aI1549
aI2344
aI1178
aI595
aI97
aI1106
aI1559
aa(lp65
I188
aI186
aI1178
aI1423
aI35
aI1274
aa(lp66
I224
aI1176
aI1066
aI1438
aI980
aI624
aa(lp67
I1798
aI1020
aI2792
aI1829
aI576
aI1858
aI1505
aI137
aa(lp68
I780
aI2985
aI1549
aI188
aI1176
aI988
aa(lp69
I1069
aI570
aI1069
aI792
aI2326
aI1680
aI570
aI737
aa(lp70
I2791
aI1168
aI1388
aI385
aI233
aI1549
aI990
aI2549
aa(lp71
I129
aI2791
aI2721
aI1237
aI2721
aI95
aI1039
aI2173
aI2141
aa(lp72
I224
aI2480
aI1066
aI231
aI615
aI599
aI2807
aa(lp73
I576
aI228
aI608
aI1415
aI154
aI2129
aI2297
aI1388
aa(lp74
I586
aI2141
aI2278
aI1969
aI1250
aI2129
aI2278
aI1120
aa(lp75
I1549
aI780
aI1250
aI154
aI570
aI2297
aI3161
aa(lp76
I1159
aI2514
aI569
aI1066
aI1614
aI2352
aa(lp77
I2777
aI1550
aI1359
aI1159
aI1384
aI621
aI2630
aI2142
aa(lp78
I1813
aI688
aI608
aI1999
aI1635
aI1148
aI317
aI228
aa(lp79
I1515
aI1666
aI169
aI2400
aI2297
aI570
aI1666
aI688
aI235
aa(lp80
I1666
aI169
aI608
aI1999
aI1176
aI2400
aI1169
aI2129
aI2092
aa(lp81
I578
aI1666
aI1505
aI1119
aI1666
aI169
aI2762
aI228
aa(lp82
I224
aI1680
aI2692
aI2122
aI429
aI578
aI2129
aI2054
aI1717
aa(lp83
I2491
aI228
aI1088
aI576
aI3084
aa(lp84
I2297
aI1066
aI1844
aI688
aI2129
aI2092
aI536
aI326
aI461
aa(lp85
I1635
aI2297
aI3079
aI2320
aI1178
aI586
aI1617
aI1119
aI2533
aa(lp86
I2626
aI576
aI621
aI1888
aI1418
aI621
aI557
aI2594
aa(lp87
I2001
aI1278
aI2561
aI1519
aI740
aI245
aI22
aI1725
aa(lp88
I555
aI1631
aI1635
aI2561
aI2702
aI2283
aa(lp89
I1030
aI1549
aI2615
aI2561
aI1787
aI2138
aa(lp90
I1178
aI2411
aI98
aI621
aI779
aI273
aI1896
aa(lp91
I1205
aI1706
aI1975
aI576
aI2561
aI1376
aI2404
aa(lp92
I638
aI2698
aI2615
aI769
aI2561
aI188
aI1039
aa(lp93
I2685
aI1501
aI2561
aI106
aI381
aa(lp94
I2791
aI1418
aI2516
aI2415
aI1037
aI1549
aI2893
aI962
aa(lp95
I3045
aI862
aI2404
aI3134
aI2031
aI2516
aI621
aI2642
aa(lp96
I621
aI1156
aI747
aI2974
aI1067
aI3147
aI2098
aa(lp97
I2516
aI2561
aI2728
aI1222
aI1178
aI2178
aI317
aI735
aa(lp98
I1023
aI2129
aI608
aI1999
aI54
aI576
aI608
aI1480
aa(lp99
I2738
aI1501
aI496
aI2781
aI2129
aI1261
aI1798
aI723
aa(lp100
I123
aI1635
aI752
aI2794
aI2939
aI2129
aI123
aI2716
aa(lp101
I2635
aI1549
aI2635
aI738
aI1066
aI2888
aI2161
aI576
aI2888
aa(lp102
I2794
aI794
aI2129
aI1159
aI2777
aI2129
aI294
aI1066
aI2538
aa(lp103
I1515
aI2172
aI294
aI1549
aI1809
aI1119
aI2540
aa(lp104
I578
aI621
aI758
aI253
aI1505
aI1774
aI1139
aa(lp105
I2308
aI2107
aI2851
aI429
aI2789
aI1119
aI3131
aa(lp106
I233
aI429
aI2791
aI1683
aI2333
aI228
aI2784
aI844
aa(lp107
I576
aI609
aI621
aI2973
aI1159
aI2129
aI2054
aI2839
aa(lp108
I1342
aI3080
aI235
aI853
aI2141
aI1275
aI1635
aI317
aa(lp109
I1546
aI245
aI576
aI245
aI2308
aI3165
aI2717
aa(lp110
I1205
aI2501
aI1178
aI553
aI1178
aI739
aI619
aa(lp111
I2784
aI1610
aI576
aI235
aI235
aI2431
aI1202
aI429
aI2484
aa(lp112
I13
aI1857
aI1644
aI1417
aI1316
aI1926
aI235
aa(lp113
I2770
aI2544
aI1635
aI228
aI427
aI2373
aI2948
aI932
aI2541
aa(lp114
I569
aI570
aI688
aI885
aI1635
aI3027
aI1798
aI2802
aI1725
aa(lp115
I1159
aI2129
aI172
aI608
aI1999
aI576
aI2373
aI545
aa(lp116
I1564
aI578
aI2129
aI2461
aI394
aI651
aI1635
aI869
aa(lp117
I621
aI1458
aI2953
aI902
aI228
aI3045
aI1798
aI2396
aI1601
aa(lp118
I621
aI1458
aI2953
aI2297
aI608
aI1123
aI1178
aI1039
aI1403
aa(lp119
I1159
aI2129
aI792
aI742
aI1505
aI228
aI1704
aI624
aI1296
aa(lp120
I1418
aI35
aI2505
aI1123
aI2998
aI1007
aI2693
aa(lp121
I2308
aI2671
aI1156
aI2690
aI2795
aI2237
aI576
aI361
aa(lp122
I2178
aI1680
aI1569
aI1723
aI576
aI621
aI1458
aI555
aI2233
aa(lp123
I1387
aI2791
aI2561
aI1120
aI688
aI1039
aI621
aI1458
aI1301
aI570
aa(lp124
I2791
aI780
aI2930
aI4
aI576
aI621
aI1458
aI1569
aI1013
aa(lp125
I1178
aI607
aI2012
aI621
aI306
aI1023
aI1488
aI570
aa(lp126
I792
aI920
aI1980
aI2482
aI576
aI1159
aI1835
aI2964
aa(lp127
I1159
aI1501
aI2338
aI2710
aI3090
aI572
aI1904
aa(lp128
I688
aI572
aI2797
aI1159
aI2129
aI1514
aI920
aI1635
aI1196
aa(lp129
I2784
aI688
aI608
aI1999
aI2092
aI1023
aI457
aa(lp130
I2200
aI578
aI2129
aI2948
aI2129
aI2092
aI649
aI1505
aI1316
aa(lp131
I2791
aI1159
aI2129
aI1756
aI794
aI569
aI2013
aI2848
aa(lp132
I688
aI2129
aI2092
aI1023
aI611
aI1549
aI3090
aI11
aa(lp133
I1159
aI1621
aI608
aI1999
aI2129
aI1170
aI1066
aI1635
aI1770
aa(lp134
I1853
aI1159
aI2061
aI152
aI1635
aI305
aa(lp135
I2777
aI1635
aI2319
aI2827
aI2297
aI608
aI2597
aI664
aa(lp136
I708
aI909
aI608
aI2999
aI1159
aI2995
aI1007
aI909
aI157
aI361
aa(lp137
I2290
aI11
aI2297
aI2197
aI159
aI1169
aI2763
aI920
aa(lp138
I2297
aI2951
aI608
aI718
aI569
aI557
aI1178
aI1966
aa(lp139
I1515
aI1635
aI608
aI1999
aI2956
aI1947
aI2293
aI932
aa(lp140
I586
aI228
aI317
aI1999
aI688
aI920
aI1505
aI145
aa(lp141
I1159
aI188
aI1039
aI1007
aI940
aI576
aI1119
aI1515
aI228
aa(lp142
I2951
aI1531
aI2951
aI2129
aI394
aI163
aI1023
aI1531
aI2129
aI2556
aa(lp143
I576
aI235
aI1505
aI1119
aI2516
aI1159
aI2777
aI2129
aI1297
aa(lp144
I1178
aI1159
aI2409
aI1794
aI2777
aI1955
aI2129
aI216
aa(lp145
I2129
aI1129
aI736
aI1119
aI1418
aI2129
aI2516
aI1975
aI2033
aa(lp146
I135
aI2173
aI334
aI188
aI1178
aI1028
aa(lp147
I1411
aI2544
aI1174
aI2404
aI1178
aI1038
aI2625
aa(lp148
I578
aI1610
aI1176
aI1652
aI1023
aI621
aI169
aI2827
aI1424
aa(lp149
I1178
aI1842
aI1086
aI119
aI586
aI621
aI1458
aI472
aa(lp150
I2480
aI1359
aI2157
aI490
aI4
aI1066
aI3136
aI688
aI1953
aa(lp151
I1381
aI2330
aI1178
aI1791
aI2294
aI2681
aa(lp152
I2178
aI2157
aI2853
aI467
aI1373
aI2853
aI654
aI228
aI1735
aa(lp153
I2777
aI577
aI667
aI2129
aI2054
aI576
aI1150
aI712
aa(lp154
I2853
aI1573
aI228
aI688
aI2690
aI1283
aI1178
aI2834
aI1061
aa(lp155
I2129
aI2054
aI1897
aI1735
aI1066
aI2480
aI1159
aI417
aI869
aa(lp156
I1418
aI2995
aI429
aI3135
aI621
aI1684
aI1159
aI371
aI621
aI1591
aa(lp157
I1178
aI2096
aI621
aI876
aI2642
aI1620
aI576
aI1639
aI671
aa(lp158
I1418
aI2995
aI3176
aI621
aI2869
aI1668
aI1268
aa(lp159
I1178
aI1299
aI1049
aI1610
aI1659
aI2740
aI1549
aI1151
aa(lp160
I1418
aI2910
aI2070
aI2995
aI2096
aI2032
aI1505
aI97
aa(lp161
I2777
aI556
aI2516
aI751
aI868
aI2909
aI621
aI85
aa(lp162
I1178
aI1438
aI1206
aI1610
aI1166
aI1278
aI576
aI1365
aa(lp163
I261
aI1501
aI621
aI474
aI1549
aI1151
aI1178
aI2202
aI353
aa(lp164
I224
aI1505
aI608
aI188
aI429
aI2995
aI2332
aI586
aa(lp165
I1159
aI2129
aI1323
aI621
aI2020
aI1505
aI1591
aI144
aI2421
aa(lp166
I1892
aI2635
aI1178
aI2604
aI429
aI2522
aI1304
aa(lp167
I1178
aI869
aI2951
aI1531
aI2951
aI233
aI2096
aI2482
aI1016
aa(lp168
I1178
aI2017
aI1621
aI2787
aI2478
aI967
aI586
aI1681
aa(lp169
I653
aI1148
aI1635
aI876
aI2078
aI1418
aI3134
aI1726
aI228
aI2699
aa(lp170
I708
aI1159
aI1588
aI1176
aI1528
aI1999
aI2791
aI920
aI1588
aI2098
aa(lp171
I792
aI820
aI623
aI1169
aI1588
aI1528
aI1999
aI84
aI940
aa(lp172
I507
aI2544
aI1795
aI1013
aI1588
aI2827
aI1532
aa(lp173
I1178
aI1528
aI2141
aI3179
aI1635
aI2278
aI3026
aI936
aa(lp174
I1023
aI2827
aI1159
aI188
aI2777
aI1588
aI142
aI576
aI1954
aa(lp175
I2049
aI792
aI3201
aI224
aI1588
aI1176
aa(lp176
I1528
aI1999
aI1578
aI189
aI1528
aI1345
aI3058
aa(lp177
I1418
aI1528
aI2141
aI1899
aI1528
aI2141
aI742
aI2827
aI2839
aa(lp178
I2784
aI2940
aI1023
aI461
aI1798
aI1882
aI1653
aI1635
aI2625
aa(lp179
I2777
aI1000
aI576
aI903
aI1845
aI2426
aa(lp180
I507
aI621
aI1248
aI173
aI1505
aI231
aI2642
aa(lp181
I1178
aI2032
aI1553
aI1505
aI3079
aI282
aI1038
aa(lp182
I708
aI1756
aI2791
aI1324
aI682
aI157
aI920
aI1588
aI3039
aa(lp183
I1588
aI644
aI1798
aI843
aI2480
aI1528
aI723
aI1189
aI1023
aa(lp184
I1066
aI2516
aI621
aI1539
aI429
aI2995
aI157
aI2256
aI1307
aa(lp185
I1178
aI638
aI3184
aI2995
aI2766
aI3187
aa(lp186
I2791
aI1066
aI1635
aI127
aI1505
aI1850
aI1515
aI289
aI250
aa(lp187
I1505
aI2234
aI1505
aI1710
aI1515
aI1538
aI2712
aa(lp188
I1069
aI967
aI2995
aI1462
aI1635
aI1687
aI3150
aI127
aa(lp189
I1612
aI1635
aI245
aI2561
aI66
aI598
aI1178
aI204
aa(lp190
I1515
aI1189
aI1549
aI3138
aI578
aI570
aI2290
aI2421
aI2998
aa(lp191
I2308
aI3001
aI978
aI1159
aI2995
aI576
aI1657
aI2049
aa(lp192
I2791
aI2516
aI1119
aI1156
aI157
aI2821
aI2995
aI1043
aa(lp193
I1178
aI2367
aI1539
aI576
aI225
aI2995
aI1451
aI2710
aI2092
aa(lp194
I2951
aI2651
aI1178
aI188
aI2290
aI1945
aI2115
aa(lp195
I578
aI2516
aI608
aI1999
aI1635
aI1953
aI2129
aI203
aI2171
aa(lp196
I1515
aI2172
aI1505
aI228
aI2544
aI2995
aI636
aa(lp197
I608
aI1013
aI569
aI229
aI1178
aI780
aI1751
aI1178
aI1012
aa(lp198
I1418
aI2995
aI1611
aI35
aI1118
aI1159
aI593
aa(lp199
I2575
aI576
aI2840
aI2791
aI1798
aI1145
aI2214
aa(lp200
I1159
aI2544
aI1777
aI3088
aI2100
aI721
aI2791
aI1101
aa(lp201
I2623
aI621
aI1539
aI576
aI2158
aI2371
aI2914
aa(lp202
I1418
aI2995
aI434
aI1159
aI487
aI2951
aI2176
aI1028
aa(lp203
I2515
aI1178
aI1146
aI60
aI2308
aI621
aI1555
aI3022
aa(lp204
I2552
aI576
aI2721
aI2317
aI1194
aI2956
aI519
aI2509
aa(lp205
I1178
aI495
aI2721
aI876
aI2879
aI2668
aI1505
aI943
aa(lp206
I224
aI621
aI2489
aI1505
aI2544
aI3060
aI3183
aa(lp207
I3002
aI1588
aI2013
aI424
aI576
aI1975
aI218
aI157
aI2283
aa(lp208
I1274
aI627
aI1591
aI2323
aI1549
aI2625
aa(lp209
I1635
aI909
aI1528
aI2642
aI1505
aI1975
aI1635
aI2357
aI671
aa(lp210
I1178
aI1610
aI576
aI738
aI1549
aI1591
aI688
aI920
aI1505
aI1588
aa(lp211
I2951
aI3134
aI1726
aI2516
aI1588
aI2995
aI771
aI1588
aI75
aa(lp212
I2791
aI882
aI429
aI1066
aI1588
aI1798
aI2374
aI735
aa(lp213
I586
aI738
aI2984
aI2544
aI923
aI2616
aI1591
aa(lp214
I1178
aI213
aI1528
aI1999
aI576
aI1528
aI2625
aa(lp215
I1549
aI2837
aI1735
aI1523
aI1169
aI157
aI2032
aI2440
aa(lp216
I1067
aI1511
aI1588
aI1501
aI621
aI322
aI1505
aI739
aI1701
aa(lp217
I1178
aI1316
aI384
aI3203
aI638
aI1609
aa(lp218
I1549
aI2432
aI3141
aI119
aI2839
aI1588
aI1088
aI1168
aa(lp219
I536
aI2145
aI1169
aI1528
aI2937
aI2567
aa(lp220
I1023
aI2827
aI621
aI2596
aI1505
aI545
aI1159
aI545
aI2319
aa(lp221
I2777
aI2544
aI2787
aI2528
aI1515
aI157
aI3198
aI1574
aa(lp222
I2882
aI576
aI1833
aI27
aI1069
aI2102
aI461
aa(lp223
I967
aI586
aI1588
aI940
aI1528
aI1999
aI576
aI1156
aI1505
aI487
aa(lp224
I1635
aI936
aI472
aI1528
aI1999
aI201
aI1528
aI1999
aI1039
aa(lp225
I1178
aI1588
aI144
aI940
aI482
aI2308
aI1528
aI3102
aI2141
aI3016
aa(lp226
I2784
aI2953
aI1963
aI157
aI1440
aI576
aI1591
aI1635
aI1313
aa(lp227
I578
aI570
aI1176
aI899
aI1549
aI1528
aI2013
aI2559
aI2055
aa(lp228
I385
aI638
aI1657
aI1739
aI570
aI569
aI2791
aI2951
aI1798
aI2590
aa(lp229
I2777
aI984
aI1528
aI545
aI1178
aI1101
aI1066
aI1065
aI1528
aI2973
aa(lp230
I578
aI2995
aI2692
aI997
aI621
aI188
aI1505
aI1528
aI1156
aa(lp231
I1178
aI576
aI2409
aI1773
aI1930
aI1610
aI1528
aI46
aa(lp232
I621
aI2404
aI1635
aI1313
aI119
aI1189
aI2544
aI2929
aI725
aa(lp233
I2710
aI273
aI416
aI64
aI423
aI3186
aI510
aa(lp234
I1023
aI2827
aI157
aI799
aI527
aI1549
aI2721
aI2404
aa(lp235
I2297
aI1399
aI3045
aI675
aI487
aI1505
aI2057
aI2651
aI1169
aI3099
aa(lp236
I1178
aI1528
aI758
aI149
aI2297
aI1831
aI1798
aI629
aI1553
aa(lp237
I1178
aI1332
aI2490
aI1505
aI1569
aI673
aI1644
aa(lp238
I2791
aI1176
aI2278
aI553
aI1505
aI623
aI3063
aI1159
aI1591
aa(lp239
I1588
aI2827
aI940
aI451
aI576
aI570
aI1178
aI576
aI157
aI2440
aa(lp240
I2290
aI2995
aI1765
aI228
aI1635
aI1798
aI1438
aI2642
aa(lp241
I2129
aI2092
aI1735
aI541
aI1178
aI1735
aI1018
aa(lp242
I2816
aI1669
aI429
aI2864
aI621
aI1898
aI1529
aI1505
aI1007
aa(lp243
I1178
aI1438
aI1954
aI4
aI1610
aI326
aI1800
aI1798
aI1012
aa(lp244
I783
aI326
aI181
aI621
aI1725
aI1505
aI1657
aI785
aa(lp245
I1178
aI2274
aI569
aI2561
aI2039
aI1298
aI2383
aa(lp246
I1178
aI35
aI461
aI2516
aI461
aI783
aI2093
aa(lp247
I2308
aI3185
aI1515
aI1886
aI1402
aI1036
aI2593
aa(lp248
I2791
aI608
aI282
aI1415
aI2290
aI1066
aI220
aa(lp249
I1069
aI3052
aI2527
aI1505
aI1159
aI461
aI2129
aI1741
aa(lp250
I1069
aI2290
aI2122
aI508
aI2129
aI1115
aI576
aI2561
aI1806
aa(lp251
I1418
aI576
aI282
aI2596
aI1635
aI1591
aI2129
aI2556
aa(lp252
I1023
aI1134
aI2951
aI487
aI967
aI128
aI1515
aI1156
aI967
aI2096
aa(lp253
I1023
aI1134
aI2173
aI2544
aI1178
aI2544
aI1154
aI545
aI1635
aI228
aa(lp254
I2152
aI1591
aI1207
aI2129
aI621
aI1721
aI2565
aa(lp255
I1178
aI586
aI621
aI412
aI2905
aI2690
aI3102
aI2141
aI2622
aa(lp256
I1307
aI621
aI2695
aI824
aI2516
aI621
aI947
aI1152
aI1540
aa(lp257
I1178
aI695
aI621
aI1518
aI806
aI576
aI2690
aI1794
aa(lp258
I586
aI1752
aI1178
aI24
aI2018
aI2951
aI2129
aI888
aa(lp259
I1178
aI429
aI2927
aI2129
aI2948
aI355
aI1591
aa(lp260
I1635
aI621
aI1171
aI1458
aI1178
aI1610
aI2690
aI1992
aI2635
aa(lp261
I2791
aI2995
aI2502
aI228
aI235
aI2013
aI749
aI1253
aa(lp262
I708
aI221
aI1066
aI1549
aI608
aI1701
aI157
aI946
aI461
aI1374
aa(lp263
I1069
aI2389
aI792
aI2596
aI1533
aI1549
aI1119
aI673
aI1574
aa(lp264
I2078
aI576
aI608
aI1036
aI1303
aI429
aI2599
aa(lp265
I688
aI780
aI2875
aI1635
aI639
aI487
aa(lp266
I638
aI429
aI608
aI1651
aI675
aI1591
aI440
aI608
aI190
aa(lp267
I157
aI920
aI2290
aI576
aI157
aI1440
aI77
aI940
aI2428
aa(lp268
I1798
aI1918
aI786
aI1549
aI1886
aI3102
aI599
aI2937
aa(lp269
I1704
aI2129
aI621
aI325
aI291
aI1505
aI157
aI3074
aa(lp270
I1798
aI1918
aI2763
aI973
aI2791
aI1066
aI1461
aa(lp271
I1549
aI697
aI909
aI2951
aI569
aI2757
aI33
aI356
aa(lp272
I1569
aI1725
aI1735
aI1241
aI1169
aI704
aI2057
aI2757
aI576
aI814
aa(lp273
I126
aI621
aI386
aI288
aI570
aI3112
aa(lp274
I1798
aI1017
aI576
aI358
aI1610
aI2247
aI576
aI2561
aI1747
aa(lp275
I2777
aI2991
aI1161
aI1156
aI1178
aI33
aI832
aI2016
aa(lp276
I1178
aI688
aI1798
aI1642
aI1172
aI2129
aI1127
aI295
aa(lp277
I998
aI490
aI2951
aI2853
aI217
aI228
aI1509
aI91
aa(lp278
I1178
aI2308
aI2925
aI145
aI1505
aI228
aI571
aa(lp279
I2308
aI641
aI235
aI1118
aI1635
aI157
aI2217
aI2017
aa(lp280
I2791
aI1892
aI2853
aI750
aI228
aI2668
aI688
aI33
aI1809
aa(lp281
I362
aI2297
aI608
aI920
aI1178
aI608
aI946
aI2514
aI2721
aI1250
aa(lp282
I1023
aI569
aI570
aI1066
aI1549
aI145
aI2951
aI1549
aI1159
aI134
aa(lp283
I3191
aI2308
aI1798
aI2937
aI188
aI1635
aI2561
aI1440
aa(lp284
I2784
aI1657
aI570
aI1999
aI688
aI1295
aI555
aI2514
aa(lp285
I1178
aI35
aI461
aI1549
aI2561
aI461
aI555
aI690
aa(lp286
I969
aI1798
aI207
aI1505
aI1226
aI1765
aa(lp287
I1549
aI1685
aI1178
aI1483
aI1549
aI412
aI1178
aI1321
aI424
aI2241
aa(lp288
I1549
aI900
aI810
aI1168
aI1178
aI1610
aI585
aI3091
aa(lp289
I1159
aI3069
aI560
aI576
aI2544
aI1777
aI1944
aI1654
aa(lp290
I708
aI2480
aI145
aI758
aI576
aI920
aI2791
aI1264
aI997
aa(lp291
I1178
aI224
aI1963
aI145
aI157
aI920
aI569
aI2951
aI461
aa(lp292
I2951
aI1196
aI342
aI553
aI385
aI1066
aI1023
aI1241
aa(lp293
I2951
aI1359
aI2039
aI1021
aI2855
aI576
aI3069
aI560
aa(lp294
I2480
aI225
aI1189
aI1735
aI1159
aI3045
aI1505
aI311
aI2998
aa(lp295
I2995
aI2953
aI1066
aI2547
aI1159
aI2217
aI1066
aI1635
aI1994
aa(lp296
I157
aI137
aI2290
aI1066
aI58
aI145
aI2995
aI1567
aI675
aa(lp297
I1023
aI1134
aI2951
aI1975
aI1178
aI2129
aI2098
aI1505
aI235
aI1012
aa(lp298
I2791
aI1418
aI576
aI228
aI2787
aI850
aI2995
aI3176
aa(lp299
I224
aI2178
aI2995
aI2122
aI157
aI296
aI2827
aI1281
aa(lp300
I688
aI1610
aI1159
aI188
aI1159
aI555
aI2029
aI228
aa(lp301
I569
aI2791
aI621
aI443
aI436
aI1505
aI157
aI973
aa(lp302
I2777
aI576
aI608
aI2073
aI555
aI940
aI2951
aI1119
aI576
aI145
aa(lp303
I3080
aI967
aI2995
aI224
aI2297
aI1932
aI1169
aI2129
aI2092
aa(lp304
I708
aI124
aI920
aI2297
aI1505
aI2617
aI1023
aI132
aa(lp305
I2951
aI2995
aI1066
aI688
aI157
aI1999
aI2791
aI688
aI228
aI2953
aa(lp306
I3151
aI608
aI973
aI2777
aI2995
aI2953
aI2693
aI1023
aI2005
aa(lp307
I2951
aI1663
aI1691
aI2690
aI2529
aI2516
aI741
aI506
aa(lp308
I2235
aI1066
aI1501
aI608
aI973
aI1418
aI362
aI569
aI1331
aa(lp309
I2129
aI1810
aI145
aI1119
aI1066
aI1635
aI936
aI748
aI1578
aa(lp310
I2951
aI1569
aI2192
aI795
aI1501
aI621
aI3088
aa(lp311
I2784
aI1549
aI2561
aI885
aI569
aI1911
aI589
aI2561
aI1961
aa(lp312
I1515
aI2278
aI947
aI1118
aI1797
aI1549
aI326
aI536
aI1553
aa(lp313
I13
aI953
aI851
aI567
aI2561
aI3102
aI973
aa(lp314
I1023
aI2995
aI688
aI885
aI1505
aI524
aI12
aI1635
aI1189
aa(lp315
I621
aI2619
aI171
aI1505
aI946
aI2113
aa(lp316
I1178
aI576
aI362
aI3102
aI946
aI374
aI369
aI1635
aI2625
aa(lp317
I2019
aI1549
aI518
aI1505
aI362
aI3102
aI946
aI1845
aa(lp318
I708
aI2480
aI157
aI2615
aI2297
aI224
aI621
aI1872
aa(lp319
I1178
aI2749
aI646
aI1505
aI157
aI1153
aI2073
aa(lp320
I2784
aI2462
aI688
aI920
aI1178
aI2178
aI688
aI1121
aa(lp321
I1735
aI1169
aI1159
aI3099
aI1159
aI1735
aI4
aI1735
aI2468
aa(lp322
I708
aI1761
aI1635
aI1451
aI1680
aI1147
aI920
aI4
aI2598
aa(lp323
I1635
aI752
aI1549
aI1156
aI648
aI1635
aI946
aI2048
aI2508
aa(lp324
I362
aI1725
aI4
aI568
aI621
aI2943
aI1178
aI4
aI2232
aa(lp325
I608
aI780
aI742
aI576
aI2922
aI1505
aI157
aI973
aa(lp326
I157
aI2472
aI569
aI621
aI2863
aI2205
aI1262
aI1820
aa(lp327
I1178
aI1671
aI570
aI569
aI467
aI2063
aI2092
aa(lp328
I688
aI1822
aI621
aI2943
aI144
aI1588
aI2096
aI2561
aI3016
aa(lp329
I1635
aI2049
aI1274
aI1528
aI758
aI1522
aI3197
aI725
aa(lp330
I2777
aI576
aI157
aI689
aI1236
aI569
aI7
aI1039
aa(lp331
I1159
aI4
aI2561
aI2025
aI234
aI1549
aI1119
aI1156
aa(lp332
I1067
aI2096
aI1680
aI1850
aI1875
aI1156
aI688
aI1156
aI2766
aI1935
aa(lp333
I362
aI1156
aI2766
aI482
aI608
aI2237
aI1178
aI1119
aI688
aI145
aa(lp334
I2098
aI2025
aI1635
aI157
aI2073
aI1005
aI621
aI1685
aa(lp335
I2161
aI1635
aI700
aI1635
aI1537
aI3057
aI1501
aI228
aa(lp336
I638
aI1156
aI2544
aI1753
aI976
aI1635
aI1964
aI2721
aI2092
aa(lp337
I233
aI2389
aI2791
aI1680
aI233
aI2096
aI3039
aI1066
aI621
aI973
aa(lp338
I2480
aI1359
aI2784
aI2098
aI576
aI893
aI1549
aI2721
aI1539
aa(lp339
I1505
aI1693
aI903
aI1178
aI1226
aI347
aI912
aa(lp340
I2611
aI2995
aI2157
aI1462
aI1505
aI2710
aI47
aI2090
aa(lp341
I2738
aI688
aI2888
aI576
aI1159
aI2995
aI903
aI2013
aa(lp342
I2487
aI2658
aI2601
aI2721
aI461
aI97
aI3118
aa(lp343
I2791
aI2951
aI621
aI275
aI2956
aI621
aI2524
aI1725
aa(lp344
I1178
aI576
aI2522
aI2721
aI25
aI725
aI1191
aa(lp345
I688
aI2956
aI1798
aI1449
aI233
aI576
aI2721
aI3139
aI869
aa(lp346
I621
aI2727
aI485
aI2532
aI688
aI733
aa(lp347
I189
aI1798
aI1350
aI243
aI2412
aI1192
aa(lp348
I569
aI2516
aI621
aI3172
aI1505
aI903
aI53
aI1106
aa(lp349
I1178
aI1610
aI621
aI1421
aI256
aI688
aI2777
aI3134
aI1570
aa(lp350
I224
aI739
aI2995
aI1159
aI920
aI1178
aI1567
aI649
aa(lp351
I1274
aI2995
aI1007
aI1066
aI2084
aI1069
aI2297
aI757
aa(lp352
I23
aI1505
aI157
aI920
aI1635
aI2157
aI576
aI2364
aa(lp353
I608
aI1239
aI4
aI157
aI1322
aI1558
aI292
aa(lp354
I1635
aI228
aI2995
aI2429
aI2544
aI1252
aI1113
aa(lp355
I1635
aI3173
aI1322
aI1066
aI1635
aI1237
aI157
aI2508
aa(lp356
I1322
aI1023
aI2487
aI2777
aI2508
aI1023
aI1590
aI2951
aI362
aa(lp357
I1007
aI586
aI369
aI2097
aI576
aI660
aI2841
aI1635
aI1237
aI570
aa(lp358
I2791
aI1159
aI2995
aI2833
aI2278
aI1850
aI2489
aI1505
aI1119
aa(lp359
I576
aI608
aI864
aI2999
aI1610
aI1272
aI2953
aI287
aI570
aa(lp360
I998
aI21
aI3180
aI1159
aI1429
aI157
aI2216
aa(lp361
I400
aI1501
aI145
aI2342
aI1549
aI461
aI1426
aa(lp362
I1178
aI529
aI1607
aI1501
aI157
aI2537
aI945
aa(lp363
I1635
aI1237
aI145
aI3083
aI1505
aI608
aI2141
aI1707
aa(lp364
I224
aI1007
aI2995
aI1460
aI1635
aI912
aI3080
aI2995
aI429
aI920
aI228
aa(lp365
I998
aI224
aI1066
aI1237
aI157
aI740
aI1274
aI2129
aI1129
aI932
aI145
aa(lp366
I2893
aI1549
aI2231
aI2995
aI200
aI145
aI1635
aI157
aI2743
aa(lp367
I621
aI682
aI168
aI688
aI1042
aI1549
aI176
aI51
aa(lp368
I2791
aI224
aI338
aI1798
aI812
aI576
aI157
aI740
aa(lp369
I1635
aI150
aI157
aI361
aI1418
aI2746
aI2457
aI2793
aa(lp370
I688
aI224
aI157
aI605
aI2516
aI180
aI1274
aI2995
aI1095
aa(lp371
I805
aI1798
aI1504
aI381
aI1635
aI228
aa(lp372
I1178
aI2693
aI157
aI2106
aI452
aI1141
aI1171
aa(lp373
I1096
aI1501
aI1682
aI2777
aI621
aI1128
aI429
aI2096
aa(lp374
I653
aI1159
aI157
aI864
aI3085
aI2283
aa(lp375
I18
aI608
aI661
aI1635
aI157
aI2608
aI2856
aa(lp376
I2777
aI3045
aI1798
aI3196
aI672
aI576
aI214
aI671
aa(lp377
I2495
aI1256
aI671
aI2061
aI1178
aI2690
aI675
aI786
aI75
aa(lp378
I2626
aI2961
aI2308
aI2642
aI157
aI1042
aI2308
aI671
aI157
aI361
aa(lp379
I688
aI228
aI1178
aI688
aI157
aI1999
aI792
aI1318
aI2049
aa(lp380
I3080
aI967
aI2995
aI224
aI1378
aI576
aI739
aI637
aa(lp381
I1159
aI1567
aI2430
aI621
aI1465
aI1505
aI1421
aa(lp382
I1418
aI1716
aI3181
aI569
aI1066
aI2646
aI2308
aI671
aa(lp383
I2791
aI2642
aI2308
aI671
aI1178
aI671
aI2308
aI2642
aI1884
aa(lp384
I1178
aI245
aI385
aI687
aI1635
aI2249
aI813
aa(lp385
I429
aI576
aI210
aI2864
aI2637
aI1635
aI2436
aI145
aa(lp386
I621
aI235
aI2308
aI2231
aI621
aI3026
aI1635
aI1866
aa(lp387
I3080
aI180
aI2995
aI2231
aI1039
aI456
aI2994
aI2516
aI228
aa(lp388
I2995
aI127
aI621
aI2642
aI1635
aI2105
aI2078
aI2129
aI2092
aI1241
aa(lp389
I1178
aI3018
aI2078
aI1964
aI1418
aI866
aI429
aI1432
aI621
aI1657
aa(lp390
I1023
aI676
aI2995
aI621
aI2075
aI671
aa(lp391
I1418
aI1632
aI1539
aI3004
aI1066
aI2129
aI1628
aI621
aI60
aa(lp392
I2791
aI2642
aI555
aI822
aI2389
aI157
aI111
aI820
aa(lp393
I1178
aI671
aI555
aI2987
aI586
aI3119
aI2696
aI369
aI2800
aa(lp394
I1418
aI576
aI775
aI1549
aI1462
aI1178
aI1161
aI1156
aa(lp395
I2995
aI1610
aI907
aI2667
aI157
aI2986
aI2879
aa(lp396
I1178
aI861
aI678
aI1657
aI1549
aI157
aI438
aI3014
aa(lp397
I1178
aI2178
aI2984
aI157
aI1999
aI1178
aI889
aI157
aI3031
aa(lp398
I1034
aI145
aI3045
aI1635
aI235
aI1735
aI424
aI576
aI2833
aa(lp399
I316
aI3045
aI2078
aI3045
aI2078
aI1549
aI3188
aI611
aa(lp400
I2512
aI2544
aI2469
aI2092
aI1178
aI1159
aI2469
aI944
aa(lp401
I1549
aI1680
aI2995
aI2013
aI48
aI1114
aI1947
aa(lp402
I638
aI576
aI1364
aI605
aI157
aI1999
aI2959
aI797
aa(lp403
I706
aI2995
aI1125
aI1501
aI228
aI1178
aI224
aI157
aI2879
aa(lp404
I3045
aI1635
aI621
aI2295
aI2956
aI230
aI1505
aI2642
aI3003
aa(lp405
I2516
aI2378
aI412
aI2770
aI1087
aI2956
aI3069
aI184
aa(lp406
I688
aI608
aI2141
aI920
aI2299
aI2710
aI931
aI133
aa(lp407
I1159
aI224
aI2995
aI481
aI1635
aI909
aI157
aI2879
aI1549
aI1474
aa(lp408
I1418
aI1635
aI621
aI949
aI1505
aI2141
aI1147
aI2999
aa(lp409
I2995
aI2852
aI1278
aI2326
aI1505
aI585
aI1668
aa(lp410
I2995
aI881
aI621
aI1615
aI1505
aI1316
aI1798
aI1118
aI2995
aI2560
aa(lp411
I1178
aI1549
aI675
aI252
aI75
aI902
aI157
aI682
aI2787
aI2930
aa(lp412
I224
aI967
aI2995
aI954
aI1569
aI1725
aI2012
aI1635
aI397
aa(lp413
I688
aI2892
aI3188
aI2072
aI576
aI3079
aI2886
aI671
aa(lp414
I1178
aI1403
aI2796
aI946
aI1134
aI1892
aI1369
aI2111
aa(lp415
I1178
aI1940
aI591
aI512
aI1505
aI1316
aI1798
aI801
aI2283
aa(lp416
I224
aI967
aI2995
aI3142
aI2956
aI2080
aI1742
aa(lp417
I1178
aI3010
aI2516
aI2111
aI1635
aI2111
aI127
aI2740
aa(lp418
I621
aI1187
aI2542
aI1505
aI1905
aI1940
aa(lp419
I2777
aI2995
aI75
aI1384
aI2951
aI578
aI1066
aI1217
aI218
aa(lp420
I2791
aI578
aI621
aI2182
aI2995
aI1125
aI1501
aI228
aI682
aI349
aa(lp421
I1610
aI1709
aI2098
aI827
aI1178
aI111
aI1013
aa(lp422
I608
aI1835
aI569
aI3163
aI1549
aI1610
aI620
aa(lp423
I2777
aI2995
aI2308
aI2252
aI2766
aI1979
aI680
aa(lp424
I1178
aI1533
aI1311
aI920
aI1178
aI1610
aI946
aI945
aI2973
aa(lp425
I1178
aI1610
aI1359
aI3188
aI2777
aI2995
aI2999
aI1191
aa(lp426
I3080
aI1316
aI1798
aI131
aI1178
aI2817
aI1873
aa(lp427
I4
aI682
aI1627
aI920
aI1054
aI2516
aI362
aI1725
aa(lp428
I2951
aI537
aI1505
aI621
aI680
aI2777
aI1067
aI890
aa(lp429
I2791
aI585
aI757
aI1159
aI222
aI576
aI228
aI2212
aa(lp430
I2129
aI2092
aI621
aI393
aI1274
aI1191
aI920
aI555
aI940
aa(lp431
I672
aI1549
aI621
aI995
aI1505
aI157
aI1890
aI1559
aa(lp432
I2784
aI1610
aI2721
aI2973
aI1505
aI145
aI1635
aI228
aI868
aI936
aa(lp433
I1159
aI2155
aI1505
aI1316
aI1067
aI569
aI1119
aI907
aa(lp434
I2721
aI1475
aI2995
aI2737
aI2995
aI2856
aI576
aI228
aa(lp435
I1178
aI2129
aI1610
aI233
aI1704
aI1610
aI621
aI1610
aI1505
aI145
aa(lp436
I578
aI2129
aI125
aI157
aI2977
aI2642
aa(lp437
I1418
aI1159
aI368
aI2122
aI157
aI2563
aI1549
aI2989
aI2290
aI2029
aa(lp438
I1178
aI394
aI2308
aI1462
aI2412
aI1735
aI2767
aa(lp439
I1364
aI1590
aI1791
aI2596
aI1505
aI608
aI971
aI2748
aa(lp440
I1765
aI225
aI1549
aI621
aI471
aI1505
aI621
aI1591
aa(lp441
I1178
aI385
aI233
aI2297
aI3101
aI2308
aI35
aI1574
aa(lp442
I404
aI225
aI688
aI157
aI920
aI1066
aI688
aI2721
aI2440
aa(lp443
I2663
aI2308
aI621
aI519
aI1505
aI2400
aI487
aa(lp444
I708
aI224
aI1656
aI145
aI2791
aI2544
aI945
aI2999
aa(lp445
I2007
aI157
aI6
aI134
aI579
aI1549
aI2544
aI968
aI2404
aa(lp446
I1798
aI642
aI659
aI1169
aI2544
aI2561
aI920
aI644
aI665
aa(lp447
I1635
aI2251
aI576
aI3193
aI1505
aI219
aI1060
aa(lp448
I2791
aI1892
aI3134
aI817
aI1178
aI3077
aI219
aI932
aa(lp449
I704
aI688
aI2721
aI1828
aI1664
aI1451
aI2561
aI688
aI2561
aI2715
aa(lp450
I1696
aI1316
aI1798
aI2912
aI1271
aI2766
aI2995
aI2194
aa(lp451
I676
aI621
aI1995
aI597
aI1549
aI732
aI1725
aa(lp452
I2185
aI1549
aI106
aI786
aI621
aI153
aI1206
aa(lp453
I126
aI2285
aI2906
aI1549
aI273
aI647
aa(lp454
I2130
aI101
aI621
aI1455
aI866
aI1635
aI2545
aa(lp455
I1549
aI562
aI2454
aI1501
aI2561
aI1561
aI786
aa(lp456
I1178
aI2516
aI621
aI2104
aI1458
aI2561
aI1767
aI63
aa(lp457
I1566
aI3040
aI1635
aI1340
aI1549
aI2544
aI775
aa(lp458
I60
aI1023
aI157
aI1685
aI235
aI2219
aI1731
aI868
aI2309
aa(lp459
I1549
aI1610
aI3143
aI574
aI1501
aI157
aI1374
aa(lp460
I2791
aI2668
aI202
aI3134
aI737
aI2791
aI235
aI1757
aI362
aa(lp461
I621
aI1317
aI2511
aI4
aI3075
aI2078
aI2516
aI145
aI1067
aa(lp462
I638
aI2078
aI688
aI2544
aI157
aI920
aI792
aI258
aI494
aa(lp463
I1613
aI1505
aI621
aI1458
aI1007
aI1258
aI1418
aI3069
aI1685
aI1220
aa(lp464
I2794
aI3167
aI2129
aI3107
aI2710
aI1798
aI2061
aI2642
aa(lp465
I1178
aI586
aI145
aI176
aI276
aI1411
aI157
aI994
aa(lp466
I1635
aI2480
aI1909
aI866
aI3076
aI145
aI576
aI157
aI735
aa(lp467
I2523
aI608
aI546
aI576
aI2721
aI2470
aI100
aa(lp468
I1262
aI1066
aI1542
aI1159
aI1822
aI621
aI2511
aI2129
aI230
aa(lp469
I1635
aI93
aI621
aI598
aI1501
aI157
aI1856
aI786
aa(lp470
I688
aI792
aI1017
aI2998
aI1505
aI2710
aI1798
aI2236
aI967
aI526
aa(lp471
I1159
aI525
aI621
aI587
aI1178
aI2697
aI1066
aI621
aI775
aa(lp472
I1069
aI967
aI608
aI572
aI936
aI2591
aI1635
aI157
aI136
aa(lp473
I385
aI2129
aI1584
aI638
aI2995
aI2766
aI1039
aI621
aI3043
aa(lp474
I591
aI879
aI2889
aI3056
aI2791
aI491
aI1412
aa(lp475
I1635
aI2078
aI1159
aI298
aI621
aI1706
aI2845
aI2969
aa(lp476
I1564
aI2791
aI1359
aI1254
aI2098
aI1730
aI2777
aI608
aI920
aI961
aa(lp477
I1178
aI233
aI2098
aI424
aI1178
aI2966
aI1610
aI506
aI1834
aa(lp478
I792
aI1735
aI2297
aI1314
aI2956
aI1159
aI2777
aI2129
aI1704
aI1935
aa(lp479
I1586
aI2766
aI1026
aI1178
aI236
aI3125
aI477
aa(lp480
I866
aI1178
aI2186
aI1258
aI2124
aI1483
aI1178
aI1685
aa(lp481
I1178
aI2224
aI2586
aI2173
aI576
aI17
aI3133
aa(lp482
I1610
aI487
aI586
aI1309
aI1178
aI60
aI2995
aI576
aI2544
aa(lp483
I493
aI608
aI1240
aI1549
aI1765
aa(lp484
I157
aI1999
aI1923
aI2543
aI608
aI365
aa(lp485
I1571
aI608
aI2476
aI1735
aI1169
aI608
aI2476
aI2098
aa(lp486
I688
aI1635
aI608
aI1993
aI505
aI2995
aI2814
aI576
aI979
aa(lp487
I608
aI2972
aI2976
aI569
aI608
aI2255
aa(lp488
I1178
aI1621
aI157
aI1999
aI1798
aI3110
aI1108
aI2734
aa(lp489
I2710
aI719
aI738
aI569
aI576
aI157
aI920
aI1178
aI11
aa(lp490
I1159
aI2995
aI1569
aI2835
aI1778
aI144
aI2297
aa(lp491
I1635
aI1159
aI2141
aI3062
aI2777
aI2946
aI1251
aI2516
aI145
aa(lp492
I2480
aI145
aI2673
aI1159
aI486
aI1729
aI144
aI2297
aI535
aa(lp493
I3082
aI2664
aI993
aI2747
aI2098
aI235
aa(lp494
I1023
aI2290
aI1359
aI226
aI1159
aI429
aI1549
aI145
aI1759
aa(lp495
I1411
aI608
aI1815
aI2308
aI145
aI2297
aI261
aI907
aa(lp496
I576
aI2664
aI1729
aI2747
aI1533
aI569
aI2791
aI235
aI1707
aa(lp497
I385
aI576
aI2664
aI2173
aI1798
aI307
aI419
aa(lp498
I2777
aI385
aI570
aI1846
aI1066
aI946
aI2120
aI2985
aa(lp499
I638
aI555
aI570
aI455
aI2141
aI1701
aI2516
aI946
aI600
aa(lp500
I2995
aI1007
aI1066
aI10
aI1045
aI228
aa(lp501
I3005
aI157
aI366
aI2112
aI2827
aI429
aI228
aI572
aa(lp502
I1069
aI2129
aI1549
aI1693
aI2640
aI903
aI145
aa(lp503
I2781
aI2129
aI1204
aI1159
aI903
aI2516
aI608
aI1072
aa(lp504
I2791
aI429
aI1066
aI1023
aI2995
aI920
aI228
aI576
aI2710
aI2366
aa(lp505
I2951
aI2129
aI1417
aI362
aI362
aI569
aI608
aI1850
aI441
aa(lp506
I2951
aI1798
aI551
aI843
aI1726
aI600
aa(lp507
I1635
aI2096
aI2561
aI89
aI553
aI429
aI1834
aI1505
aI1975
aa(lp508
I1023
aI2995
aI3136
aI2595
aI2308
aI1279
aI2613
aI419
aa(lp509
I1204
aI1610
aI157
aI1782
aI1505
aI608
aI27
aI1178
aI2651
aa(lp510
I688
aI3140
aI188
aI659
aI1515
aI931
aI1515
aI2508
aa(lp511
I1515
aI1196
aI1505
aI1364
aI1610
aI1515
aI1610
aI1515
aI1735
aa(lp512
I594
aI576
aI608
aI2973
aI429
aI290
aI2573
aa(lp513
I2995
aI586
aI157
aI920
aI834
aI1635
aI2544
aI1953
aa(lp514
I1023
aI224
aI2995
aI1567
aI1066
aI2595
aI1590
aI1069
aI730
aa(lp515
I2611
aI1159
aI2544
aI661
aI555
aI2710
aI95
aI936
aa(lp516
I1159
aI2995
aI576
aI608
aI851
aI1567
aI2674
aa(lp517
I1178
aI2308
aI1798
aI1961
aI1505
aI1610
aI608
aI3139
aI940
aa(lp518
I2178
aI1680
aI569
aI467
aI1159
aI467
aI2995
aI3141
aI576
aI228
aa(lp519
I2544
aI3141
aI2995
aI2766
aI224
aI1666
aI169
aI739
aI145
aa(lp520
I3080
aI967
aI157
aI134
aI976
aI468
aI1635
aI833
aa(lp521
I2182
aI2129
aI3018
aI128
aI1159
aI727
aI1056
aI157
aI1440
aa(lp522
I1119
aI3102
aI2141
aI1185
aI326
aI139
aa(lp523
I688
aI35
aI2719
aI1821
aI1635
aI690
aa(lp524
I708
aI936
aI608
aI1999
aI621
aI634
aI578
aI2739
aI576
aI145
aa(lp525
I3083
aI2388
aI1511
aI507
aI608
aI2283
aa(lp526
I688
aI3035
aI1023
aI2749
aI1159
aI1265
aI997
aI1635
aI228
aa(lp527
I1418
aI2129
aI608
aI1999
aI3018
aI936
aI1670
aI2594
aa(lp528
I2297
aI2129
aI621
aI2666
aI134
aI1666
aI169
aI1735
aI576
aI27
aa(lp529
I1169
aI1359
aI675
aI1760
aI2777
aI2045
aI3124
aa(lp530
I1178
aI3134
aI1159
aI1600
aI1501
aI228
aI2480
aI2078
aI2814
aI276
aa(lp531
I282
aI1773
aI1635
aI2806
aI1134
aI1012
aa(lp532
I578
aI157
aI3078
aI134
aI429
aI2105
aI1364
aI2284
aI296
aa(lp533
I621
aI1212
aI2297
aI362
aI2791
aI1119
aI2290
aI2297
aI621
aI2547
aa(lp534
I708
aI3080
aI608
aI27
aI1549
aI2143
aI1007
aI2995
aI2484
aa(lp535
I1418
aI2129
aI2092
aI1610
aI621
aI219
aI1961
aI1505
aI145
aa(lp536
I1680
aI967
aI362
aI3102
aI2547
aI1635
aI362
aI3102
aI1999
aI2814
aa(lp537
I1178
aI1680
aI2189
aI2791
aI362
aI3102
aI1418
aI2995
aI2547
aI228
aa(lp538
I60
aI688
aI2544
aI2480
aI2358
aI992
aI940
aa(lp539
I1178
aI2664
aI682
aI920
aI3052
aI1072
aI1505
aI2373
aI235
aa(lp540
I1159
aI2308
aI2544
aI2481
aI2995
aI1007
aI936
aa(lp541
I1159
aI2155
aI1635
aI228
aI2777
aI2129
aI367
aI907
aa(lp542
I708
aI1840
aI1680
aI1798
aI2765
aI203
aI2129
aI932
aa(lp543
I1176
aI570
aI1066
aI608
aI966
aI435
aI654
aI2141
aI871
aa(lp544
I1635
aI906
aI621
aI1591
aI1549
aI605
aI1505
aI920
aa(lp545
I2777
aI1591
aI1178
aI605
aI1023
aI1683
aI555
aI1025
aa(lp546
I1178
aI1159
aI2129
aI1131
aI3080
aI1635
aI586
aI235
aI535
aa(lp547
I2308
aI373
aI2078
aI84
aI2784
aI555
aI2699
aI1759
aa(lp548
I1204
aI1610
aI157
aI2747
aI157
aI920
aI628
aI1204
aI225
aI1610
aa(lp549
I1680
aI1704
aI2129
aI224
aI1735
aI1169
aI2129
aI31
aI218
aa(lp550
I792
aI920
aI157
aI920
aI1159
aI2129
aI1129
aI758
aI920
aI736
aa(lp551
I1610
aI362
aI737
aI1119
aI218
aI2129
aI31
aI2544
aI1735
aa(lp552
I224
aI578
aI688
aI157
aI920
aI2129
aI157
aI920
aI1031
aa(lp553
I2995
aI1265
aI1308
aI228
aI688
aI157
aI920
aI2129
aI2136
aa(lp554
I2791
aI638
aI2297
aI604
aI578
aI2129
aI608
aI1999
aI1358
aa(lp555
I2308
aI2810
aI1563
aI1505
aI1680
aI608
aI1999
aI2620
aa(lp556
I2995
aI429
aI1906
aI608
aI1468
aI2763
aI3062
aa(lp557
I3082
aI2129
aI455
aI228
aI1610
aI157
aI2132
aa(lp558
I1178
aI638
aI920
aI1739
aI570
aI569
aI1798
aI2633
aI136
aa(lp559
I1635
aI2839
aI2633
aI190
aI1169
aI2955
aI1750
aI1734
aa(lp560
I2962
aI1964
aI576
aI2157
aI1610
aI506
aI2998
aI1101
aa(lp561
I2087
aI145
aI1549
aI2733
aI638
aI486
aI144
aI1066
aI2297
aI501
aa(lp562
I1359
aI2530
aI939
aI1159
aI68
aI1904
aa(lp563
I1418
aI2995
aI1567
aI783
aI760
aI2516
aI608
aI973
aa(lp564
I608
aI188
aI1178
aI608
aI1035
aI1696
aI2998
aI2551
aa(lp565
I688
aI1039
aI470
aI2266
aI1274
aI2129
aI2092
aa(lp566
I2763
aI2129
aI2092
aI1178
aI124
aI1635
aI2297
aI2108
aa(lp567
I2061
aI2129
aI2092
aI124
aI1635
aI2297
aI2375
aa(lp568
I1178
aI1418
aI1798
aI1642
aI1246
aI1680
aI1918
aI723
aa(lp569
I2953
aI2946
aI871
aI2690
aI998
aI3134
aI2766
aI1688
aa(lp570
I1575
aI145
aI2791
aI638
aI2129
aI2580
aI157
aI2720
aI1848
aa(lp571
I1178
aI2333
aI608
aI188
aI1178
aI608
aI1348
aI1975
aa(lp572
I2784
aI3070
aI228
aI576
aI2721
aI948
aI60
aI1533
aa(lp573
I1274
aI2129
aI2092
aI1029
aI1635
aI230
aI1798
aI2199
aI2651
aa(lp574
I520
aI2308
aI608
aI188
aI300
aI2690
aI1635
aI228
aa(lp575
I1119
aI2308
aI608
aI188
aI1417
aI2757
aI1635
aI145
aa(lp576
I1159
aI2129
aI1704
aI2690
aI570
aI569
aI1066
aI1610
aI157
aI136
aa(lp577
I1178
aI638
aI570
aI1007
aI2297
aI469
aI2995
aI2737
aI2690
aI2260
aa(lp578
I1159
aI2853
aI4
aI228
aI569
aI1505
aI157
aI2042
aI2597
aa(lp579
I1798
aI3043
aI576
aI920
aI1159
aI416
aI145
aI1735
aI1266
aa(lp580
I945
aI1469
aI2961
aI2995
aI2953
aI1745
aI1855
aa(lp581
I2129
aI3018
aI920
aI2690
aI2325
aI2129
aI1914
aI2995
aI920
aI2690
aa(lp582
I1178
aI688
aI157
aI933
aI60
aI1023
aI555
aI2853
aI2587
aI145
aa(lp583
I928
aI157
aI349
aI688
aI157
aI933
aI1635
aI2134
aI2690
aa(lp584
I578
aI2995
aI3052
aI228
aI157
aI3043
aI569
aI157
aI946
aI3129
aa(lp585
I1178
aI698
aI2690
aI157
aI349
aI4
aI1876
aI1159
aI3043
aa(lp586
I2124
aI2049
aI245
aI3026
aI1178
aI2995
aI3052
aI2124
aI535
aa(lp587
I1178
aI2124
aI688
aI157
aI933
aI191
aI1501
aI145
aI2544
aI2969
aa(lp588
I2791
aI340
aI621
aI2888
aI157
aI349
aI1178
aI2995
aI2098
aI235
aa(lp589
I2141
aI2053
aI224
aI2853
aI2747
aI2791
aI145
aI907
aa(lp590
I1418
aI2013
aI2995
aI198
aI224
aI429
aI362
aI1156
aI467
aI2096
aa(lp591
I688
aI1610
aI621
aI2642
aI233
aI2856
aI585
aI460
aa(lp592
I2791
aI1418
aI2995
aI5
aI576
aI662
aI233
aI2178
aI1501
aI228
aa(lp593
I1178
aI2683
aI1241
aI2098
aI1241
aI576
aI602
aI2353
aa(lp594
I224
aI2129
aI13
aI661
aI237
aI555
aI586
aI1241
aa(lp595
I3080
aI119
aI608
aI2301
aI742
aI742
aI739
aI1237
aa(lp596
I1635
aI621
aI2027
aI2642
aI1549
aI608
aI536
aI1216
aI2594
aa(lp597
I1418
aI1635
aI2877
aI1156
aI608
aI1806
aI785
aI1023
aa(lp598
I3080
aI119
aI2995
aI1189
aI362
aI1156
aI2297
aI1523
aI3136
aa(lp599
I2308
aI1096
aI1501
aI228
aI576
aI621
aI1088
aI2642
aa(lp600
I1418
aI576
aI680
aI671
aI608
aI461
aI1957
aI1806
aa(lp601
I1822
aI1877
aI5
aI1501
aI2608
aI1156
aI555
aI3183
aa(lp602
I1610
aI296
aI2098
aI1996
aI1635
aI2096
aI998
aI2995
aI2096
aI228
aa(lp603
I1178
aI1996
aI1241
aI296
aI1418
aI662
aI429
aI1237
aI228
aI145
aa(lp604
I578
aI621
aI2351
aI95
aI1505
aI157
aI2980
aI1176
aI2999
aa(lp605
I787
aI339
aI2827
aI1066
aI433
aI157
aI735
aa(lp606
I688
aI224
aI440
aI1505
aI1092
aI2995
aI119
aI2297
aI665
aa(lp607
I2516
aI2898
aI180
aI1599
aI1274
aI2129
aI3018
aI3183
aa(lp608
I792
aI345
aI224
aI3082
aI157
aI1862
aI868
aI1511
aa(lp609
I2984
aI621
aI2861
aI412
aI757
aI2516
aI228
aa(lp610
I688
aI2477
aI2999
aI967
aI2460
aI2124
aI2099
aI1178
aI2399
aa(lp611
I2951
aI1818
aI2951
aI1125
aI621
aI1120
aI1274
aI3134
aI119
aI2297
aa(lp612
I2791
aI1564
aI2999
aI1450
aI145
aI1159
aI2995
aI1567
aI1066
aI2999
aa(lp613
I1635
aI3073
aI263
aI2201
aI1505
aI1273
aI1418
aI2129
aI2092
aI1559
aa(lp614
I2791
aI1159
aI1023
aI536
aI1505
aI412
aI1178
aI905
aI217
aa(lp615
I2995
aI144
aI2584
aI2787
aI435
aI1549
aI157
aI1940
aa(lp616
I1099
aI721
aI2308
aI2390
aI1023
aI1245
aa(lp617
I2791
aI1877
aI1254
aI2618
aI1505
aI2249
aI2111
aa(lp618
I621
aI3026
aI1729
aI3078
aI560
aI1178
aI197
aI2168
aa(lp619
I2098
aI2124
aI1549
aI228
aI914
aI2995
aI1095
aa(lp620
I621
aI1127
aI157
aI2999
aI621
aI3026
aI157
aI664
aa(lp621
I1364
aI811
aI1549
aI2894
aI1117
aI2650
aa(lp622
I688
aI1418
aI1364
aI1665
aI2390
aI2098
aI1559
aa(lp623
I576
aI1663
aI2684
aI1505
aI920
aI1635
aI228
aa(lp624
I157
aI545
aI1417
aI3136
aI1505
aI3
aI1549
aI1729
aI907
aa(lp625
I81
aI724
aI1635
aI2122
aI1884
aI1549
aI2473
aa(lp626
I766
aI1602
aI2209
aI2297
aI120
aa(lp627
I2308
aI1359
aI2894
aI2259
aI1643
aI2516
aI228
aa(lp628
I2784
aI60
aI2791
aI1067
aI1313
aI748
aI1578
aI278
aa(lp629
I1505
aI608
aI461
aI1895
aI918
aI570
aI1635
aI145
aa(lp630
I2544
aI78
aI2995
aI2888
aI2791
aI224
aI792
aI820
aI1752
aa(lp631
I2995
aI2429
aI225
aI748
aI1578
aI1178
aI2179
aI1016
aI1187
aa(lp632
I362
aI1725
aI1178
aI973
aI2098
aI2956
aI1798
aI2698
aI738
aa(lp633
I3080
aI1635
aI108
aI621
aI2320
aI1505
aI608
aI2283
aa(lp634
I362
aI1725
aI157
aI973
aI608
aI663
aI2283
aI119
aI446
aa(lp635
I157
aI973
aI362
aI1725
aI621
aI3094
aI1505
aI1159
aI674
aa(lp636
I157
aI973
aI555
aI2462
aI1159
aI2129
aI576
aI2078
aI3018
aI2212
aa(lp637
I1798
aI2873
aI83
aI815
aI1549
aI767
aI1156
aa(lp638
I2791
aI621
aI2525
aI555
aI1159
aI1108
aI2797
aa(lp639
I1178
aI877
aI576
aI2078
aI608
aI461
aI2950
aI725
aa(lp640
I1635
aI249
aI2544
aI1249
aI569
aI2083
aa(lp641
I1798
aI2258
aI1505
aI605
aI1610
aI2316
aI1635
aI621
aI973
aa(lp642
I1178
aI2308
aI2721
aI2452
aI569
aI1977
aa(lp643
I621
aI2027
aI1002
aI2713
aI1178
aI621
aI682
aI1786
aI1961
aa(lp644
I2951
aI2961
aI362
aI1002
aI2155
aI569
aI608
aI2102
aI1961
aa(lp645
I1178
aI157
aI1786
aI674
aI608
aI1833
aI920
aI1505
aI973
aa(lp646
I2453
aI362
aI1725
aI1178
aI973
aI1798
aI2936
aI569
aI333
aa(lp647
I1178
aI245
aI555
aI1850
aI1875
aI1067
aI2240
aI621
aI3026
aa(lp648
I1418
aI1159
aI362
aI1725
aI569
aI1837
aI688
aI1798
aI2178
aa(lp649
I1515
aI973
aI576
aI920
aI1549
aI2280
aI2338
aI555
aI3037
aa(lp650
I1549
aI157
aI946
aI804
aI224
aI157
aI1725
aI555
aI2647
aa(lp651
I1178
aI1635
aI621
aI2937
aI2628
aI765
aI157
aI973
aa(lp652
I317
aI1591
aI362
aI1725
aI569
aI157
aI1786
aI1942
aa(lp653
I1178
aI576
aI2561
aI605
aI1505
aI920
aI555
aI1769
aI1798
aI1961
aa(lp654
I1023
aI1467
aI2308
aI608
aI804
aI1515
aI157
aI920
aa(lp655
I608
aI1999
aI472
aI2092
aI1636
aI1039
aI1549
aI145
aa(lp656
I688
aI2129
aI1066
aI456
aI1169
aI157
aI605
aI2273
aI2607
aa(lp657
I1178
aI2995
aI1567
aI1039
aI1549
aI225
aI1178
aI233
aI1549
aI228
aa(lp658
I1515
aI578
aI233
aI5
aI608
aI804
aI576
aI157
aI2283
aa(lp659
I582
aI157
aI973
aI1635
aI1786
aI1178
aI1002
aI600
aa(lp660
I3080
aI1357
aI737
aI2995
aI1418
aI2995
aI333
aI157
aI735
aa(lp661
I245
aI1041
aI22
aI1059
aI2090
aI1635
aI2687
aa(lp662
I1159
aI1635
aI157
aI2514
aI570
aI1845
aI2012
aI3183
aa(lp663
I2516
aI2637
aI1505
aI1473
aI576
aI1211
aI2405
aI1505
aI524
aa(lp664
I2791
aI2129
aI1635
aI2157
aI157
aI1186
aI1984
aI2098
aa(lp665
I2013
aI3083
aI1782
aI1067
aI157
aI617
aI136
aa(lp666
I2129
aI467
aI1505
aI2613
aI1178
aI362
aI937
aI1110
aa(lp667
I2092
aI624
aI621
aI942
aI1505
aI35
aI2719
aI3062
aa(lp668
I228
aI2766
aI2995
aI1066
aI146
aI1278
aI576
aI1196
aI378
aa(lp669
I653
aI1274
aI2129
aI2092
aI1066
aI385
aI2995
aI1929
aI2129
aI2092
aa(lp670
I2321
aI621
aI2763
aI1058
aI1505
aI157
aI2073
aa(lp671
I2516
aI1508
aI2956
aI1809
aI2129
aI1129
aI1313
aI1178
aI1961
aa(lp672
I1178
aI60
aI2900
aI2129
aI2948
aI2297
aI1054
aI2995
aI885
aa(lp673
I688
aI2651
aI1368
aI1771
aI688
aI1798
aI42
aI1023
aI682
aa(lp674
I507
aI1159
aI1591
aI578
aI77
aI1159
aI1591
aI1313
aa(lp675
I1418
aI2995
aI2290
aI2096
aI228
aI1449
aI1501
aI157
aI1936
aa(lp676
I1418
aI2951
aI608
aI920
aI4
aI1367
aI2561
aI2177
aI1686
aa(lp677
I2363
aI1635
aI1159
aI2992
aI2308
aI859
aI2669
aa(lp678
I507
aI1159
aI1591
aI1418
aI2129
aI394
aI729
aI1672
aa(lp679
I1178
aI2993
aI196
aI145
aI1549
aI1159
aI1685
aI1119
aI1725
aa(lp680
I1418
aI920
aI3147
aI2516
aI621
aI1118
aI570
aI737
aa(lp681
I2290
aI2140
aI2049
aI1505
aI104
aI2775
aa(lp682
I507
aI1159
aI1591
aI429
aI2995
aI1702
aI145
aI84
aa(lp683
I2321
aI621
aI2821
aI1505
aI362
aI3102
aI2398
aa(lp684
I1178
aI2544
aI157
aI599
aI507
aI157
aI1999
aI2506
aa(lp685
I1635
aI3106
aI621
aI3110
aI2140
aI1501
aI608
aI1961
aa(lp686
I1635
aI871
aI1590
aI145
aI2129
aI1704
aI621
aI374
aI1505
aI826
aa(lp687
I1892
aI2794
aI1635
aI920
aI2995
aI967
aI1776
aI792
aI2678
aa(lp688
I3080
aI1877
aI429
aI2995
aI812
aI1501
aI621
aI735
aa(lp689
I1418
aI1680
aI2995
aI370
aI157
aI2893
aI1227
aI1013
aa(lp690
I555
aI1912
aI1159
aI1360
aI1178
aI1159
aI631
aI1635
aI1189
aa(lp691
I1781
aI180
aI621
aI1273
aI2098
aI2021
aI2516
aI608
aI349
aI2670
aa(lp692
I621
aI1915
aI1159
aI298
aI145
aI51
aI1549
aI157
aI2111
aa(lp693
I2672
aI1444
aI1501
aI1635
aI2839
aI1159
aI1881
aI576
aI145
aa(lp694
I2951
aI578
aI2308
aI2278
aI2507
aI621
aI1203
aI868
aI3039
aa(lp695
I2561
aI382
aI2737
aI1066
aI1428
aI1417
aI3136
aI2516
aI228
aa(lp696
I621
aI923
aI2844
aI1265
aI986
aI2078
aI1501
aa(lp697
I1159
aI2028
aI1193
aI449
aI1056
aI2561
aI63
aa(lp698
I2777
aI3010
aI3134
aI1699
aI1549
aI1798
aI1541
aa(lp699
I1735
aI1775
aI1635
aI145
aI1169
aI2819
aI1635
aI2561
aI249
aa(lp700
I688
aI1159
aI1385
aI1541
aI555
aI1911
aI2544
aI576
aI157
aI361
aa(lp701
I157
aI136
aI725
aI3021
aI1178
aI157
aI2888
aI1296
aa(lp702
I2961
aI967
aI157
aI920
aI1745
aI621
aI1245
aI1452
aa(lp703
I1505
aI157
aI2351
aI415
aI1418
aI2516
aI228
aI2995
aI1428
aa(lp704
I2516
aI1274
aI2129
aI2092
aI2794
aI2827
aI2995
aI200
aI145
aI2900
aa(lp705
I998
aI2995
aI1378
aI1505
aI788
aI569
aI792
aI2768
aa(lp706
I708
aI1680
aI1745
aI2953
aI157
aI1590
aI1915
aI224
aI2049
aa(lp707
I1418
aI2894
aI763
aI967
aI369
aI2791
aI1245
aa(lp708
I224
aI2827
aI2995
aI2844
aI385
aI841
aI1501
aI621
aI204
aa(lp709
I576
aI1816
aI1428
aI792
aI1117
aI2290
aI2995
aI3039
aa(lp710
I224
aI967
aI792
aI1941
aI1549
aI157
aI664
aI2693
aI2181
aa(lp711
I124
aI664
aI1505
aI1229
aI920
aI1417
aI3136
aa(lp712
I2290
aI1616
aI792
aI2351
aI2980
aI576
aI2561
aI1149
aI2451
aa(lp713
I2791
aI920
aI688
aI920
aI2961
aI2290
aI1745
aI157
aI2094
aa(lp714
I1892
aI2516
aI228
aI1255
aI3134
aI248
aI476
aa(lp715
I2008
aI228
aI1664
aI2298
aI1178
aI936
aI2078
aI871
aI1635
aI2421
aa(lp716
I1023
aI1567
aI2995
aI2951
aI621
aI424
aI13
aI1523
aI2891
aa(lp717
I967
aI2814
aI2078
aI1635
aI2561
aI2141
aI2960
aI1250
aa(lp718
I621
aI2777
aI3134
aI2953
aI1066
aI35
aI1757
aI2492
aa(lp719
I688
aI2015
aI621
aI2048
aI2139
aI1505
aI1269
aI1809
aa(lp720
I124
aI2098
aI2708
aI1023
aI65
aI1178
aI1023
aI3091
aa(lp721
I1892
aI1269
aI1795
aI576
aI1159
aI1134
aI1086
aI2091
aa(lp722
I3045
aI2036
aI1505
aI27
aI233
aI2458
aI3145
aI2098
aa(lp723
I1515
aI62
aI1186
aI576
aI621
aI1177
aa(lp724
I1023
aI569
aI621
aI1591
aI1159
aI201
aI1588
aI2951
aI157
aI378
aa(lp725
I1515
aI2951
aI621
aI335
aI2777
aI621
aI957
aI555
aI63
aa(lp726
I1635
aI586
aI2278
aI39
aI2897
aI2420
aa(lp727
I2308
aI75
aI2918
aI2561
aI1868
aI25
aa(lp728
I1523
aI2098
aI1588
aI13
aI1102
aI1154
aI944
aa(lp729
I1417
aI644
aI1635
aI47
aI1417
aI714
aI1635
aI2833
aa(lp730
I1680
aI569
aI1528
aI95
aI2627
aI2098
aI1588
aI3136
aa(lp731
I1159
aI1143
aI1505
aI1841
aI237
aI1501
aI1588
aI2878
aa(lp732
I1892
aI35
aI235
aI4
aI35
aI235
aI235
aI1806
aa(lp733
I1178
aI1588
aI2791
aI235
aI967
aI35
aI661
aI1481
aa(lp734
I2933
aI1960
aI1178
aI621
aI2567
aa(lp735
I569
aI76
aI1516
aI189
aI1588
aa(lp736
I1501
aI1583
aI2223
aI1610
aI2092
aI1505
aI188
aI2091
aa(lp737
I1178
aI1588
aI576
aI1098
aI56
aI2098
aI2937
aI75
aa(lp738
I526
aI1505
aI621
aI2276
aI1178
aI1689
aI1505
aI621
aI1086
aa(lp739
I621
aI235
aI555
aI661
aI1505
aI1528
aI188
aI1237
aa(lp740
I621
aI3026
aI2951
aI1528
aI1150
aI555
aI890
aa(lp741
I1178
aI1588
aI576
aI35
aI1523
aI2237
aI486
aI3039
aa(lp742
I576
aI1610
aI1354
aI1964
aI1588
aI2766
aI2278
aI1961
aa(lp743
I2791
aI1588
aI3045
aI1756
aI1756
aI1588
aI688
aI2367
aI973
aa(lp744
I708
aI3080
aI536
aI1735
aI555
aI188
aI2061
aI369
aa(lp745
I2308
aI1159
aI2141
aI1295
aI2777
aI2651
aI555
aI936
aa(lp746
I621
aI1436
aI2615
aI461
aI2791
aI2197
aI486
aI570
aI1572
aa(lp747
I688
aI1159
aI2141
aI2188
aI2777
aI555
aI576
aI570
aI940
aa(lp748
I621
aI2586
aI2978
aI2766
aI1696
aI2951
aI1568
aI1798
aI1267
aa(lp749
I2951
aI621
aI1233
aI2425
aI1505
aI621
aI1586
aa(lp750
I280
aI1501
aI2710
aI1026
aI1178
aI2279
aI2951
aI246
aa(lp751
I1418
aI1438
aI1343
aI2721
aI3075
aI1529
aI1306
aa(lp752
I2791
aI688
aI2721
aI956
aI937
aI569
aI2721
aI1237
aa(lp753
I233
aI940
aI1433
aI1178
aI460
aI220
aa(lp754
I869
aI1635
aI2522
aI2141
aI1586
aI429
aI1066
aI1023
aa(lp755
I1505
aI2721
aI2141
aI3153
aI2098
aI17
aI753
aI3136
aa(lp756
I1178
aI1023
aI1505
aI1588
aI2061
aI1178
aI541
aI1975
aa(lp757
I1418
aI1159
aI2290
aI220
aI157
aI1440
aI1414
aI1528
aI2651
aa(lp758
I1066
aI1762
aI1069
aI621
aI2052
aI2680
aa(lp759
I1505
aI3138
aI2290
aI2806
aI2544
aI2706
aI2440
aa(lp760
I2791
aI1588
aI2290
aI2309
aI1735
aI1241
aI576
aI1364
aI372
aa(lp761
I1169
aI2555
aI1502
aI2883
aI1549
aI2858
aI1591
aa(lp762
I1418
aI627
aI738
aI2290
aI2917
aI2942
aa(lp763
I1178
aI330
aI913
aI2668
aI621
aI150
aI1505
aI1356
aa(lp764
I1069
aI1346
aI2561
aI999
aI1069
aI677
aI874
aI2168
aI2290
aI695
aa(lp765
I621
aI1088
aI2874
aI1505
aI1528
aI943
aa(lp766
I1621
aI2122
aI1178
aI2187
aI1708
aa(lp767
I2290
aI1588
aI2181
aI276
aI1528
aI2547
aI2290
aI1039
aI2049
aI147
aa(lp768
I60
aI576
aI621
aI1156
aI1505
aI1610
aI3084
aa(lp769
I1159
aI495
aI2544
aI1458
aI2668
aI1635
aI621
aI410
aI1751
aa(lp770
I1023
aI998
aI621
aI2990
aI1159
aI1528
aI1999
aI2339
aa(lp771
I1588
aI940
aI576
aI2544
aI1178
aI327
aI576
aI2513
aI1156
aa(lp772
I2141
aI920
aI299
aI608
aI50
aI2297
aI570
aI1066
aI469
aa(lp773
I608
aI2229
aI2827
aI910
aI2297
aI1169
aI9
aa(lp774
I2777
aI2791
aI819
aI2308
aI14
aI569
aI2370
aa(lp775
I573
aI2262
aI576
aI2561
aI1633
aI1845
aa(lp776
I1023
aI920
aI2297
aI2129
aI3082
aI819
aI2129
aI1577
aa(lp777
I608
aI781
aI1156
aI60
aI998
aI233
aI198
aI1549
aI616
aa(lp778
I573
aI2096
aI1578
aI1178
aI429
aI1066
aI2087
aa(lp779
I621
aI439
aI1505
aI920
aI1549
aI1798
aI3047
aI247
aa(lp780
I2480
aI2544
aI1187
aI3015
aI3045
aI621
aI614
aI2297
aa(lp781
I2777
aI2973
aI621
aI1805
aI1274
aI1729
aI892
aI75
aa(lp782
I1313
aI822
aI1635
aI621
aI1808
aI1159
aI1418
aI233
aI2096
aa(lp783
I1378
aI1505
aI920
aI1735
aI1492
aI1007
aI2297
aI621
aI2856
aa(lp784
I1515
aI736
aI570
aI990
aI2777
aI1417
aI1696
aI1505
aI1110
aa(lp785
I2495
aI1438
aI809
aI542
aI1735
aI2435
aI1735
aI3091
aa(lp786
I1417
aI1528
aI2979
aI1680
aI2827
aI2995
aI429
aI2791
aI2878
aa(lp787
I2984
aI621
aI1701
aI1178
aI169
aI1505
aI1528
aI664
aa(lp788
I2995
aI2766
aI792
aI2892
aI1591
aI2956
aI1610
aI1635
aI2233
aa(lp789
I1069
aI2324
aI1635
aI429
aI998
aI1588
aI1173
aa(lp790
I1069
aI1460
aI2995
aI2333
aI621
aI2826
aI1757
aa(lp791
I2611
aI2995
aI157
aI732
aI2585
aI621
aI1684
aI688
aI1588
aa(lp792
I1069
aI1125
aI621
aI343
aI1505
aI1840
aI966
aa(lp793
I1418
aI1588
aI2766
aI2254
aI1528
aI1073
aI2412
aI2780
aa(lp794
I1069
aI1460
aI2995
aI2332
aI1549
aI157
aI315
aI2999
aa(lp795
I1274
aI1588
aI1007
aI2297
aI1515
aI1528
aI2110
aI564
aa(lp796
I2791
aI3045
aI1798
aI1187
aI2979
aI3183
aI1178
aI1125
aI1505
aI721
aa(lp797
I653
aI1274
aI1588
aI2098
aI3080
aI739
aI1588
aI586
aI1359
aa(lp798
I1023
aI758
aI1798
aI1372
aI569
aI920
aI1159
aI576
aI1528
aI2953
aa(lp799
I385
aI1588
aI429
aI1196
aI1118
aI3134
aI1477
aI792
aI506
aa(lp800
I1159
aI267
aI2502
aI1159
aI3136
aI145
aI1127
aI1528
aI2979
aa(lp801
I2995
aI2827
aI576
aI2999
aI2553
aI1528
aI169
aI1505
aI1809
aa(lp802
I1515
aI2956
aI1528
aI599
aI591
aI2542
aI1505
aI1701
aI1635
aI57
aa(lp803
I1417
aI1528
aI3200
aI722
aI1635
aI3183
aI1528
aI435
aa(lp804
I708
aI2480
aI145
aI1826
aI1417
aI2956
aI1528
aI86
aa(lp805
I591
aI1868
aI1840
aI1505
aI1528
aI68
aa(lp806
I1178
aI112
aI1140
aI1635
aI1122
aI772
aI245
aI1386
aa(lp807
I1411
aI2754
aI1588
aI1505
aI1734
aa(lp808
I2297
aI1274
aI1588
aI1658
aI1528
aI49
aI569
aI1023
aI1706
aa(lp809
I1159
aI1588
aI1528
aI1999
aI1007
aI2785
aI1528
aI1591
aa(lp810
I1635
aI1680
aI1588
aI2953
aI1635
aI1588
aI570
aI555
aI2203
aa(lp811
I1528
aI1999
aI1635
aI1
aI1505
aI1339
aI1253
aa(lp812
I2995
aI1567
aI1635
aI2160
aI385
aI2058
aI1023
aI2297
aI1824
aa(lp813
I1066
aI1308
aI1528
aI1809
aI2297
aI570
aI506
aI1515
aI2998
aa(lp814
I578
aI1533
aI2297
aI2017
aI75
aI2791
aI1159
aI2777
aI569
aa(lp815
I4
aI533
aI218
aI3080
aI2098
aI2664
aI1160
aI2921
aa(lp816
I2777
aI2760
aI688
aI1670
aI2839
aI1231
aa(lp817
I621
aI2924
aI518
aI1505
aI1798
aI1633
aI553
aa(lp818
I708
aI1159
aI2874
aI2692
aI1549
aI1798
aI1598
aI2178
aa(lp819
I60
aI1505
aI3038
aI1952
aI1479
aI1505
aI621
aI1685
aa(lp820
I1237
aI145
aI1528
aI1522
aI576
aI2278
aI673
aI3172
aa(lp821
I1892
aI361
aI2956
aI1127
aI576
aI337
aI737
aI1935
aa(lp822
I1159
aI2995
aI1845
aI2096
aI1680
aI621
aI675
aI1458
aI2692
aI1189
aa(lp823
I1635
aI2544
aI2497
aI1288
aI1505
aI1528
aI2863
aa(lp824
I3140
aI486
aI2098
aI1793
aI1515
aI3140
aI219
aI233
aa(lp825
I1515
aI3140
aI1934
aI2297
aI621
aI1385
aa(lp826
I708
aI1211
aI2995
aI1567
aI621
aI2773
aI1505
aI1633
aI296
aa(lp827
I1635
aI379
aI170
aI2766
aI283
aI2406
aI2547
aa(lp828
I3045
aI2951
aI621
aI1130
aI586
aI2008
aI621
aI480
aI1805
aa(lp829
I1023
aI429
aI2664
aI3150
aI454
aI1635
aI2721
aI1013
aa(lp830
I245
aI1402
aI1120
aI1549
aI1159
aI2777
aI896
aI218
aa(lp831
I576
aI1596
aI2231
aI1610
aI1927
aI429
aI262
aa(lp832
I1132
aI2412
aI576
aI621
aI1055
aI1505
aI2594
aa(lp833
I1847
aI1635
aI2360
aI2798
aI1417
aI290
aa(lp834
I1292
aI2186
aI1621
aI2561
aI3139
aI733
aa(lp835
I1178
aI1591
aI1159
aI654
aI555
aI1067
aI2561
aI667
aI2190
aa(lp836
I1591
aI555
aI2606
aI621
aI1015
aI2091
aI1501
aI1975
aa(lp837
I1178
aI1740
aI621
aI489
aI576
aI780
aI1374
aa(lp838
I1499
aI1501
aI621
aI2372
aI1505
aI1886
aI2651
aa(lp839
I1178
aI2017
aI2022
aI2791
aI688
aI2561
aI2478
aI1635
aI2213
aa(lp840
I1178
aI638
aI1635
aI169
aI576
aI2833
aI157
aI1440
aI2290
aI1511
aa(lp841
I373
aI608
aI27
aI440
aI2561
aI3146
aI599
aa(lp842
I569
aI570
aI608
aI2953
aI608
aI1522
aI2827
aI2693
aI1141
aa(lp843
I157
aI1877
aI452
aI1635
aI621
aI2893
aI671
aa(lp844
I3018
aI2129
aI664
aI157
aI3171
aI2827
aI2297
aI1496
aa(lp845
I2182
aI237
aI3045
aI1635
aI228
aI429
aI2387
aI157
aI2283
aa(lp846
I569
aI570
aI608
aI439
aI1159
aI2129
aI2077
aI2516
aI228
aa(lp847
I1023
aI180
aI2516
aI3067
aI1056
aI157
aI1834
aI1635
aI1195
aa(lp848
I1635
aI2049
aI2668
aI2981
aI1178
aI346
aI1701
aI576
aI145
aa(lp849
I621
aI944
aI1178
aI2600
aI1505
aI608
aI731
aa(lp850
I708
aI792
aI608
aI920
aI385
aI536
aI569
aI1066
aI1023
aI2487
aa(lp851
I570
aI569
aI157
aI920
aI1159
aI201
aI362
aI1725
aI52
aa(lp852
I362
aI3102
aI758
aI920
aI1159
aI555
aI157
aI1421
aI2493
aa(lp853
I1635
aI2279
aI621
aI3117
aI77
aI688
aI608
aI933
aa(lp854
I688
aI228
aI2585
aI2995
aI2611
aI2129
aI3018
aI1353
aI2340
aa(lp855
I2516
aI145
aI180
aI2994
aI1549
aI2482
aI1610
aI326
aI563
aa(lp856
I2582
aI1505
aI1724
aI2133
aI1610
aI362
aI1725
aa(lp857
I1178
aI1610
aI157
aI963
aI1178
aI1610
aI157
aI35
aI1961
aa(lp858
I1178
aI688
aI2544
aI2582
aI1533
aI569
aI792
aI2071
aa(lp859
I570
aI569
aI1023
aI2127
aI1833
aI576
aI157
aI973
aa(lp860
I3184
aI792
aI786
aI1023
aI557
aI569
aI2951
aI362
aa(lp861
I792
aI2237
aI1023
aI758
aI792
aI2651
aI1505
aI2710
aI2542
aa(lp862
I1178
aI688
aI157
aI1999
aI362
aI3102
aI27
aI429
aI2931
aa(lp863
I2951
aI2995
aI1610
aI3026
aI576
aI1610
aI3087
aI926
aa(lp864
I2791
aI1418
aI157
aI137
aI1101
aI145
aI157
aI1999
aI1032
aa(lp865
I61
aI1178
aI1783
aI1549
aI1608
aI1931
aa(lp866
I362
aI3102
aI1724
aI1106
aI1978
aI2995
aI1451
aa(lp867
I1999
aI1023
aI1486
aI1176
aI2447
aa(lp868
I1262
aI228
aI157
aI1999
aI1159
aI688
aI157
aI1999
aI2995
aI2547
aa(lp869
I2805
aI157
aI2404
aI1549
aI188
aI1505
aI608
aI296
aa(lp870
I507
aI157
aI920
aI2290
aI2297
aI2951
aI2995
aI1567
aI1067
aa(lp871
I1549
aI2787
aI787
aI599
aI3036
aI1178
aI929
aa(lp872
I1418
aI1701
aI2766
aI1779
aI2561
aI1794
aI1178
aI899
aI2561
aI1374
aa(lp873
I1549
aI2596
aI1178
aI2312
aI1418
aI2561
aI2317
aI1731
aa(lp874
I4
aI2724
aI1501
aI1635
aI1112
aI1714
aI671
aa(lp875
I1178
aI1610
aI1359
aI2604
aI2627
aI1067
aI3194
aI1965
aa(lp876
I2098
aI2121
aI1515
aI801
aI2668
aI1505
aI2283
aa(lp877
I1566
aI472
aI621
aI1250
aI1505
aI2561
aI2276
aa(lp878
I688
aI2710
aI1798
aI1591
aI429
aI2995
aI1067
aI213
aa(lp879
I507
aI2439
aI1112
aI3146
aI1487
aa(lp880
I1159
aI3134
aI2290
aI83
aI2243
aI2516
aI943
aa(lp881
I157
aI2141
aI946
aI188
aI385
aI157
aI2356
aI545
aa(lp882
I2561
aI188
aI2290
aI576
aI1364
aI1256
aI2596
aI2297
aI2194
aa(lp883
I1178
aI233
aI2290
aI940
aI1178
aI3134
aI576
aI225
aI1039
aI1206
aa(lp884
I1418
aI2995
aI2766
aI2194
aI2308
aI2787
aI1509
aI599
aI1199
aa(lp885
I621
aI3048
aI883
aI1505
aI1667
aI1191
aI2404
aa(lp886
I1418
aI783
aI2910
aI950
aI2995
aI2096
aI2885
aa(lp887
I1178
aI1595
aI282
aI2979
aI1635
aI2698
aI1553
aa(lp888
I1418
aI2995
aI2766
aI2194
aI621
aI781
aI614
aI3129
aa(lp889
I854
aI1501
aI621
aI1448
aI1505
aI621
aI1805
aa(lp890
I1178
aI621
aI2163
aI1732
aI2503
aI1505
aI621
aI2583
aI1055
aa(lp891
I445
aI1953
aI1549
aI3043
aI1178
aI3043
aI1549
aI1953
aa(lp892
I1418
aI2995
aI2766
aI2194
aI2710
aI1144
aI1505
aI2879
aa(lp893
I1515
aI2879
aI570
aI1999
aI934
aI1635
aI2625
aa(lp894
I2056
aI4
aI255
aI145
aI2961
aI1635
aI2422
aa(lp895
I1159
aI1591
aI2953
aI1313
aI1178
aI1204
aI157
aI920
aI472
aa(lp896
I2544
aI2999
aI569
aI2951
aI1798
aI2122
aI2777
aI1265
aI2631
aa(lp897
I2791
aI1403
aI1635
aI2766
aI1159
aI2777
aI570
aI2382
aI1635
aI3052
aa(lp898
I1892
aI1595
aI1069
aI1502
aI1069
aI412
aI1069
aI1097
aI2099
aa(lp899
I2791
aI1187
aI1968
aI2095
aI2721
aI1490
aa(lp900
I3080
aI1549
aI2544
aI1553
aI2290
aI188
aI142
aI1798
aI1108
aa(lp901
I13
aI1713
aI569
aI792
aI2800
aI1169
aI1798
aI1593
aa(lp902
I708
aI3080
aI2290
aI1438
aI165
aI1343
aI142
aI2668
aa(lp903
I507
aI621
aI818
aI1103
aI1505
aI938
aI296
aa(lp904
I1418
aI241
aI2069
aI2098
aI1066
aI1023
aI2636
aa(lp905
I1069
aI2040
aI1505
aI2736
aI1023
aI1706
aI2791
aI1591
aI2662
aa(lp906
I708
aI1660
aI1625
aI1274
aI202
aa(lp907
I2290
aI2787
aI467
aI3196
aI2516
aI2787
aI378
aI2212
aI2072
aa(lp908
I1515
aI1680
aI1706
aI599
aI967
aI142
aI2561
aI2894
aI1862
aI748
aa(lp909
I1515
aI2784
aI2561
aI1326
aI1505
aI188
aI967
aI2502
aa(lp910
I708
aI1756
aI2781
aI2544
aI1464
aI2766
aI1845
aa(lp911
I1159
aI576
aI1256
aI3159
aI157
aI920
aI1007
aI1039
aI2309
aI1241
aa(lp912
I51
aI1549
aI1610
aI1364
aI688
aI1981
aI2122
aI2995
aI2082
aa(lp913
I2951
aI1635
aI3176
aI2398
aI1798
aI2759
aI681
aa(lp914
I1178
aI1780
aI2017
aI2649
aI576
aI2744
aa(lp915
I1178
aI1287
aI2310
aI528
aI431
aa(lp916
I1178
aI2052
aI903
aI1420
aI2318
aa(lp917
I1178
aI384
aI956
aI2701
aI852
aa(lp918
I1178
aI674
aI2840
aI2089
aI1792
aa(lp919
I1178
aI374
aI2308
aI1377
aI26
aI1819
aa(lp920
I1178
aI2092
aI3136
aI1290
aI2308
aI2346
aa(lp921
I1178
aI1174
aI1337
aI1747
aI3016
aa(lp922
I1178
aI3024
aI2651
aI2862
aI1790
aa(lp923
I1178
aI762
aI1850
aI2685
aI62
aI506
aa(lp924
I51
aI1549
aI1610
aI1364
aI2516
aI1364
aI119
aI2995
aI2297
aI1559
aa(lp925
I653
aI1159
aI1635
aI869
aI2995
aI871
aI157
aI920
aI907
aa(lp926
I1564
aI882
aI1549
aI2535
aI2827
aI3134
aI940
aa(lp927
I1178
aI1549
aI2561
aI718
aI1964
aI1718
aa(lp928
I1159
aI2582
aI2308
aI2078
aI854
aI2827
aI1463
aa(lp929
I1178
aI1328
aI570
aI1999
aI1549
aI2561
aI2661
aa(lp930
I2794
aI2827
aI2757
aI2805
aI463
aI2561
aI2223
aa(lp931
I1178
aI455
aI680
aI1926
aI1505
aI2561
aI1088
aI358
aa(lp932
I2794
aI2827
aI1590
aI188
aI177
aI370
aa(lp933
I1586
aI1505
aI661
aI1892
aI2561
aI1436
aI569
aI758
aa(lp934
I2794
aI2827
aI3134
aI940
aI1067
aI490
aI2592
aI569
aa(lp935
I2756
aI1505
aI1794
aI1635
aI1928
aI1822
aI1525
aI1077
aa(lp936
I688
aI2853
aI4
aI792
aI320
aI1067
aI2791
aI2561
aa(lp937
I1178
aI1226
aI1505
aI1316
aI2173
aI2984
aI2561
aI2065
aa(lp938
I708
aI2078
aI2853
aI3008
aI1635
aI1237
aI1680
aI931
aI2853
aI644
aa(lp939
I576
aI296
aI1134
aI1892
aI218
aI1364
aI2126
aI1023
aI2675
aa(lp940
I2961
aI569
aI2561
aI2223
aI621
aI1003
aI1505
aI296
aI1667
aa(lp941
I1418
aI188
aI2164
aI1178
aI817
aI2951
aI1168
aI429
aI1067
aa(lp942
I218
aI1364
aI2771
aI1823
aI1505
aI461
aI1176
aI681
aa(lp943
I1515
aI2842
aI2832
aI1501
aI1798
aI1088
aI1374
aa(lp944
I218
aI621
aI106
aI2686
aI1505
aI621
aI680
aa(lp945
I621
aI674
aI1505
aI2076
aI1176
aI1489
aI472
aa(lp946
I1635
aI940
aI1798
aI2924
aI545
aI1501
aI2924
aI740
aa(lp947
I154
aI780
aI680
aI856
aI3136
aI317
aI2166
aa(lp948
I576
aI2078
aI1359
aI131
aI673
aI1701
aI2098
aI2194
aa(lp949
I1411
aI1610
aI1295
aI570
aI1999
aI1178
aI758
aa(lp950
I969
aI792
aI1415
aI1505
aI1080
aI1206
aa(lp951
I140
aI792
aI675
aI1635
aI991
aI2561
aI188
aI75
aa(lp952
I1178
aI2078
aI2951
aI688
aI1798
aI1003
aI555
aI490
aI1953
aa(lp953
I1635
aI1237
aI2757
aI2092
aI1680
aI188
aI737
aI1505
aI2688
aa(lp954
I1359
aI2973
aI1505
aI228
aI1159
aI621
aI121
aI1725
aI555
aI2856
aa(lp955
I976
aI2017
aI1159
aI621
aI2999
aI1505
aI620
aI967
aI426
aa(lp956
I1610
aI1983
aI621
aI566
aI1505
aI832
aI936
aI228
aI1159
aI2155
aa(lp957
I41
aI2097
aI2651
aI60
aI1023
aI2951
aI501
aI2920
aa(lp958
I608
aI2102
aI2961
aI1549
aI2102
aI2547
aI569
aI290
aa(lp959
I2791
aI1359
aI1385
aI1983
aI1159
aI936
aI228
aI1023
aI1119
aI3102
aa(lp960
I576
aI3026
aI1565
aI429
aI2544
aI2547
aI2190
aa(lp961
I2308
aI816
aI456
aI1169
aI621
aI1725
aI4
aI1089
aa(lp962
I233
aI2178
aI1056
aI621
aI188
aI1505
aI608
aI361
aa(lp963
I1178
aI1159
aI576
aI685
aI233
aI3155
aI2308
aI608
aI1834
aa(lp964
I224
aI989
aI2721
aI605
aI3082
aI2721
aI1156
aI1176
aI1966
aa(lp965
I1635
aI608
aI461
aI1593
aI3025
aI621
aI313
aI802
aI1505
aI1861
aa(lp966
I2791
aI2794
aI608
aI2188
aI74
aI1066
aI608
aI1237
aa(lp967
I621
aI1732
aI569
aI2544
aI1159
aI2129
aI3018
aI2086
aI1016
aa(lp968
I1159
aI2129
aI2092
aI604
aI2290
aI1066
aI2297
aI608
aI1986
aa(lp969
I688
aI1404
aI1342
aI737
aI77
aI638
aI621
aI461
aa(lp970
I621
aI1295
aI1505
aI188
aI569
aI895
aa(lp971
I1798
aI2456
aI1159
aI2137
aI576
aI3069
aI17
aI560
aa(lp972
I1023
aI2129
aI2297
aI1850
aI2361
aI555
aI2791
aI2134
aa(lp973
I608
aI27
aI621
aI2633
aI1417
aI3030
aI1505
aI1591
aa(lp974
I688
aI2586
aI2403
aI621
aI17
aI1529
aI555
aI920
aa(lp975
I1178
aI2129
aI1804
aI1798
aI1921
aI2624
aI1268
aa(lp976
I2129
aI1704
aI1950
aI2308
aI621
aI2314
aI1505
aI2428
aI296
aa(lp977
I1467
aI1066
aI2375
aI1515
aI2465
aI1417
aI1413
aa(lp978
I638
aI2544
aI608
aI2547
aI1265
aI2297
aI1023
aI608
aI2547
aa(lp979
I1635
aI800
aI1278
aI2820
aI10
aI1933
aa(lp980
I578
aI2278
aI895
aI1505
aI506
aI3075
aI1066
aI608
aI1237
aa(lp981
I224
aI2129
aI907
aI167
aI1505
aI620
aI2054
aI3104
aa(lp982
I792
aI820
aI858
aI688
aI145
aI1418
aI2995
aI1567
aI680
aa(lp983
I1169
aI1588
aI2290
aI752
aI621
aI1885
aI2378
aI2365
aa(lp984
I936
aI1124
aI1635
aI621
aI1458
aI1159
aI2995
aI1567
aI3023
aa(lp985
I2516
aI2544
aI15
aI1458
aI1549
aI669
aI1617
aI1635
aI327
aa(lp986
I2386
aI578
aI1588
aI1451
aI2544
aI2350
aI1019
aI1066
aa(lp987
I621
aI599
aI1159
aI2598
aI570
aI688
aI2995
aI920
aI1588
aI1023
aa(lp988
I1159
aI2995
aI576
aI1528
aI2141
aI605
aI119
aI2297
aI256
aa(lp989
I578
aI1435
aI1501
aI145
aI224
aI2827
aI586
aI1588
aI2111
aa(lp990
I708
aI578
aI2995
aI1189
aI1588
aI2178
aI2984
aI2544
aI1440
aa(lp991
I1418
aI2995
aI2968
aI2571
aI1567
aI1549
aI2300
aa(lp992
I429
aI1066
aI1023
aI536
aI2951
aI157
aI1590
aI1072
aI690
aa(lp993
I2791
aI2480
aI1528
aI920
aI60
aI1549
aI157
aI545
aI2625
aa(lp994
I3005
aI621
aI3137
aI1458
aI2827
aI2178
aI1056
aI1528
aI1940
aa(lp995
I1178
aI2387
aI1588
aI1549
aI145
aI189
aI2995
aI1567
aI1559
aa(lp996
I708
aI3005
aI621
aI1458
aI2827
aI2220
aI1588
aI1635
aI1814
aa(lp997
I1680
aI1239
aI2164
aI576
aI145
aI1159
aI1588
aI2827
aI920
aa(lp998
I189
aI157
aI2122
aI682
aI920
aI12
aI145
aI1106
aa(lp999
I688
aI1588
aI576
aI145
aI967
aI2017
aI3083
aI932
aa(lp1000
I2781
aI1588
aI119
aI3154
aI2278
aI2432
aI2212
aa(lp1001
I1635
aI429
aI1735
aI688
aI145
aI1169
aI362
aI3102
aI2398
aa(lp1002
I1178
aI280
aI1735
aI2547
aI2984
aI971
aI2995
aa(lp1003
I1169
aI2064
aI2651
aI119
aI789
aI2677
aa(lp1004
I708
aI3005
aI1528
aI758
aI920
aI1007
aI369
aI2757
aI576
aI2544
aa(lp1005
I1159
aI1588
aI688
aI920
aI526
aI2998
aI1505
aI145
aI2859
aa(lp1006
I157
aI1072
aI2297
aI1191
aI1274
aI157
aI2472
aI569
aa(lp1007
I1178
aI940
aI792
aI1735
aI1635
aI572
aI1069
aI145
aI1069
aI1588
aa(lp1008
I688
aI2995
aI1567
aI1949
aI2308
aI1159
aI2777
aI2995
aI2814
aI276
aa(lp1009
I1178
aI1023
aI2827
aI1588
aI1635
aI920
aI585
aI2017
aI27
aa(lp1010
I1159
aI1591
aI1505
aI1086
aI2129
aI1129
aI576
aI145
aI3176
aa(lp1011
I1418
aI2
aI97
aI1515
aI1756
aI1515
aI2520
aI429
aI280
aa(lp1012
I2984
aI1359
aI2880
aI2777
aI2864
aI507
aI621
aI1038
aa(lp1013
I2097
aI1285
aI1506
aI1274
aI1838
aI621
aI2141
aI1040
aI266
aa(lp1014
I576
aI145
aI2129
aI2196
aI621
aI1068
aI1505
aI2710
aI2642
aa(lp1015
I2951
aI189
aI1230
aI279
aI576
aI621
aI1340
aa(lp1016
I2777
aI2308
aI1178
aI2308
aI1256
aI671
aI555
aI1204
aI472
aa(lp1017
I3079
aI2924
aI1999
aI1159
aI1619
aI1278
aI1610
aI576
aI1421
aa(lp1018
I576
aI145
aI2129
aI2196
aI621
aI1785
aI1505
aI2710
aI2168
aa(lp1019
I1159
aI1501
aI621
aI391
aI1505
aI2561
aI1975
aI555
aI2212
aa(lp1020
I2951
aI621
aI1500
aI2623
aI570
aI144
aI3081
aa(lp1021
I396
aI1549
aI1159
aI2777
aI570
aI737
aI37
aI2308
aa(lp1022
I2544
aI2129
aI831
aI2777
aI2495
aI608
aI920
aI1735
aI1706
aa(lp1023
I1635
aI920
aI1159
aI2998
aI2777
aI2129
aI144
aI871
aI154
aI1134
aa(lp1024
I2791
aI2297
aI1114
aI1418
aI1159
aI1509
aI2150
aa(lp1025
I1411
aI1610
aI413
aI2290
aI1137
aI145
aI472
aa(lp1026
I157
aI545
aI4
aI576
aI2544
aI2350
aI2278
aI537
aa(lp1027
I2777
aI688
aI581
aI1039
aI1549
aI228
aI2290
aI3183
aa(lp1028
I1418
aI2129
aI658
aI2544
aI2129
aI3018
aI1293
aa(lp1029
I621
aI1645
aI1961
aI737
aI1133
aI1635
aI228
aa(lp1030
I621
aI412
aI967
aI2766
aI2791
aI412
aI2777
aI569
aI2561
aI2155
aa(lp1031
I157
aI439
aI569
aI1119
aI621
aI219
aI1961
aI1505
aI145
aa(lp1032
I1023
aI224
aI2129
aI1704
aI2791
aI3046
aI621
aI2554
aI1505
aI545
aa(lp1033
I621
aI942
aI1505
aI1617
aI157
aI2472
aI1417
aI680
aa(lp1034
I621
aI341
aI2320
aI1505
aI1798
aI1466
aI1487
aa(lp1035
I326
aI1909
aI1505
aI228
aI1635
aI2297
aI2299
aa(lp1036
I621
aI27
aI1505
aI1159
aI569
aI1159
aI2777
aI570
aI1728
aa(lp1037
I1178
aI1159
aI569
aI2544
aI1178
aI2544
aI1549
aI228
aI2517
aa(lp1038
I1023
aI2098
aI1588
aI1635
aI157
aI605
aI2951
aI1854
aI1635
aI545
aa(lp1039
I1515
aI2951
aI1105
aI1990
aI2098
aI1635
aI621
aI1244
aa(lp1040
I1178
aI688
aI621
aI2381
aI1505
aI1588
aI2995
aI142
aI2710
aI2268
aa(lp1041
I2951
aI2167
aI1798
aI2485
aI1178
aI2561
aI931
aI569
aI1876
aa(lp1042
I1067
aI1226
aI2951
aI1569
aI409
aI1178
aI2130
aa(lp1043
I2836
aI621
aI319
aI2404
aI2953
aI455
aI2561
aI1250
aa(lp1044
I1067
aI2570
aI467
aI1635
aI2297
aI1549
aI1588
aI907
aa(lp1045
I224
aI102
aI1159
aI621
aI1458
aI1007
aI2096
aI157
aI1809
aa(lp1046
I783
aI1610
aI1696
aI1549
aI2024
aI1501
aI1528
aI2283
aa(lp1047
I1178
aI2308
aI1178
aI2308
aI2391
aI2230
aI688
aI1798
aI2178
aa(lp1048
I2705
aI1515
aI425
aI792
aI600
aa(lp1049
I653
aI1680
aI569
aI644
aI1515
aI144
aI2516
aI1588
aI2297
aI333
aa(lp1050
I2961
aI429
aI2995
aI897
aI1178
aI1079
aI2642
aI2308
aI2642
aa(lp1051
I1515
aI1375
aI1501
aI1610
aI1515
aI1610
aI472
aa(lp1052
I2794
aI569
aI157
aI1440
aI1023
aI2032
aI1505
aI75
aI25
aa(lp1053
I1023
aI180
aI2516
aI3182
aI1515
aI874
aI909
aa(lp1054
I2794
aI1549
aI621
aI1591
aI429
aI2995
aI1066
aI115
aI1201
aa(lp1055
I1635
aI668
aI728
aI1178
aI1635
aI1291
aI1841
aa(lp1056
I2794
aI997
aI2995
aI1039
aI1610
aI235
aI77
aI621
aI1385
aa(lp1057
I1178
aI2693
aI1670
aI576
aI1798
aI1919
aI1397
aa(lp1058
I1159
aI35
aI860
aI555
aI2959
aI127
aI157
aI1072
aa(lp1059
I3044
aI2721
aI659
aI1178
aI1274
aI233
aI868
aI703
aa(lp1060
I708
aI3039
aI2141
aI920
aI2995
aI1870
aI997
aI1505
aI1588
aa(lp1061
I1178
aI1588
aI1178
aI920
aI2098
aI1039
aI157
aI1185
aa(lp1062
I1023
aI1610
aI157
aI467
aI569
aI1637
aI675
aI2841
aI75
aa(lp1063
I2331
aI1578
aI1680
aI569
aI309
aI363
aa(lp1064
I688
aI2951
aI621
aI1685
aI569
aI822
aI75
aI1178
aI675
aa(lp1065
I1023
aI569
aI157
aI920
aI1039
aI2445
aI1680
aI569
aI78
aa(lp1066
I608
aI137
aI2953
aI1237
aI228
aI3080
aI608
aI2604
aI495
aa(lp1067
I608
aI387
aI3080
aI608
aI2892
aI3150
aI2930
aa(lp1068
I1364
aI1410
aI97
aI608
aI359
aI1422
aI2953
aI2839
aa(lp1069
I1178
aI1505
aI2544
aI3172
aI2544
aI1333
aI1129
aI2129
aI1563
aa(lp1070
I621
aI2312
aI2777
aI608
aI137
aI2953
aI1264
aI1237
aa(lp1071
I1505
aI2648
aI2424
aI2953
aI936
aI228
aI943
aa(lp1072
I2129
aI2308
aI608
aI2169
aI1802
aI1536
aI1129
aI3039
aa(lp1073
I2787
aI1771
aI2881
aI1635
aI803
aa(lp1074
I2178
aI1680
aI608
aI943
aI1265
aI2854
aa(lp1075
I713
aI1635
aI1364
aI2930
aI187
aI1178
aI2129
aI394
aI2049
aa(lp1076
I1359
aI69
aI3164
aI2287
aI2516
aI608
aI2849
aa(lp1077
I1635
aI1204
aI1798
aI75
aI2288
aI1505
aI608
aI361
aa(lp1078
I1364
aI670
aI1023
aI3001
aI2951
aI2129
aI2948
aI2178
aa(lp1079
I2290
aI1093
aI228
aI1178
aI536
aI227
aI608
aI3172
aa(lp1080
I1023
aI3001
aI2766
aI2995
aI1289
aI228
aI688
aI157
aI134
aa(lp1081
I1178
aI1876
aI2710
aI461
aI891
aI576
aI157
aI1440
aa(lp1082
I2951
aI35
aI2418
aI1574
aI4
aI274
aI157
aI2514
aa(lp1083
I1178
aI22
aI228
aI2721
aI2813
aI1425
aa(lp1084
I1119
aI1156
aI1159
aI255
aI621
aI2749
aI1501
aI2559
aI1635
aI2484
aa(lp1085
I1178
aI1877
aI492
aI2303
aI1635
aI959
aa(lp1086
I2766
aI2282
aI331
aI1635
aI621
aI2709
aI1228
aa(lp1087
I1178
aI283
aI1964
aI1798
aI1970
aI2138
aa(lp1088
I638
aI2297
aI2013
aI1226
aI1505
aI1159
aI2777
aI2995
aI1366
aa(lp1089
I13
aI2371
aI569
aI1119
aI1178
aI681
aI1505
aI228
aa(lp1090
I576
aI655
aI3054
aI2129
aI3018
aI2791
aI426
aI621
aI1828
aa(lp1091
I1178
aI1338
aI1549
aI608
aI2141
aI46
aI44
aI2297
aa(lp1092
I2791
aI2129
aI2092
aI1610
aI157
aI2092
aI1178
aI3018
aI1111
aa(lp1093
I2951
aI2559
aI2951
aI1333
aI157
aI1791
aI492
aa(lp1094
I2611
aI2995
aI907
aI868
aI736
aI2984
aI608
aI565
aa(lp1095
I157
aI1440
aI907
aI644
aI1610
aI608
aI2763
aI1964
aa(lp1096
I2791
aI1067
aI157
aI557
aI1773
aI2098
aI2246
aa(lp1097
I1178
aI157
aI3174
aI134
aI555
aI936
aI1569
aI3026
aI1120
aa(lp1098
I2995
aI2200
aI2141
aI920
aI608
aI541
aI1185
aa(lp1099
I2313
aI621
aI1991
aI1505
aI1798
aI1442
aI1574
aa(lp1100
I638
aI1680
aI1505
aI228
aI608
aI2929
aI555
aI833
aa(lp1101
I3134
aI1251
aI228
aI1505
aI1178
aI720
aI570
aI228
aI1578
aa(lp1102
I3134
aI3056
aI228
aI956
aI1178
aI3134
aI987
aI1159
aI860
aa(lp1103
I2516
aI608
aI2908
aI188
aI555
aI3134
aI936
aa(lp1104
I1178
aI1876
aI570
aI576
aI608
aI2223
aI3134
aI967
aI2384
aa(lp1105
I792
aI2547
aI1635
aI228
aI2791
aI1680
aI576
aI228
aI555
aI940
aa(lp1106
I224
aI1044
aI2078
aI1066
aI688
aI1159
aI2777
aI3134
aI555
aI1189
aa(lp1107
I1892
aI1680
aI3134
aI2193
aI228
aI2129
aI608
aI1999
aI3018
aI1384
aa(lp1108
I708
aI3080
aI2995
aI717
aI1418
aI2995
aI1505
aI1588
aI429
aI997
aa(lp1109
I2117
aI1798
aI219
aI439
aI555
aI2514
aI1528
aI1072
aa(lp1110
I1178
aI576
aI621
aI2547
aI1860
aI1576
aI1610
aI2561
aI1845
aa(lp1111
I1635
aI586
aI145
aI1290
aI1153
aI1505
aI1528
aI1379
aa(lp1112
I2791
aI1892
aI1528
aI27
aI1171
aI2951
aI621
aI614
aI569
aa(lp1113
I621
aI612
aI2951
aI621
aI2935
aI473
aI555
aI2839
aa(lp1114
I157
aI1827
aI2101
aI1048
aI180
aI1635
aI2561
aa(lp1115
I1501
aI1528
aI3071
aI1055
aI555
aI1259
aI890
aa(lp1116
I1528
aI1974
aI1815
aI2953
aI142
aI145
aI1278
aI2809
aa(lp1117
I2611
aI3134
aI2984
aI1528
aI2735
aI1568
aI555
aI2545
aa(lp1118
I1515
aI1417
aI402
aI2995
aI1567
aI1798
aI2146
aI1336
aa(lp1119
I3134
aI1505
aI1027
aI1597
aI1178
aI1505
aI2369
aI25
aa(lp1120
I224
aI578
aI3134
aI2115
aI1178
aI2995
aI2297
aI1367
aI472
aa(lp1121
I621
aI1651
aI737
aI2544
aI157
aI920
aI737
aI157
aI2625
aa(lp1122
I1515
aI2995
aI2290
aI940
aI1528
aI958
aI1635
aI586
aa(lp1123
I1515
aI1588
aI125
aI1418
aI2995
aI576
aI412
aI1567
aI2470
aa(lp1124
I2516
aI2699
aI1528
aI943
aI2122
aI1265
aI1204
aa(lp1125
I3082
aI576
aI145
aI245
aI1961
aI2953
aI2297
aI2131
aa(lp1126
I1528
aI1072
aI2516
aI2699
aI3064
aI545
aI2290
aI2766
aa(lp1127
I385
aI2995
aI2412
aI1559
aI1635
aI1610
aI621
aI1458
aI144
aI869
aa(lp1128
I621
aI412
aI967
aI1270
aI145
aI2791
aI1798
aI2086
aI393
aa(lp1129
I1418
aI1588
aI1188
aI576
aI1161
aI1156
aI2290
aI2212
aa(lp1130
I1528
aI3149
aI2290
aI2297
aI157
aI2763
aI1440
aa(lp1131
I2777
aI1156
aI1066
aI638
aI295
aI2290
aI38
aa(lp1132
I1178
aI1983
aI1635
aI2297
aI1528
aI1417
aI2290
aI690
aa(lp1133
I1418
aI1610
aI621
aI1864
aI1505
aI2544
aI1458
aI2098
aI680
aa(lp1134
I1588
aI1039
aI2290
aI940
aI2710
aI956
aI4
aI157
aI1574
aa(lp1135
I1274
aI1343
aI2013
aI398
aI60
aI576
aI621
aI1091
aI1505
aI487
aa(lp1136
I2995
aI2200
aI2129
aI1172
aI1066
aI2851
aI1635
aI157
aI134
aa(lp1137
I1178
aI124
aI1129
aI1411
aI3105
aI2609
aa(lp1138
I621
aI974
aI2841
aI2777
aI182
aI2514
aa(lp1139
I1505
aI2721
aI461
aI468
aI1351
aI35
aI3172
aa(lp1140
I2129
aI2092
aI2951
aI461
aI576
aI2821
aI2951
aI576
aI358
aa(lp1141
I2003
aI608
aI27
aI1798
aI3148
aI1668
aI157
aI2547
aa(lp1142
I1178
aI124
aI2092
aI2755
aI1635
aI370
aI770
aa(lp1143
I2278
aI162
aI2151
aI1505
aI621
aI531
aI296
aa(lp1144
I1178
aI429
aI1023
aI920
aI638
aI1418
aI233
aI2766
aI3033
aa(lp1145
I1680
aI1493
aI416
aI238
aI967
aI1481
aa(lp1146
I2129
aI1264
aI461
aI1172
aI1264
aI1900
aa(lp1147
I576
aI758
aI2949
aI2841
aI2308
aI608
aI251
aI349
aa(lp1148
I1178
aI2721
aI1478
aI2805
aI1845
aI2297
aI219
aI2211
aa(lp1149
I1274
aI2526
aI2768
aI1794
aI576
aI228
aI570
aI569
aI1551
aa(lp1150
I2995
aI83
aI2467
aI1159
aI1588
aI868
aI2805
aI2768
aa(lp1151
I1178
aI124
aI1635
aI1528
aI461
aI792
aI2805
aI2091
aa(lp1152
I2995
aI1876
aI1515
aI2999
aI2995
aI1876
aI1588
aI868
aI3059
aa(lp1153
I1159
aI2032
aI1663
aI1505
aI1798
aI629
aI498
aa(lp1154
I1178
aI124
aI2766
aI2995
aI1938
aI576
aI1528
aI441
aa(lp1155
I1159
aI1588
aI1528
aI1999
aI1417
aI1715
aI2998
aI1845
aI1237
aa(lp1156
I3080
aI180
aI1798
aI360
aI59
aI555
aI1313
aI326
aI1800
aa(lp1157
I1153
aI1505
aI27
aI1680
aI27
aI576
aI1588
aI555
aI1016
aa(lp1158
I2544
aI1024
aI688
aI157
aI2582
aI1588
aI868
aI1556
aa(lp1159
I2777
aI2290
aI2297
aI2013
aI157
aI3139
aI1417
aI2749
aa(lp1160
I688
aI2995
aI960
aI1066
aI188
aI1417
aI2824
aa(lp1161
I1418
aI2482
aI119
aI936
aI545
aI1178
aI2814
aI1798
aI2590
aa(lp1162
I1533
aI2173
aI1735
aI545
aI576
aI235
aI1505
aI1528
aI461
aI1156
aa(lp1163
I1169
aI2124
aI1528
aI3077
aI967
aI576
aI2547
aI3154
aa(lp1164
I2784
aI569
aI570
aI1159
aI877
aI2013
aI2777
aI967
aI1189
aI1735
aa(lp1165
I1169
aI2544
aI424
aI2547
aI1159
aI1588
aI907
aI2098
aI1588
aa(lp1166
I576
aI13
aI1094
aI2355
aI569
aI621
aI1953
aa(lp1167
I2777
aI2827
aI158
aI1274
aI1528
aI2901
aI1967
aa(lp1168
I3072
aI1811
aI2321
aI1159
aI1574
aI555
aI327
aa(lp1169
I1159
aI1635
aI2561
aI468
aI3056
aI1066
aI2278
aI1661
aI3139
aa(lp1170
I2791
aI3134
aI1159
aI2496
aI1505
aI1588
aI578
aI3134
aI967
aI127
aa(lp1171
I1159
aI1588
aI2098
aI1588
aI1023
aI175
aI2561
aI2329
aa(lp1172
I2480
aI2078
aI2791
aI417
aI1680
aI576
aI1588
aI569
aI2598
aa(lp1173
I1066
aI969
aI170
aI1680
aI490
aI3136
aI1023
aI2027
aa(lp1174
I1178
aI2710
aI1798
aI2694
aI2290
aI1379
aI2561
aI2508
aa(lp1175
I969
aI2561
aI1828
aI1894
aI35
aI1274
aa(lp1176
I1588
aI1635
aI1528
aI2061
aI3096
aI3025
aI1798
aI889
aa(lp1177
I1417
aI2043
aI1501
aI2547
aI2777
aI2495
aI1528
aI842
aI170
aa(lp1178
I157
aI1290
aI134
aI576
aI2143
aI2575
aI2690
aI1039
aa(lp1179
I2182
aI691
aI1505
aI1528
aI2547
aI1082
aI2067
aa(lp1180
I404
aI2721
aI337
aI1549
aI106
aI59
aa(lp1181
I1178
aI2892
aI160
aI2308
aI1610
aI621
aI1046
aI2348
aa(lp1182
I2995
aI1125
aI1850
aI605
aI2611
aI3026
aI997
aI1850
aI2841
aa(lp1183
I1178
aI3045
aI3175
aI904
aI1039
aI2082
aI1294
aa(lp1184
I1635
aI35
aI887
aI1159
aI2774
aI439
aI1142
aa(lp1185
I576
aI3103
aI742
aI1505
aI2998
aI726
aI1574
aa(lp1186
I314
aI1588
aI847
aI2995
aI1189
aI1262
aI1023
aI1262
aI758
aa(lp1187
I1178
aI1635
aI621
aI2013
aI1505
aI2547
aI3025
aI2562
aI1735
aa(lp1188
I2791
aI1159
aI569
aI576
aI157
aI2999
aI13
aI920
aI1635
aI1588
aa(lp1189
I385
aI2841
aI1313
aI1260
aI2575
aI2561
aI313
aI218
aa(lp1190
I224
aI2482
aI688
aI621
aI1343
aI1505
aI2841
aI1707
aa(lp1191
I145
aI688
aI157
aI2749
aI605
aI1153
aI576
aI2985
aa(lp1192
I737
aI570
aI621
aI1226
aI1696
aI473
aI1505
aI2561
aI2487
aI1440
aa(lp1193
I722
aI688
aI621
aI42
aI1505
aI1610
aI326
aI2892
aI1588
aa(lp1194
I1159
aI868
aI157
aI2957
aI605
aI576
aI157
aI2849
aI32
aa(lp1195
I969
aI2721
aI2590
aI621
aI1694
aI2205
aI233
aI1967
aa(lp1196
I737
aI570
aI2561
aI439
aI2308
aI2103
aI255
aI1635
aI997
aa(lp1197
I72
aI1798
aI2698
aI1037
aI1159
aI1447
aI145
aI680
aa(lp1198
I792
aI2882
aI3134
aI1069
aI2561
aI643
aI2308
aI671
aa(lp1199
I2466
aI2078
aI565
aI157
aI1440
aI755
aa(lp1200
I3134
aI1069
aI1159
aI1674
aI2838
aI3190
aa(lp1201
I2777
aI2987
aI3012
aI2078
aI1549
aI2722
aa(lp1202
I2951
aI3114
aI1505
aI157
aI1024
aI1265
aI912
aa(lp1203
I2995
aI737
aI1066
aI3174
aI1505
aI1196
aI885
aI2516
aI2900
aa(lp1204
I2791
aI1418
aI1528
aI1310
aI899
aI1278
aI2561
aI2350
aa(lp1205
I224
aI714
aI2995
aI345
aI1159
aI2868
aI362
aa(lp1206
I1084
aI2129
aI2092
aI326
aI682
aI688
aI157
aI2705
aa(lp1207
I1178
aI3045
aI1542
aI2129
aI1914
aI608
aI1722
aa(lp1208
I621
aI49
aI1505
aI608
aI27
aI1154
aI228
aI2938
aa(lp1209
I157
aI2448
aI576
aI228
aI2098
aI1610
aI206
aa(lp1210
I688
aI3080
aI429
aI2995
aI142
aI228
aI2791
aI2308
aI608
aI16
aa(lp1211
I1178
aI688
aI1159
aI2741
aI1274
aI569
aI157
aI350
aa(lp1212
I621
aI2678
aI1505
aI2544
aI461
aI667
aI576
aI145
aI569
aI660
aa(lp1213
I1178
aI1023
aI157
aI584
aI748
aI1578
aI569
aI1329
aa(lp1214
I608
aI1999
aI2129
aI1810
aI608
aI3102
aI27
aI224
aI1066
aI2117
aa(lp1215
I1515
aI145
aI1635
aI2157
aI2129
aI1810
aI570
aI2172
aI286
aa(lp1216
I1023
aI608
aI2487
aI667
aI2984
aI257
aI968
aa(lp1217
I2569
aI3067
aI1578
aI1501
aI219
aI2256
aI969
aa(lp1218
I2961
aI2766
aI2995
aI644
aI228
aI2951
aI1798
aI1812
aI555
aI676
aa(lp1219
I576
aI5
aI1798
aI1965
aI2791
aI2459
aI792
aI2710
aI345
aa(lp1220
I1418
aI2129
aI394
aI2297
aI1534
aI1635
aI2091
aI145
aI2594
aa(lp1221
I1178
aI1120
aI157
aI1239
aI576
aI621
aI1725
aI1505
aI481
aa(lp1222
I2984
aI608
aI249
aI507
aI157
aI1999
aI1664
aI733
aa(lp1223
I1178
aI932
aI228
aI2432
aI385
aI2129
aI2092
aI431
aa(lp1224
I1549
aI362
aI3102
aI265
aI1417
aI467
aI1461
aa(lp1225
I2984
aI608
aI1961
aI2995
aI967
aI2091
aI724
aI1798
aI2329
aa(lp1226
I1505
aI1309
aI2306
aI2205
aI2995
aI1567
aI1766
aa(lp1227
I1159
aI2129
aI576
aI698
aI145
aI394
aI2503
aI536
aI3139
aa(lp1228
I1178
aI2995
aI2308
aI2544
aI2953
aI2297
aI1798
aI3097
aI326
aa(lp1229
I688
aI2044
aI1610
aI157
aI945
aI605
aI1501
aI228
aa(lp1230
I621
aI2239
aI1159
aI1635
aI157
aI1999
aI2995
aI429
aa(lp1231
I2657
aI228
aI1406
aI880
aI145
aa(lp1232
I2710
aI569
aI157
aI920
aI1635
aI228
aI2995
aI1023
aI2203
aa(lp1233
I1159
aI688
aI608
aI674
aI157
aI1999
aI2953
aI2839
aI1610
aI190
aa(lp1234
I1189
aI1159
aI2129
aI3167
aI1304
aI145
aI688
aI2278
aI505
aa(lp1235
I1178
aI2995
aI2953
aI2914
aI2984
aI1159
aI1452
aa(lp1236
I526
aI1505
aI157
aI1746
aI1178
aI2995
aI2179
aI2953
aI2965
aa(lp1237
I507
aI608
aI2140
aI969
aI792
aI1681
aa(lp1238
I2129
aI2273
aI1066
aI920
aI775
aI145
aI1065
aI1023
aI506
aa(lp1239
I1635
aI2091
aI1798
aI742
aI2984
aI2128
aI909
aa(lp1240
I2951
aI1664
aI157
aI1999
aI775
aI2117
aI608
aI2953
aa(lp1241
I2995
aI2953
aI2288
aI215
aI1178
aI2178
aI1841
aa(lp1242
I2297
aI760
aI2516
aI608
aI19
aI1178
aI576
aI157
aI3099
aa(lp1243
I608
aI2141
aI649
aI1072
aI792
aI1735
aI2290
aI327
aa(lp1244
I3005
aI2995
aI326
aI536
aI1362
aI2827
aI429
aI570
aI193
aa(lp1245
I1178
aI706
aI1505
aI2664
aI675
aI2288
aI127
aa(lp1246
I688
aI228
aI507
aI157
aI1999
aI1664
aI2191
aI2818
aa(lp1247
I688
aI2995
aI144
aI64
aI920
aI2078
aI2157
aI2129
aI3018
aI11
aa(lp1248
I224
aI11
aI145
aI1418
aI2129
aI2948
aI578
aI77
aI1067
aa(lp1249
I1067
aI2182
aI621
aI1458
aI569
aI1869
aI157
aI1834
aI1635
aI2969
aa(lp1250
I82
aI1549
aI621
aI419
aI1505
aI1462
aI586
aI145
aI915
aa(lp1251
I1178
aI429
aI1066
aI1075
aI576
aI688
aI1569
aI208
aa(lp1252
I1564
aI429
aI1066
aI1418
aI157
aI973
aI4
aI2149
aI2544
aI2889
aa(lp1253
I1313
aI576
aI621
aI2691
aI1505
aI1798
aI1400
aI2111
aa(lp1254
I936
aI1066
aI1798
aI2419
aI671
aI1798
aI2377
aI2227
aa(lp1255
I1635
aI3093
aI2668
aI1798
aI2564
aI2170
aa(lp1256
I578
aI2129
aI2948
aI871
aI145
aI429
aI1066
aI871
aI145
aI2126
aa(lp1257
I1418
aI3026
aI1544
aI332
aI2766
aI1935
aI2721
aI419
aa(lp1258
I2791
aI576
aI621
aI2000
aI1313
aI1023
aI2290
aI2995
aI1563
aa(lp1259
I2956
aI1127
aI621
aI1645
aI1651
aI1505
aI1279
aI1845
aa(lp1260
I1178
aI3026
aI1383
aI1505
aI2111
aI2777
aI1067
aI369
aI2111
aa(lp1261
I3166
aI1549
aI3043
aI1505
aI228
aI2953
aI1066
aI369
aI1023
aa(lp1262
I2278
aI3139
aI576
aI2721
aI659
aI2278
aI576
aI2721
aI3016
aa(lp1263
I2278
aI576
aI2721
aI931
aI2278
aI576
aI2721
aI2746
aI50
aa(lp1264
I2278
aI576
aI2721
aI1225
aI385
aI1788
aI506
aa(lp1265
I2278
aI576
aI2721
aI323
aI1178
aI1335
aI2278
aI576
aI2721
aI1941
aa(lp1266
I1178
aI35
aI921
aI4
aI2561
aI2776
aI1809
aa(lp1267
I2205
aI570
aI2135
aI1798
aI2888
aI72
aI621
aI1421
aa(lp1268
I2791
aI1364
aI534
aI2098
aI1066
aI157
aI3155
aa(lp1269
I1610
aI1364
aI2995
aI219
aI576
aI235
aI2934
aI467
aa(lp1270
I608
aI920
aI569
aI219
aI1169
aI2559
aI659
aI1635
aI145
aa(lp1271
I2742
aI1169
aI931
aI2723
aI1169
aI2263
aI709
aa(lp1272
I1505
aI1735
aI600
aI1169
aI323
aI1178
aI1736
aI2297
aa(lp1273
I1178
aI2411
aI228
aI1505
aI1610
aI1161
aI25
aI2995
aI912
aa(lp1274
I1737
aI576
aI2544
aI907
aI1159
aI2129
aI1129
aI1204
aa(lp1275
I1610
aI2544
aI472
aI1178
aI145
aI2013
aI2218
aI586
aa(lp1276
I2791
aI429
aI608
aI1651
aI1635
aI455
aI608
aI1999
aI472
aa(lp1277
I688
aI1071
aI1505
aI545
aI2129
aI2092
aI278
aI362
aa(lp1278
I1178
aI545
aI792
aI820
aI1169
aI608
aI920
aI2953
aI3183
aa(lp1279
I688
aI570
aI465
aI2984
aI1159
aI920
aI1505
aI1119
aa(lp1280
I224
aI2768
aI2995
aI1066
aI1635
aI885
aI621
aI1651
aI1505
aI939
aa(lp1281
I1418
aI576
aI621
aI1947
aI1505
aI225
aI157
aI545
aI4
aI1013
aa(lp1282
I2995
aI2096
aI1798
aI219
aI2879
aI1635
aI145
aI648
aa(lp1283
I1169
aI1159
aI2777
aI1501
aI608
aI921
aI555
aI1705
aa(lp1284
I2129
aI2273
aI1066
aI845
aI145
aI1549
aI3060
aI361
aa(lp1285
I1892
aI1159
aI157
aI545
aI1501
aI608
aI195
aI555
aI2212
aa(lp1286
I708
aI1680
aI1798
aI739
aI1249
aI429
aI2995
aI2049
aa(lp1287
I739
aI1635
aI2766
aI608
aI920
aI739
aI1635
aI869
aa(lp1288
I2791
aI3177
aI1023
aI110
aI1159
aI2382
aI792
aI1432
aa(lp1289
I2129
aI1129
aI2297
aI2757
aI1178
aI638
aI2995
aI3039
aI570
aI1066
aa(lp1290
I1023
aI2290
aI2995
aI940
aI601
aI2129
aI2092
aI758
aa(lp1291
I3045
aI1798
aI281
aI1275
aI1023
aI946
aI786
aa(lp1292
I1007
aI1039
aI369
aI920
aI1635
aI145
aI385
aI683
aI75
aa(lp1293
I608
aI2615
aI1549
aI145
aI608
aI973
aI576
aI3026
aI1120
aa(lp1294
I688
aI1533
aI967
aI940
aI792
aI2315
aI576
aI1119
aI1725
aa(lp1295
I124
aI576
aI1159
aI2995
aI1265
aI3039
aI608
aI909
aa(lp1296
I576
aI2815
aI2615
aI621
aI2757
aI1786
aI1763
aa(lp1297
I569
aI2598
aI576
aI2577
aI1178
aI2676
aI1178
aI2312
aI1841
aa(lp1298
I2791
aI1657
aI576
aI608
aI2277
aI868
aI264
aa(lp1299
I1159
aI576
aI608
aI786
aI2141
aI920
aI2827
aI77
aI327
aa(lp1300
I2927
aI608
aI605
aI1515
aI608
aI1786
aI3061
aI2297
aa(lp1301
I608
aI2615
aI2827
aI2017
aI2900
aI2791
aI610
aI127
aa(lp1302
I3080
aI3045
aI2450
aI2500
aI555
aI608
aI188
aI1016
aa(lp1303
I578
aI608
aI2141
aI956
aI183
aI1066
aI608
aI1237
aa(lp1304
I233
aI1159
aI2766
aI1490
aI1635
aI1163
aI1178
aI2953
aI429
aI1756
aa(lp1305
I1159
aI429
aI1066
aI429
aI621
aI1118
aI233
aI2013
aI429
aI1237
aa(lp1306
I2784
aI2216
aI2482
aI2098
aI2522
aI2951
aI1502
aa(lp1307
I2941
aI1038
aI1178
aI1635
aI470
aI1245
aa(lp1308
I233
aI3152
aI429
aI613
aI3069
aI46
aa(lp1309
I1178
aI1275
aI1886
aI2741
aI2516
aI512
aa(lp1310
I2114
aI2098
aI621
aI2359
aI1178
aI1916
aI1505
aI2721
aI510
aa(lp1311
I2482
aI2791
aI1901
aI1505
aI2721
aI872
aa(lp1312
I621
aI1438
aI1593
aI569
aI1635
aI621
aI1415
aI2141
aa(lp1313
I385
aI1635
aI570
aI1999
aI570
aI937
aI940
aI1178
aI869
aa(lp1314
I2791
aI578
aI1159
aI1593
aI1549
aI1909
aI2535
aI2549
aa(lp1315
I621
aI1455
aI1397
aI2860
aI2561
aI656
aa(lp1316
I688
aI17
aI585
aI2769
aI1234
aI2308
aI2721
aI1834
aa(lp1317
I761
aI1159
aI2915
aI802
aI180
aI170
aI1169
aI1861
aa(lp1318
I3080
aI2141
aI1178
aI541
aI3018
aI2129
aI586
aI621
aI572
aa(lp1319
I2777
aI3045
aI1798
aI2586
aI576
aI621
aI2703
aI1436
aa(lp1320
I555
aI1009
aI621
aI188
aI1505
aI608
aI118
aI1072
aa(lp1321
I708
aI576
aI1680
aI2635
aI3018
aI2129
aI608
aI2476
aI2614
aa(lp1322
I1159
aI3099
aI1159
aI371
aI621
aI2329
aI1505
aI608
aI296
aa(lp1323
I969
aI2962
aI691
aI1501
aI608
aI1198
aa(lp1324
I1265
aI2602
aI2791
aI576
aI1798
aI1966
aI1505
aI2547
aa(lp1325
I3162
aI608
aI1072
aI1527
aI1569
aI506
aI441
aa(lp1326
I708
aI1680
aI1798
aI8
aI2766
aI1359
aI640
aI274
aa(lp1327
I2777
aI688
aI2721
aI1136
aI2474
aI2668
aI228
aa(lp1328
I1274
aI780
aI3115
aI555
aI2029
aI35
aI1432
aa(lp1329
I1178
aI1610
aI585
aI1875
aI1635
aI461
aI1159
aI1156
aI967
aI2096
aa(lp1330
I1204
aI3051
aI682
aI973
aI1505
aI2544
aI263
aI539
aa(lp1331
I621
aI965
aI1487
aI1138
aI555
aI3052
aI2561
aI2229
aa(lp1332
I2278
aI1189
aI608
aI505
aI569
aI1975
aI2278
aI293
aa(lp1333
I2278
aI1189
aI608
aI1964
aI569
aI1975
aI1178
aI2763
aI1198
aa(lp1334
I2124
aI1964
aI1178
aI1309
aI2098
aI2737
aI1505
aI1735
aI1178
aI2057
aa(lp1335
I2129
aI985
aI1309
aI46
aI1159
aI1635
aI228
aI1839
aa(lp1336
I2951
aI1501
aI621
aI479
aI1505
aI1798
aI1408
aI2434
aa(lp1337
I621
aI1455
aI3196
aI2953
aI2297
aI2998
aI2207
aa(lp1338
I1023
aI2098
aI1359
aI390
aI1159
aI576
aI228
aI2098
aI2194
aa(lp1339
I1635
aI1871
aI2270
aI1178
aI688
aI758
aI585
aI79
aa(lp1340
I3080
aI1316
aI2963
aI1845
aI621
aI113
aI1510
aI2060
aa(lp1341
I578
aI3045
aI1798
aI2568
aI3134
aI2692
aI2561
aI2615
aI2337
aa(lp1342
I3080
aI1316
aI1679
aI2580
aI2129
aI3070
aI472
aa(lp1343
I578
aI2129
aI203
aI2514
aI621
aI374
aI1505
aI1610
aI608
aI2879
aa(lp1344
I2791
aI429
aI1066
aI1023
aI2995
aI920
aI228
aI576
aI2710
aI2366
aa(lp1345
I2951
aI2129
aI1417
aI362
aI362
aI569
aI608
aI1850
aI441
aa(lp1346
I3080
aI3045
aI1798
aI990
aI4
aI157
aI1840
aI533
aa(lp1347
I2516
aI228
aI621
aI1809
aI1505
aI621
aI3160
aI1086
aa(lp1348
I1680
aI2975
aI2766
aI2995
aI711
aI1680
aI602
aI296
aI2194
aa(lp1349
I1680
aI675
aI2988
aI1423
aI955
aa(lp1350
I1178
aI638
aI2544
aI1591
aI757
aI737
aI1438
aI1591
aa(lp1351
I621
aI1836
aI1976
aI2253
aI1549
aI424
aI1028
aa(lp1352
I3151
aI621
aI1630
aI2812
aI1505
aI621
aI1268
aa(lp1353
I3045
aI1517
aI2275
aI189
aI2721
aI588
aI3058
aa(lp1354
I638
aI2544
aI839
aI1899
aI2423
aI1635
aI145
aa(lp1355
I2791
aI2833
aI1505
aI1078
aI1178
aI768
aI1398
aa(lp1356
I688
aI1415
aI1178
aI2561
aI2081
aI2160
aI1501
aI228
aa(lp1357
I1178
aI2129
aI472
aI621
aI1645
aI1040
aI2098
aI2824
aa(lp1358
I1515
aI578
aI233
aI2484
aI1262
aI1549
aI1023
aI2351
aI1798
aI2228
aa(lp1359
I1159
aI97
aI2178
aI2285
aI1937
aI621
aI231
aI563
aa(lp1360
I2516
aI1588
aI2766
aI2995
aI533
aI760
aI576
aI621
aI2276
aa(lp1361
I1418
aI1879
aI2903
aI3168
aI576
aI1610
aI2561
aI774
aa(lp1362
I4
aI1911
aI1798
aI439
aI1505
aI1975
aI576
aI35
aI1118
aa(lp1363
I1159
aI1877
aI442
aI380
aI1178
aI155
aI1549
aI2078
aa(lp1364
I638
aI1069
aI621
aI1305
aI1505
aI1040
aI1069
aI621
aI2141
aI802
aa(lp1365
I1505
aI1380
aI1168
aI576
aI2188
aI1178
aI576
aI358
aa(lp1366
I2692
aI586
aI145
aI1196
aI1438
aI2329
aI127
aa(lp1367
I1515
aI2516
aI2721
aI1226
aI192
aI1307
aI225
aI1274
aI233
aI1967
aa(lp1368
I1069
aI868
aI2995
aI1288
aI2956
aI621
aI2750
aI1151
aa(lp1369
I1069
aI2547
aI621
aI1568
aI540
aI576
aI621
aI1436
aa(lp1370
I233
aI1176
aI2791
aI2141
aI2791
aI1389
aI1505
aI600
aa(lp1371
I482
aI189
aI1588
aI1588
aI2875
aI1505
aI1610
aI1359
aa(lp1372
I638
aI2423
aI570
aI990
aI1039
aI1178
aI1588
aI472
aa(lp1373
I2951
aI1549
aI1528
aI661
aI2995
aI1549
aI1364
aI868
aI2279
aa(lp1374
I1274
aI2092
aI2129
aI134
aI1159
aI2129
aI2758
aI1023
aI1134
aa(lp1375
I1635
aI526
aI1505
aI1159
aI2777
aI1154
aI228
aI1610
aI608
aI1845
aa(lp1376
I2402
aI2129
aI608
aI777
aI1501
aI2278
aI2146
aI1644
aa(lp1377
I2566
aI608
aI1490
aI1635
aI1481
aI1909
aI379
aI2594
aa(lp1378
I1378
aI746
aI134
aI1178
aI2179
aI2257
aa(lp1379
I576
aI2763
aI1773
aI1591
aI1023
aI344
aI363
aa(lp1380
I2484
aI1635
aI621
aI3131
aI1159
aI555
aI608
aI1305
aI3108
aa(lp1381
I1178
aI1154
aI608
aI1574
aI2124
aI3016
aI1178
aI1185
aa(lp1382
I2394
aI94
aI134
aI157
aI946
aI2141
aI786
aI2492
aa(lp1383
I578
aI1591
aI2766
aI1196
aI2397
aI1749
aI1533
aa(lp1384
I578
aI1196
aI2297
aI1798
aI2154
aI1635
aI2625
aa(lp1385
I1178
aI586
aI2787
aI1743
aI730
aI955
aa(lp1386
I936
aI157
aI920
aI1379
aI1626
aI1169
aI1591
aI2020
aI545
aa(lp1387
I1023
aI2129
aI970
aI2561
aI2478
aI1178
aI1292
aI1487
aa(lp1388
I708
aI259
aI134
aI1680
aI2290
aI2297
aI608
aI3000
aa(lp1389
I688
aI608
aI2603
aI1505
aI2651
aI576
aI188
aI1603
aa(lp1390
I2124
aI2651
aI1178
aI188
aI1501
aI157
aI920
aI465
aa(lp1391
I1023
aI3018
aI2129
aI326
aI1178
aI3057
aI185
aa(lp1392
I586
aI183
aI134
aI2948
aI2129
aI1066
aI706
aI1189
aa(lp1393
I1391
aI1778
aI792
aI2997
aI1549
aI2561
aI2997
aI2855
aa(lp1394
I188
aI792
aI2528
aI780
aI2651
aI1635
aI191
aa(lp1395
I2791
aI467
aI569
aI467
aI578
aI83
aI2184
aa(lp1396
I2325
aI3134
aI1778
aI792
aI2547
aI2948
aI2129
aI2297
aI2749
aa(lp1397
I1745
aI1066
aI1024
aI1023
aI764
aI725
aI576
aI228
aa(lp1398
I1635
aI586
aI2078
aI536
aI2806
aI1798
aI2052
aI2590
aa(lp1399
I1178
aI1635
aI2297
aI847
aI1505
aI1985
aI638
aI1635
aI2297
aa(lp1400
I224
aI429
aI608
aI209
aI134
aI2995
aI1912
aI228
aI3080
aa(lp1401
I1635
aI586
aI2078
aI369
aI1134
aI2699
aI2951
aI3134
aI1101
aI1067
aa(lp1402
I157
aI920
aI569
aI2857
aI385
aI1735
aI491
aI576
aI1926
aa(lp1403
I2995
aI920
aI1066
aI2057
aI385
aI2057
aI621
aI1237
aI890
aa(lp1404
I1159
aI920
aI569
aI80
aI13
aI424
aI453
aa(lp1405
I621
aI2639
aI3099
aI555
aI1893
aI35
aI1274
aa(lp1406
I2664
aI920
aI737
aI75
aI1178
aI224
aI2791
aI576
aI621
aI2276
aa(lp1407
I1418
aI2995
aI737
aI1070
aI1635
aI196
aI570
aI1549
aI157
aI1305
aa(lp1408
I2951
aI2823
aI576
aI1438
aI2638
aI555
aI2484
aa(lp1409
I1178
aI1482
aI2690
aI2803
aI576
aI3066
aI1505
aI2954
aI296
aa(lp1410
I1066
aI1159
aI621
aI1415
aI569
aI2057
aI1907
aI1067
aa(lp1411
I1169
aI1418
aI2690
aI2175
aI1087
aI868
aI3065
aI621
aI671
aa(lp1412
I2791
aI1159
aI405
aI123
aI2488
aI35
aI2772
aa(lp1413
I1178
aI2635
aI579
aI2086
aI3052
aI2721
aI682
aI600
aa(lp1414
I124
aI3045
aI2690
aI2995
aI783
aI142
aI157
aI3099
aa(lp1415
I2325
aI2995
aI119
aI1066
aI2351
aI1588
aI1549
aI157
aI1644
aa(lp1416
I202
aI1680
aI2132
aI157
aI134
aI133
aI276
aa(lp1417
I1159
aI2411
aI2710
aI1798
aI944
aI1635
aI1237
aI2690
aI25
aa(lp1418
I621
aI1185
aI1610
aI2097
aI569
aI1505
aI1735
aI27
aa(lp1419
I1169
aI1418
aI570
aI4
aI157
aI2282
aI2547
aI589
aa(lp1420
I708
aI1308
aI145
aI1066
aI578
aI2995
aI792
aI1735
aI967
aI997
aa(lp1421
I2178
aI576
aI1528
aI137
aI1178
aI1533
aI908
aI1798
aI786
aa(lp1422
I1159
aI1755
aI157
aI1207
aI1670
aI1106
aa(lp1423
I389
aI157
aI2596
aI1178
aI2657
aI145
aI775
aa(lp1424
I1176
aI570
aI1066
aI778
aI224
aI143
aI1635
aI426
aa(lp1425
I1635
aI1004
aI621
aI468
aI1159
aI218
aI737
aI2998
aa(lp1426
I688
aI1635
aI792
aI3026
aI1672
aI157
aI632
aI2878
aa(lp1427
I1169
aI1505
aI1528
aI46
aI1178
aI1528
aI1592
aI1635
aI127
aa(lp1428
I1178
aI1735
aI536
aI1735
aI1169
aI576
aI157
aI1440
aI967
aI2573
aa(lp1429
I1528
aI3102
aI137
aI1101
aI1588
aI1418
aI1588
aI2178
aI576
aI570
aa(lp1430
I1635
aI145
aI461
aI349
aI1588
aI83
aI967
aI2297
aI675
aa(lp1431
I688
aI2951
aI1588
aI1176
aI1418
aI1127
aI1528
aI1725
aI2995
aI1165
aa(lp1432
I2710
aI1437
aI1528
aI188
aI1039
aI532
aI1224
aI1038
aa(lp1433
I2766
aI2516
aI621
aI3170
aI917
aI532
aI1439
aI25
aa(lp1434
I532
aI2061
aI522
aI1635
aI2
aI1976
aI1184
aa(lp1435
I576
aI2558
aI1505
aI621
aI2018
aI2766
aI2995
aI2194
aa(lp1436
I532
aI2903
aI1190
aI576
aI532
aI181
aI122
aI873
aa(lp1437
I1892
aI1127
aI2995
aI2467
aI1588
aI2409
aI2777
aI638
aI2098
aI1206
aa(lp1438
I1564
aI638
aI555
aI188
aI3045
aI1798
aI387
aI599
aa(lp1439
I455
aI2516
aI2561
aI977
aI1178
aI792
aI2181
aI865
aa(lp1440
I1023
aI1528
aI2141
aI358
aI2777
aI3184
aI1039
aI555
aI1511
aa(lp1441
I4
aI1117
aI1178
aI362
aI1725
aI1007
aI2297
aI281
aa(lp1442
I688
aI885
aI1505
aI2777
aI752
aI2544
aI2129
aI2404
aI2030
aa(lp1443
I154
aI1588
aI1176
aI681
aI737
aI780
aI1415
aI680
aa(lp1444
I2480
aI1066
aI157
aI920
aI2297
aI2363
aI838
aa(lp1445
I1069
aI157
aI649
aI2951
aI1569
aI543
aI1237
aa(lp1446
I1892
aI1610
aI1989
aI157
aI828
aI1178
aI842
aI2297
aa(lp1447
I1635
aI235
aI1505
aI235
aI1039
aI2710
aI1178
aI77
aI1023
aa(lp1448
I1966
aI569
aI157
aI920
aI819
aI573
aI1966
aa(lp1449
I1039
aI2367
aI576
aI1798
aI28
aI872
aa(lp1450
I124
aI157
aI1440
aI1635
aI395
aI1457
aa(lp1451
I235
aI1118
aI1485
aI97
aI2668
aI1655
aa(lp1452
I461
aI1966
aI1178
aI758
aI569
aI1610
aI157
aI1185
aa(lp1453
I461
aI1966
aI1178
aI758
aI830
aI1635
aI3026
aI2841
aa(lp1454
I1178
aI576
aI2544
aI909
aI569
aI157
aI1670
aI363
aa(lp1455
I532
aI2629
aI576
aI235
aI2777
aI28
aI944
aI1142
aa(lp1456
I461
aI1966
aI1178
aI758
aI2766
aI2274
aI2164
aI907
aa(lp1457
I2777
aI532
aI998
aI1067
aI83
aI607
aI2720
aI576
aI235
aa(lp1458
I1418
aI576
aI621
aI2023
aI1505
aI2046
aI1591
aa(lp1459
I2995
aI2096
aI2752
aI1505
aI621
aI2726
aI179
aa(lp1460
I1178
aI188
aI969
aI1764
aI675
aI2440
aa(lp1461
I576
aI2547
aI1505
aI1390
aI680
aI1178
aI541
aI352
aa(lp1462
I224
aI576
aI621
aI1158
aI1505
aI2141
aI780
aI467
aa(lp1463
I1505
aI599
aI1505
aI1862
aI1505
aI2002
aI1505
aI1725
aI1505
aI1374
aa(lp1464
I2995
aI2096
aI2721
aI673
aI1574
aI119
aI2766
aI2468
aa(lp1465
I60
aI2710
aI1798
aI188
aI2951
aI1588
aI325
aI1067
aa(lp1466
I1023
aI1610
aI2721
aI842
aI2098
aI2791
aI3127
aa(lp1467
I1505
aI2544
aI2664
aI1591
aI1610
aI1588
aI2732
aa(lp1468
I1178
aI688
aI233
aI790
aI2791
aI1549
aI696
aI1156
aa(lp1469
I233
aI644
aI1066
aI3016
aI1542
aI1528
aI27
aI1635
aI2484
aa(lp1470
I688
aI486
aI2777
aI1067
aI3176
aI1364
aI1636
aI296
aa(lp1471
I2766
aI1156
aI1635
aI1288
aI2791
aI1615
aI1983
aI1635
aI2547
aa(lp1472
I1066
aI362
aI3102
aI2382
aI1069
aI621
aI3121
aI963
aa(lp1473
I1505
aI621
aI1171
aI1458
aI1526
aI1501
aI585
aI1635
aI1313
aa(lp1474
I967
aI638
aI621
aI1954
aI1505
aI157
aI758
aI920
aI2553
aa(lp1475
I1979
aI2951
aI1033
aI1635
aI1798
aI1457
aI1751
aa(lp1476
I621
aI2698
aI1483
aI4
aI2690
aI151
aI1371
aa(lp1477
I1178
aI621
aI1187
aI2085
aI2387
aI2721
aI3102
aI1302
aa(lp1478
I1585
aI1067
aI744
aI2522
aI278
aa(lp1479
I1178
aI2381
aI464
aI1494
aI1505
aI2846
aI2404
aa(lp1480
I1067
aI1549
aI621
aI2550
aI1505
aI2544
aI2013
aI2292
aI1591
aa(lp1481
I157
aI920
aI2615
aI2409
aI1178
aI2122
aI1635
aI145
aI1344
aa(lp1482
I1892
aI419
aI1505
aI2078
aI1664
aI940
aI576
aI2544
aI1590
aI2440
aa(lp1483
I2182
aI3134
aI3086
aI2740
aI2351
aI1178
aI1857
aI2271
aa(lp1484
I1178
aI2129
aI576
aI2544
aI394
aI2049
aI608
aI3149
aa(lp1485
I1418
aI1382
aI1676
aI1178
aI2416
aI1505
aI1595
aI2098
aI363
aa(lp1486
I3177
aI576
aI621
aI2849
aI1159
aI3159
aI1007
aI337
aa(lp1487
I2777
aI4
aI1066
aI2896
aI1635
aI228
aI157
aI758
aI439
aa(lp1488
I3177
aI75
aI1635
aI526
aI1680
aI1067
aI1635
aI1803
aa(lp1489
I1159
aI1007
aI2068
aI157
aI920
aI1515
aI608
aI682
aI1239
aa(lp1490
I2017
aI2141
aI911
aI2791
aI638
aI3045
aI1286
aI1476
aa(lp1491
I2995
aI144
aI245
aI2642
aI1189
aI2740
aI621
aI1645
aI1385
aa(lp1492
I2570
aI792
aI675
aI1118
aI675
aI2129
aI362
aI2995
aI1119
aa(lp1493
I60
aI2951
aI1418
aI1127
aI2995
aI1948
aI608
aI461
aI1072
aa(lp1494
I1023
aI1159
aI282
aI920
aI576
aI946
aI2409
aI1360
aa(lp1495
I1878
aI1066
aI621
aI2989
aI1178
aI1734
aI1505
aI2404
aa(lp1496
I1069
aI1154
aI1635
aI2261
aI2312
aI1120
aa(lp1497
I2791
aI2495
aI1931
aI688
aI2913
aI2561
aI3055
aa(lp1498
I2003
aI621
aI1127
aI2489
aI1505
aI920
aI1533
aI2799
aa(lp1499
I1274
aI1591
aI1178
aI2102
aI742
aI119
aI1237
aI570
aI680
aa(lp1500
I708
aI83
aI1189
aI1159
aI2995
aI737
aI2757
aI1505
aI973
aa(lp1501
I385
aI1840
aI2423
aI157
aI348
aI1635
aI1908
aa(lp1502
I2951
aI547
aI1845
aI2995
aI2516
aI157
aI1999
aI1717
aa(lp1503
I2951
aI2516
aI157
aI963
aI2777
aI576
aI608
aI2073
aI555
aI2212
aa(lp1504
I1159
aI569
aI157
aI3067
aI1505
aI920
aI578
aI2995
aI2766
aI1697
aa(lp1505
I3045
aI2078
aI1159
aI1889
aI2995
aI1378
aI1578
aa(lp1506
I626
aI1635
aI621
aI1591
aI1066
aI1549
aI621
aI1591
aI447
aa(lp1507
I1023
aI1159
aI157
aI1999
aI2814
aI905
aI688
aI157
aI1258
aa(lp1508
I83
aI1963
aI385
aI576
aI157
aI490
aI2711
aa(lp1509
I1610
aI2621
aI1159
aI2392
aI1610
aI2911
aI1505
aI1794
aa(lp1510
I1159
aI570
aI2692
aI1023
aI2829
aI2297
aI919
aa(lp1511
I1635
aI871
aI688
aI2017
aI1610
aI608
aI1686
aI1505
aI1850
aa(lp1512
I688
aI2017
aI2544
aI1171
aI2307
aI2995
aI736
aa(lp1513
I653
aI2129
aI157
aI1436
aI576
aI570
aI2129
aI2092
aI157
aI1610
aa(lp1514
I1164
aI1262
aI758
aI2995
aI2766
aI1559
aI84
aI1178
aI1533
aa(lp1515
I1178
aI3136
aI157
aI1999
aI1798
aI109
aI1635
aI621
aI2856
aa(lp1516
I437
aI362
aI3102
aI605
aI2119
aI1238
aI1680
aI569
aI2013
aI682
aa(lp1517
I3136
aI675
aI2014
aI1505
aI2641
aI75
aa(lp1518
I2013
aI758
aI570
aI569
aI1159
aI2995
aI2766
aI790
aI1501
aI2651
aa(lp1519
I351
aI1178
aI729
aI2791
aI2308
aI1610
aI72
aa(lp1520
I1364
aI430
aI654
aI157
aI973
aI317
aI1975
aa(lp1521
I1178
aI170
aI1951
aI1334
aI228
aI157
aI467
aI1505
aI920
aa(lp1522
I1067
aI1610
aI569
aI1935
aI2766
aI1680
aI2290
aI2766
aI792
aI1013
aa(lp1523
I362
aI9
aI2995
aI83
aI1735
aI2953
aI2226
aa(lp1524
I1501
aI2347
aI2494
aI1635
aI2449
aI1569
aI2221
aI349
aa(lp1525
I1798
aI267
aI576
aI920
aI1635
aI2157
aI2995
aI1567
aI1457
aa(lp1526
I224
aI936
aI145
aI809
aI2519
aI157
aI1657
aI621
aI467
aa(lp1527
I60
aI1635
aI608
aI1921
aI1178
aI2013
aI2013
aI945
aI2073
aa(lp1528
I708
aI688
aI157
aI933
aI429
aI1588
aI1549
aI1462
aI2333
aa(lp1529
I621
aI73
aI502
aI1505
aI157
aI2788
aI1834
aa(lp1530
I1159
aI868
aI1066
aI219
aI688
aI157
aI545
aI174
aa(lp1531
I1169
aI1693
aI2837
aI2777
aI1693
aI2143
aI972
aa(lp1532
I2900
aI2569
aI570
aI1159
aI157
aI1072
aI509
aI1798
aI3123
aa(lp1533
I1178
aI2959
aI2900
aI157
aI490
aI569
aI1503
aa(lp1534
I1635
aI1680
aI570
aI3054
aI576
aI3045
aI621
aI1545
aI599
aa(lp1535
I500
aI145
aI224
aI1178
aI3141
aI2995
aI1176
aI406
aa(lp1536
I2611
aI3045
aI1798
aI2630
aI884
aI2995
aI2953
aI2983
aa(lp1537
I303
aI1505
aI2034
aI1621
aI157
aI1706
aI2535
aa(lp1538
I792
aI343
aI1159
aI2995
aI2953
aI328
aI1125
aa(lp1539
I1069
aI1970
aI458
aI1635
aI1100
aI1182
aa(lp1540
I500
aI145
aI224
aI682
aI349
aI1178
aI2995
aI55
aI1855
aa(lp1541
I60
aI1159
aI1528
aI500
aI569
aI1542
aI1635
aI622
aI145
aa(lp1542
I1528
aI920
aI1178
aI500
aI555
aI591
aI2808
aI1577
aa(lp1543
I2777
aI2719
aI2510
aI2605
aI2984
aI157
aI1374
aa(lp1544
I688
aI1680
aI1110
aI2995
aI2784
aI1600
aI145
aI2998
aI1515
aI506
aa(lp1545
I1023
aI1588
aI1497
aI157
aI2675
aI157
aI1850
aI2599
aa(lp1546
I1588
aI2098
aI157
aI1610
aI621
aI1458
aI1178
aI2995
aI144
aI2644
aa(lp1547
I1635
aI3039
aI157
aI2981
aI1178
aI842
aI2516
aI1528
aI3099
aa(lp1548
I1756
aI2172
aI1635
aI145
aI1069
aI2995
aI1635
aI1756
aI3063
aa(lp1549
I1159
aI157
aI399
aI979
aI1515
aI2867
aI674
aI1515
aI190
aa(lp1550
I576
aI1023
aI2645
aI1589
aI2995
aI1443
aI1610
aI1110
aa(lp1551
I1505
aI655
aI930
aI1159
aI157
aI1784
aI979
aa(lp1552
I1635
aI982
aI1178
aI1635
aI1221
aI1874
aI2098
aa(lp1553
I1342
aI3080
aI1549
aI157
aI2603
aI2995
aI429
aI30
aa(lp1554
I1588
aI2098
aI1023
aI1558
aI576
aI157
aI2217
aI2799
aa(lp1555
I1159
aI1610
aI621
aI1458
aI1758
aI3184
aI2098
aI680
aa(lp1556
I1892
aI2995
aI624
aI1588
aI362
aI1725
aI569
aI576
aI157
aI361
aa(lp1557
I1178
aI1159
aI2777
aI2341
aI145
aI1635
aI2421
aI3089
aa(lp1558
I555
aI1961
aI2561
aI3120
aI1178
aI569
aI2165
aI1128
aa(lp1559
I1437
aI816
aI2791
aI92
aI569
aI2668
aa(lp1560
I688
aI570
aI792
aI742
aI3130
aI1635
aI621
aI973
aa(lp1561
I1505
aI2471
aI1505
aI1593
aI1515
aI2237
aI2777
aI570
aI555
aI773
aa(lp1562
I1505
aI2561
aI874
aI2479
aI4
aI621
aI361
aI792
aI1961
aa(lp1563
I1069
aI2561
aI3102
aI2059
aI2575
aI1680
aI570
aI555
aI554
aa(lp1564
I688
aI578
aI570
aI2096
aI621
aI194
aI1515
aI2109
aI2283
aa(lp1565
I621
aI2013
aI2141
aI893
aI1515
aI2417
aI1789
aa(lp1566
I621
aI1995
aI1515
aI621
aI2099
aI621
aI2642
aI1515
aI671
aa(lp1567
I621
aI2456
aI1515
aI2718
aI570
aI2269
aI225
aI1635
aI1528
aI178
aa(lp1568
I618
aI1505
aI1735
aI1797
aI1549
aI1588
aa(lp1569
I157
aI2013
aI758
aI361
aI2961
aI633
aI362
aI2859
aa(lp1570
I1515
aI3140
aI555
aI157
aI361
aI1417
aI290
aI1549
aI1588
aa(lp1571
I2983
aI1278
aI621
aI1276
aI3128
aI2544
aI2053
aa(lp1572
I1515
aI3140
aI2290
aI2995
aI1189
aI362
aI1725
aI329
aI758
aa(lp1573
I1178
aI1159
aI1528
aI920
aI255
aI570
aI2544
aI647
aa(lp1574
I1635
aI586
aI1505
aI1796
aI1178
aI585
aI886
aa(lp1575
I2710
aI1727
aI2951
aI1528
aI2141
aI1999
aI1801
aa(lp1576
I2118
aI35
aI2675
aI1798
aI2619
aI467
aa(lp1577
I2951
aI1531
aI2951
aI2479
aI1635
aI2561
aI2579
aI1498
aa(lp1578
I708
aI1262
aI621
aI1127
aI1262
aI2053
aI576
aI157
aI816
aa(lp1579
I1178
aI157
aI2487
aI361
aI2013
aI1852
aI2004
aI570
aI1278
aa(lp1580
I362
aI1725
aI2998
aI1739
aI1680
aI1549
aI2561
aI2850
aI569
aI312
aa(lp1581
I1178
aI1635
aI2561
aI1223
aI555
aI1532
aI621
aI2244
aa(lp1582
I578
aI570
aI2297
aI2088
aI1262
aI621
aI561
aI2582
aa(lp1583
I1159
aI362
aI1725
aI2747
aI570
aI1178
aI555
aI1127
aI1210
aa(lp1584
I1359
aI2596
aI1159
aI2995
aI218
aI2766
aI2598
aI429
aI2212
aa(lp1585
I60
aI1359
aI1159
aI469
aI2995
aI2692
aI1066
aI920
aI1588
aI642
aa(lp1586
I638
aI224
aI157
aI2990
aI1215
aI792
aI1711
aI2794
aa(lp1587
I157
aI2013
aI1696
aI348
aI2827
aI1430
aI695
aI1216
aa(lp1588
I2791
aI3019
aI1591
aI13
aI324
aI3202
aa(lp1589
I686
aI576
aI2167
aI2876
aI1178
aI909
aI2463
aI1505
aI1474
aa(lp1590
I3189
aI1787
aI188
aI1207
aI621
aI2328
aI1560
aa(lp1591
I2778
aI1706
aI2902
aI1635
aI621
aI1036
aI1505
aI2455
aI585
aa(lp1592
I1164
aI2794
aI878
aI1505
aI2787
aI2932
aa(lp1593
I1845
aI2995
aI1066
aI224
aI1189
aI2437
aI2995
aI920
aI1588
aI467
aI2670
aa(lp1594
I1418
aI2995
aI737
aI2928
aI2740
aI538
aa(lp1595
I310
aI621
aI1636
aI2836
aI1505
aI621
aI1421
aa(lp1596
I920
aI569
aI1798
aI2529
aI224
aI1845
aI2995
aI1066
aI1189
aI1023
aa(lp1597
I1635
aI936
aI1696
aI3066
aI1635
aI1159
aI2777
aI1039
aI555
aI1016
aa(lp1598
I2480
aI145
aI1066
aI1635
aI621
aI2831
aI1505
aI758
aI2902
aa(lp1599
I2904
aI2380
aI920
aI569
aI1066
aI920
aa(lp1600
I2777
aI2123
aI1418
aI570
aI2660
aI2135
aa(lp1601
I1515
aI1880
aI1549
aI621
aI1218
aI1635
aI2084
aa(lp1602
I708
aI792
aI570
aI569
aI1569
aI1582
aI1342
aa(lp1603
I1159
aI2615
aI1501
aI499
aI1178
aI569
aI83
aI702
aa(lp1604
I570
aI569
aI621
aI3180
aI1635
aI35
aI1587
aI2101
aa(lp1605
I13
aI2589
aI301
aI3082
aI2561
aI519
aI2297
aI1733
aa(lp1606
I946
aI1066
aI2787
aI1372
aI385
aI2162
aI2281
aI1178
aI2526
aa(lp1607
I2321
aI2561
aI2044
aI2574
aI2074
aI1313
aa(lp1608
I920
aI2123
aI1066
aI1549
aI2561
aI1687
aI1701
aI1178
aI1640
aa(lp1609
I2791
aI298
aI570
aI2668
aI60
aI1635
aI621
aI2229
aI1505
aI1751
aa(lp1610
I578
aI2544
aI2297
aI2872
aI1178
aI2984
aI145
aI1334
aa(lp1611
I2995
aI83
aI2598
aI1069
aI792
aI1017
aI77
aI2737
aa(lp1612
I2444
aI145
aI2961
aI1159
aI2995
aI2766
aI2443
aI1610
aa(lp1613
I2205
aI2995
aI2827
aI1528
aI2487
aI2055
aI1604
aa(lp1614
I256
aI2984
aI1528
aI2613
aI920
aI1635
aI736
aa(lp1615
I2334
aI1610
aI2448
aI429
aI800
aI145
aI2642
aI2308
aI2642
aa(lp1616
I1159
aI2995
aI2766
aI1126
aI533
aI1549
aI301
aI2902
aa(lp1617
I1178
aI283
aI1635
aI1591
aI1528
aI3102
aI1407
aI674
aa(lp1618
I1159
aI2995
aI2766
aI3122
aI473
aI1635
aI1610
aI621
aI1669
aa(lp1619
I2777
aI2827
aI3068
aI145
aI2861
aI2516
aI1528
aI2283
aa(lp1620
I3172
aI2124
aI157
aI2413
aI1178
aI390
aI724
aa(lp1621
I1178
aI1501
aI626
aI2494
aI2376
aI2222
aa(lp1622
I2814
aI145
aI2321
aI621
aI867
aI1505
aI1528
aI1449
aa(lp1623
I2791
aI34
aI1066
aI2956
aI145
aI576
aI1528
aI1629
aI11
aa(lp1624
I1892
aI157
aI898
aI877
aI2995
aI868
aI2644
aI1635
aI932
aa(lp1625
I621
aI395
aI1178
aI956
aI1505
aI1528
aI920
aa(lp1626
I3045
aI2951
aI1635
aI586
aI2664
aI9
aI1735
aI2695
aa(lp1627
I1549
aI530
aI1291
aI486
aI2664
aI1223
aI1209
aa(lp1628
I2951
aI1635
aI875
aI2664
aI550
aI3040
aa(lp1629
I486
aI1920
aI1635
aI1692
aI1394
aI1418
aI486
aI964
aa(lp1630
I60
aI1023
aI1417
aI1696
aI1505
aI1528
aI3109
aI610
aa(lp1631
I1635
aI328
aI2286
aI868
aI2995
aI2863
aI157
aI14
aa(lp1632
I1178
aI3174
aI1505
aI1623
aI1876
aI1798
aI1966
aI1505
aI1547
aa(lp1633
I1635
aI2297
aI232
aI154
aI1159
aI1533
aI737
aI758
aI244
aa(lp1634
I2961
aI1053
aI576
aI920
aI1662
aI1971
aa(lp1635
I621
aI2659
aI1159
aI1176
aI1066
aI1967
aI1635
aI1309
aI278
aa(lp1636
I1178
aI665
aI1635
aI1650
aI1798
aI2343
aI2879
aa(lp1637
I2777
aI313
aI1505
aI3158
aI119
aI2308
aI506
aI2297
aI2689
aa(lp1638
I2791
aI2900
aI2995
aI1761
aI1178
aI2049
aI621
aI2327
aI758
aa(lp1639
I549
aI411
aI2078
aI1159
aI1023
aI1507
aI3174
aI1505
aI1588
aa(lp1640
I1680
aI303
aI2766
aI2995
aI2753
aI1505
aI1010
aI1254
aa(lp1641
I1388
aI2516
aI1263
aI36
aI2951
aI1824
aI2321
aa(lp1642
I1552
aI2382
aI1635
aI2349
aI1178
aI2349
aI1635
aI2382
aa(lp1643
I1039
aI698
aI1418
aI2995
aI2467
aI157
aI1999
aI1635
aI2503
aa(lp1644
I1680
aI1737
aI390
aI4
aI157
aI973
aI1277
aa(lp1645
I2611
aI570
aI4
aI2999
aI570
aI1999
aI1023
aI1523
aI83
aa(lp1646
I3080
aI2766
aI362
aI1156
aI2668
aI1505
aI2721
aI916
aI533
aI403
aa(lp1647
I576
aI621
aI2079
aI1505
aI2544
aI475
aI1083
aa(lp1648
I708
aI1465
aI1505
aI506
aI1067
aI2995
aI2049
aI758
aa(lp1649
I1159
aI219
aI569
aI2308
aI289
aI1039
aI3136
aI219
aa(lp1650
I1178
aI1285
aI920
aI1418
aI570
aI569
aI1997
aI770
aa(lp1651
I593
aI2197
aI1169
aI2956
aI1127
aI1735
aI1706
aI180
aI2633
aa(lp1652
I1023
aI2995
aI1378
aI2442
aI1635
aI157
aI270
aa(lp1653
I1178
aI3129
aI2308
aI2659
aI542
aI1735
aI1169
aI2995
aI2766
aI363
aa(lp1654
I1159
aI1588
aI1176
aI2412
aI1247
aI1675
aI145
aI1067
aa(lp1655
I1178
aI688
aI1159
aI2889
aI2777
aI2995
aI224
aI868
aI1929
aa(lp1656
I1778
aI144
aI2995
aI22
aI157
aI2745
aI915
aa(lp1657
I2781
aI157
aI3053
aI1176
aI1595
aI1515
aI2518
aI2736
aa(lp1658
I688
aI578
aI1588
aI1176
aI2308
aI157
aI1219
aI702
aa(lp1659
I2951
aI2995
aI2308
aI623
aI2041
aI1950
aI1798
aI1824
aI1505
aI1591
aa(lp1660
I1178
aI2995
aI1798
aI2616
aI2766
aI792
aI435
aI1733
aa(lp1661
I1635
aI2395
aI3080
aI2412
aI2995
aI848
aI576
aI1528
aI1253
aa(lp1662
I708
aI1159
aI2664
aI671
aI1505
aI2111
aI1845
aI2766
aI2299
aa(lp1663
I157
aI759
aI979
aI3080
aI1883
aI758
aI2889
aI2895
aa(lp1664
I1178
aI1818
aI1635
aI1588
aI2951
aI1588
aI1635
aI145
aI224
aI1719
aa(lp1665
I621
aI612
aI2236
aI2777
aI2804
aI590
aI2588
aa(lp1666
I2791
aI1159
aI1528
aI1240
aI1067
aI2385
aI1798
aI2305
aa(lp1667
I362
aI1416
aI623
aI1178
aI623
aI144
aI2966
aI145
aa(lp1668
I1262
aI219
aI1635
aI2297
aI15
aI1169
aI15
aI2207
aa(lp1669
I1418
aI1066
aI1635
aI2297
aI509
aI1913
aI1505
aI1417
aa(lp1670
I1178
aI621
aI626
aI1809
aI3046
aI2777
aI569
aI1023
aI79
aa(lp1671
I1066
aI2308
aI2664
aI2125
aI2791
aI2308
aI655
aI816
aa(lp1672
I688
aI2794
aI2827
aI655
aI2757
aI2156
aI1156
aa(lp1673
I936
aI1284
aI1635
aI157
aI2051
aI1794
aa(lp1674
I1515
aI1501
aI157
aI2621
aI2794
aI2098
aI707
aI90
aa(lp1675
I2777
aI576
aI2721
aI2926
aI3135
aI2675
aI1680
aI2995
aI1125
aI1850
aa(lp1676
I792
aI2995
aI1567
aI1159
aI2995
aI1567
aI1178
aI233
aI1159
aI867
aa(lp1677
I2956
aI157
aI1557
aI2009
aI1278
aI2721
aI3102
aa(lp1678
I2995
aI1007
aI2297
aI2179
aI385
aI233
aI2522
aI2297
aI2354
aa(lp1679
I2308
aI2721
aI313
aI605
aI157
aI1834
aI144
aI1066
aI2297
aI1089
aa(lp1680
I2781
aI2544
aI2934
aI289
aI233
aI199
aa(lp1681
I1610
aI487
aI2098
aI2675
aI1178
aI576
aI2721
aI2725
aI813
aa(lp1682
I608
aI667
aI608
aI2242
aI2098
aI2321
aI157
aI2849
aa(lp1683
I1696
aI1434
aI1549
aI2982
aI943
aa(lp1684
I2777
aI2290
aI72
aI1159
aI346
aI313
aI1759
aa(lp1685
I1887
aI1610
aI1012
aI60
aI1635
aI803
aa(lp1686
I1515
aI2956
aI621
aI1947
aI1023
aI1134
aI2951
aI2849
aI1178
aI973
aa(lp1687
I2766
aI1393
aI2308
aI490
aI1635
aI784
aa(lp1688
I998
aI245
aI1635
aI53
aI2291
aI1270
aI2561
aI1961
aa(lp1689
I1505
aI228
aI608
aI2874
aI83
aI967
aI2297
aI1891
aa(lp1690
I1159
aI1590
aI840
aI2692
aI1066
aI1023
aI536
aI142
aa(lp1691
I1069
aI2768
aI2995
aI1214
aI608
aI682
aI920
aI1635
aI478
aa(lp1692
I124
aI1635
aI936
aI225
aI2516
aI145
aI737
aI2995
aI694
aa(lp1693
I1635
aI524
aI1359
aI2242
aI1159
aI2174
aI228
aI1735
aa(lp1694
I1635
aI2693
aI1569
aI2776
aI1635
aI1019
aI228
aa(lp1695
I1176
aI1635
aI1300
aI1495
aI576
aI145
aa(lp1696
I792
aI1591
aI2129
aI394
aI1066
aI912
aI1159
aI2995
aI429
aI909
aa(lp1697
I608
aI807
aI1997
aI1278
aI1549
aI2347
aI1845
aa(lp1698
I1635
aI145
aI2098
aI2017
aI2945
aI2017
aI1841
aa(lp1699
I233
aI2098
aI2791
aI2887
aI1505
aI1798
aI1633
aI2283
aa(lp1700
I2664
aI1315
aI2098
aI1687
aI1178
aI124
aI486
aI2180
aa(lp1701
I1680
aI2129
aI3018
aI166
aI2984
aI2358
aI1159
aI569
aI675
aa(lp1702
I1178
aI1022
aI586
aI225
aI681
aI1635
aI2664
aI664
aa(lp1703
I1169
aI1125
aI1159
aI486
aI218
aI2766
aI981
aI225
aI78
aa(lp1704
I608
aI2047
aI1178
aI228
aI2995
aI2124
aI1396
aa(lp1705
I1066
aI459
aI2956
aI621
aI1636
aI1069
aI621
aI1668
aa(lp1706
I688
aI608
aI1064
aI1178
aI1680
aI486
aI2096
aI555
aI2212
aa(lp1707
I3136
aI1735
aI1515
aI2057
aI2308
aI608
aI836
aI200
aa(lp1708
I2544
aI2995
aI429
aI2191
aI1178
aI2544
aI2290
aI77
aI2297
aa(lp1709
I2995
aI2953
aI2297
aI758
aI440
aI608
aI2478
aI1178
aI228
aa(lp1710
I578
aI157
aI682
aI920
aI1176
aI2791
aI621
aI553
aI1505
aI2879
aa(lp1711
I570
aI1845
aI688
aI1279
aI2771
aI2297
aI768
aa(lp1712
I2951
aI468
aI1635
aI2787
aI920
aI1515
aI1635
aI2787
aI11
aa(lp1713
I1861
aI1323
aI1861
aI1515
aI1168
aI1549
aI1168
aI2475
aa(lp1714
I792
aI570
aI737
aI2026
aI180
aI2516
aI503
aa(lp1715
I570
aI1548
aI1066
aI576
aI1825
aI1157
aI1069
aI2572
aa(lp1716
I22
aI621
aI1431
aI1505
aI2498
aI2414
aa(lp1717
I2334
aI591
aI2265
aI1591
aI2664
aI356
aI1600
aa(lp1718
I570
aI2382
aI1066
aI1053
aI1159
aI2847
aa(lp1719
I2777
aI3054
aI1501
aI2843
aI1505
aI679
aI1701
aa(lp1720
I2791
aI1610
aI907
aI2022
aI1605
aI105
aa(lp1721
I1159
aI570
aI1069
aI593
aI1549
aI751
aI1069
aI2010
aI1549
aI1990
aa(lp1722
I1635
aI2544
aI2995
aI3173
aI736
aI621
aI3042
aI1505
aI1591
aa(lp1723
I2777
aI869
aI688
aI3158
aI2784
aI2766
aI2164
aI688
aI1253
aa(lp1724
I2730
aI2739
aI1635
aI145
aI2995
aI684
aI621
aI2909
aa(lp1725
I1549
aI157
aI1401
aI621
aI2102
aI517
aa(lp1726
I1515
aI271
aI2487
aI2828
aI688
aI803
aa(lp1727
I2777
aI1368
aI1735
aI1800
aI1169
aI2930
aI1515
aI1843
aa(lp1728
I2766
aI2995
aI1066
aI2194
aI1319
aI1501
aI742
aI1178
aI893
aa(lp1729
I3052
aI1610
aI1178
aI1735
aI2308
aI1641
aI326
aI536
aI2304
aa(lp1730
I688
aI1419
aI2141
aI1484
aI3024
aI223
aa(lp1731
I652
aI3178
aI576
aI2721
aI2652
aI363
aa(lp1732
I792
aI2480
aI145
aI2297
aI2817
aI576
aI608
aI973
aa(lp1733
I1178
aI1204
aI2129
aI157
aI1649
aI1590
aI2791
aI284
aa(lp1734
I2777
aI569
aI1066
aI1513
aI1549
aI1491
aI1739
aI792
aI2092
aa(lp1735
I2791
aI3165
aI1830
aI937
aI145
aI688
aI228
aa(lp1736
I2699
aI2129
aI3113
aI1347
aI1798
aI758
aI963
aa(lp1737
I1418
aI2013
aI1910
aI2022
aI1947
aI576
aI608
aI2553
aa(lp1738
I576
aI621
aI675
aI2404
aI1256
aI737
aI1066
aI645
aI461
aa(lp1739
I1515
aI578
aI570
aI1176
aI570
aI684
aI1066
aI780
aI1072
aa(lp1740
I2791
aI1067
aI569
aI1256
aI780
aI1282
aI2533
aa(lp1741
I1178
aI188
aI837
aI1549
aI1798
aI2771
aI572
aa(lp1742
I688
aI1892
aI245
aI599
aI4
aI1911
aI1501
aI1886
aI1490
aa(lp1743
I2289
aI621
aI36
aI1549
aI2006
aI2757
aI428
aI786
aa(lp1744
I2141
aI188
aI4
aI792
aI1072
aI792
aI131
aI1962
aa(lp1745
I2791
aI569
aI211
aI578
aI1066
aI2173
aI576
aI775
aa(lp1746
I124
aI157
aI1865
aI1156
aI2098
aI3029
aI1256
aa(lp1747
I2690
aI1156
aI1023
aI1594
aI1178
aI233
aI1200
aI369
aa(lp1748
I2956
aI2710
aI2784
aI1066
aI681
aI461
aI792
aI188
aI1615
aa(lp1749
I2335
aI2277
aI1549
aI1798
aI2757
aI3108
aa(lp1750
I638
aI1023
aI233
aI858
aI745
aI1505
aI2721
aI2111
aa(lp1751
I1159
aI35
aI3099
aI877
aI188
aI2827
aI2178
aI1023
aa(lp1752
I3080
aI3001
aI1418
aI2129
aI157
aI123
aI123
aI1052
aa(lp1753
I2984
aI1159
aI1523
aI941
aI13
aI1117
aI1139
aa(lp1754
I1549
aI608
aI2141
aI67
aI1418
aI2129
aI2761
aI3199
aa(lp1755
I621
aI2884
aI253
aI1159
aI362
aI3131
aI844
aa(lp1756
I429
aI2995
aI2820
aI1359
aI1197
aI1159
aI2477
aI3073
aa(lp1757
I1635
aI3009
aI621
aI1663
aI1833
aI1505
aI608
aI599
aa(lp1758
I2611
aI157
aI1590
aI2281
aI2777
aI2827
aI1159
aI2539
aI1459
aa(lp1759
I2956
aI621
aI2159
aI1902
aI2308
aI228
aI821
aI1511
aa(lp1760
I1635
aI2297
aI1023
aI2632
aI233
aI119
aI909
aI2721
aI2879
aa(lp1761
I1178
aI1370
aI1549
aI1359
aI1998
aI1047
aa(lp1762
I2740
aI2157
aI608
aI67
aI2919
aI1549
aI2763
aI3126
aa(lp1763
I969
aI680
aI941
aI1735
aI1492
aI1169
aI1088
aI2281
aa(lp1764
I1892
aI1827
aI1197
aI1023
aI739
aI2098
aI576
aI2544
aa(lp1765
I936
aI225
aI608
aI67
aI145
aI608
aI2281
aI1635
aI3009
aa(lp1766
I591
aI512
aI1505
aI439
aI576
aI1798
aI2930
aI1505
aI572
aa(lp1767
I569
aI2790
aI576
aI1713
aI1178
aI998
aI1713
aI2790
aa(lp1768
I569
aI1807
aI3090
aI923
aI1696
aI1505
aI1308
aa(lp1769
I1673
aI2486
aI1791
aI3146
aI1066
aI1635
aI524
aa(lp1770
I414
aI792
aI1062
aI2791
aI730
aI2179
aa(lp1771
I1668
aI1711
aI1863
aI1178
aI792
aI1062
aI644
aa(lp1772
I1668
aI1711
aI2245
aI2951
aI1798
aI927
aI407
aa(lp1773
I1501
aI2217
aI271
aI1635
aI586
aI621
aI699
aI1011
aa(lp1774
I1011
aI576
aI88
aI1178
aI576
aI2527
aI1023
aa(lp1775
I644
aI2411
aI1178
aI576
aI2258
aI1635
aI2766
aI2486
aa(lp1776
I1798
aI422
aI576
aI2494
aI1178
aI1334
aI1798
aI1645
aI2111
aa(lp1777
I218
aI1798
aI2888
aI418
aI1296
aI1798
aI1812
aa(lp1778
I1610
aI2544
aI621
aI1458
aI2998
aI1739
aI638
aI1756
aI1739
aI2998
aa(lp1779
I1635
aI1692
aI621
aI1657
aI1159
aI835
aI487
aI1635
aI2544
aI1824
aa(lp1780
I157
aI1865
aI1156
aI2098
aI2017
aI3045
aI621
aI1685
aa(lp1781
I705
aI569
aI180
aI1735
aI2679
aI1169
aI2690
aI2281
aI2679
aa(lp1782
I578
aI376
aI2297
aI1151
aI2794
aI224
aI2690
aI2393
aI2098
aI3092
aa(lp1783
I578
aI3098
aI2297
aI1392
aI1256
aI1392
aI1016
aI1501
aI2690
aI740
aa(lp1784
I2995
aI2766
aI2194
aI1586
aI2643
aI2679
aI1178
aI1151
aa(lp1785
I2791
aI792
aI2710
aI1586
aI2096
aI2995
aI576
aI2690
aI2526
aa(lp1786
I1178
aI576
aI2278
aI1190
aI569
aI1533
aI1735
aI600
aa(lp1787
I1169
aI576
aI621
aI1343
aI1159
aI2516
aI157
aI291
aI625
aa(lp1788
I2995
aI920
aI1635
aI752
aI2690
aI526
aI638
aI2998
aI2995
aI3039
aa(lp1789
I1159
aI123
aI4
aI1798
aI180
aI1735
aI2431
aI377
aa(lp1790
I2995
aI2200
aI2995
aI83
aI2467
aI1798
aI502
aI2421
aa(lp1791
I157
aI291
aI1418
aI2853
aI19
aI2654
aI1501
aI621
aI1244
aa(lp1792
I1178
aI638
aI2308
aI1657
aI2995
aI1125
aI157
aI920
aI2951
aI3091
aa(lp1793
I2951
aI1196
aI2853
aI1903
aI1549
aI2757
aI1765
aa(lp1794
I2129
aI2092
aI2951
aI1395
aI1023
aI2951
aI2129
aI2092
aa(lp1795
I2951
aI1359
aI13
aI2604
aI1579
aI586
aI225
aI3146
aa(lp1796
I688
aI2998
aI2129
aI1914
aI1635
aI157
aI682
aI450
aI973
aa(lp1797
I2129
aI2092
aI621
aI2726
aI1178
aI2013
aI2892
aI3196
aa(lp1798
I638
aI576
aI1850
aI2310
aI2278
aI1189
aI1159
aI228
aI3176
aa(lp1799
I608
aI786
aI4
aI1066
aI621
aI1490
aI1635
aI586
aI920
aI1541
aa(lp1800
I1635
aI1189
aI233
aI148
aI2995
aI1460
aI1066
aI2297
aI1023
aI694
aa(lp1801
I3082
aI2995
aI2578
aI570
aI1635
aI157
aI1999
aI907
aa(lp1802
I1178
aI1635
aI2297
aI1211
aI1159
aI569
aI1066
aI2757
aI2995
aI2578
aa(lp1803
I1798
aI1350
aI513
aI2791
aI1435
aI1501
aI608
aI786
aa(lp1804
I235
aI1501
aI1080
aI375
aI429
aI3173
aI2839
aa(lp1805
I608
aI1256
aI569
aI2726
aI576
aI157
aI1580
aI1120
aa(lp1806
I576
aI2017
aI2092
aI2129
aI1256
aI653
aI576
aI608
aI1834
aa(lp1807
I1178
aI2900
aI2544
aI2361
aI2951
aI2995
aI1125
aI2970
aa(lp1808
I1119
aI1156
aI2995
aI920
aI1178
aI233
aI2951
aI2655
aI145
aa(lp1809
I2117
aI608
aI973
aI2765
aI145
aI1549
aI504
aa(lp1810
I2766
aI1911
aI1501
aI1256
aI1178
aI945
aI1200
aI2297
aa(lp1811
I1096
aI1549
aI2530
aI2208
aI2984
aI157
aI1212
aa(lp1812
I1178
aI1264
aI1066
aI621
aI1271
aI1685
aI1505
aI1657
aa(lp1813
I219
aI2385
aI621
aI1973
aI2526
aI1505
aI621
aI559
aa(lp1814
I1069
aI1159
aI1696
aI3180
aI1159
aI2557
aI576
aI621
aI60
aa(lp1815
I555
aI1065
aI1159
aI3139
aI1635
aI621
aI318
aI1340
aa(lp1816
I2951
aI1359
aI1729
aI285
aI1156
aI1943
aI608
aI786
aa(lp1817
I708
aI2480
aI570
aI224
aI2951
aI2998
aI448
aI608
aI973
aa(lp1818
I1635
aI858
aI688
aI145
aI1892
aI285
aI555
aI228
aI1964
aa(lp1819
I1178
aI2336
aI608
aI500
aI3045
aI576
aI35
aI1961
aa(lp1820
I224
aI2953
aI2995
aI2578
aI188
aI420
aI569
aI1256
aa(lp1821
I1178
aI1610
aI233
aI36
aI1159
aI608
aI1298
aI1615
aa(lp1822
I3100
aI1159
aI973
aI1159
aI2495
aI157
aI973
aI1635
aI1541
aa(lp1823
I688
aI1159
aI1568
aI587
aI570
aI1154
aI157
aI349
aI1178
aI145
aa(lp1824
I2189
aI1066
aI1542
aI1635
aI2436
aI145
aI907
aa(lp1825
I2791
aI2979
aI1635
aI240
aI157
aI87
aI349
aI144
aI2297
aa(lp1826
I145
aI2516
aI157
aI1999
aI608
aI3146
aI1725
aI4
aI1733
aa(lp1827
I1178
aI157
aI2519
aI1999
aI2129
aI3095
aI1704
aI2204
aa(lp1828
I1505
aI2078
aI157
aI1999
aI1178
aI228
aI2995
aI1567
aI2581
aa(lp1829
I1798
aI2765
aI542
aI2952
aI2961
aI1635
aI2297
aI2546
aa(lp1830
I650
aI157
aI973
aI576
aI608
aI2736
aI689
aI141
aa(lp1831
I2791
aI224
aI157
aI6
aI973
aI2480
aI157
aI1590
aI973
aI413
aa(lp1832
I2504
aI201
aI145
aI2480
aI157
aI973
aI2297
aI2561
aI3106
aa(lp1833
I2129
aI2273
aI1066
aI224
aI2514
aI2183
aI576
aI157
aI96
aa(lp1834
I1178
aI638
aI2129
aI2948
aI688
aI2995
aI1417
aI1829
aI576
aI228
aa(lp1835
I2731
aI1567
aI1119
aI1178
aI1610
aI1159
aI569
aI576
aI145
aa(lp1836
I1023
aI1067
aI2995
aI2766
aI1183
aI1159
aI3134
aI569
aI1119
aa(lp1837
I1178
aI2995
aI157
aI1999
aI1567
aI1972
aI1635
aI608
aI2953
aa(lp1838
I157
aI1999
aI1664
aI1033
aI1023
aI1159
aI3026
aI362
aa(lp1839
I2129
aI2948
aI3006
aI1635
aI2297
aI157
aI1782
aI1039
aa(lp1840
I2791
aI2129
aI2948
aI1066
aI1069
aI3134
aI2953
aI1066
aI2297
aI284
aa(lp1841
I688
aI2129
aI2092
aI2210
aI1178
aI3134
aI569
aI1966
aa(lp1842
I3134
aI754
aI2791
aI2947
aI1635
aI997
aI688
aI145
aa(lp1843
I22
aI1159
aI1445
aI1159
aI2078
aI2951
aI1562
aI555
aI2368
aa(lp1844
I621
aI743
aI1505
aI608
aI188
aI2129
aI2948
aI1204
aa(lp1845
I2129
aI321
aI1159
aI1520
aI276
aI1610
aI1635
aI2514
aa(lp1846
I1178
aI297
aI1798
aI349
aI2408
aI2944
aI688
aI157
aI933
aa(lp1847
I1023
aI2078
aI2995
aI3052
aI1822
aI157
aI1247
aI2587
aa(lp1848
I2078
aI2766
aI2995
aI3046
aI2129
aI1704
aI2124
aI2078
aI1178
aI145
aa(lp1849
I3134
aI720
aI621
aI2996
aI1178
aI638
aI1567
aI2995
aI1066
aI284
aa(lp1850
I829
aI4
aI2690
aI3141
aI2129
aI1704
aI608
aI2953
aa(lp1851
I1178
aI254
aI1635
aI3169
aI1178
aI254
aI576
aI523
aa(lp1852
I1735
aI1169
aI1542
aI1567
aI2995
aI1159
aI845
aI228
aI1039
aa(lp1853
I1635
aI608
aI2141
aI2953
aI969
aI2925
aI2961
aa(lp1854
I2948
aI2129
aI13
aI2953
aI569
aI263
aI1178
aI657
aa(lp1855
I1066
aI2412
aI1656
aI1635
aI63
aI157
aI2953
aI576
aI1119
aa(lp1856
I2290
aI2953
aI576
aI2482
aI369
aI674
aI557
aa(lp1857
I1178
aI576
aI157
aI2953
aI792
aI461
aI2153
aI2309
aa(lp1858
I621
aI2099
aI1610
aI905
aI638
aI509
aI598
aI1039
aa(lp1859
I1178
aI576
aI851
aI849
aI1635
aI2561
aI1953
aa(lp1860
I1023
aI2129
aI1417
aI424
aI576
aI2953
aI3025
aI1635
aI608
aI2953
aa(lp1861
I235
aI2953
aI1505
aI362
aI1635
aI586
aI608
aI263
aI2953
aI1735
aa(lp1862
I2480
aI792
aI1247
aI792
aI461
aI3050
aI2087
aa(lp1863
I1125
aI1610
aI2791
aI235
aI1178
aI145
aI576
aI1159
aI235
aI1646
aI2670
aa(lp1864
I578
aI608
aI963
aI1386
aI228
aI1159
aI2995
aI1313
aI1023
aI563
aa(lp1865
I2578
aI1635
aI608
aI1128
aI963
aI1159
aI2995
aI737
aI608
aI254
aa(lp1866
I1178
aI2953
aI608
aI963
aI1739
aI569
aI3049
aI1533
aa(lp1867
I2961
aI180
aI688
aI920
aI157
aI1698
aI2141
aI1472
aa(lp1868
I254
aI2953
aI1472
aI621
aI1250
aI1505
aI608
aI920
aa(lp1869
I1575
aI1577
aI570
aI1696
aI1549
aI2926
aI1178
aI157
aI2953
aI235
aa(lp1870
I576
aI585
aI1505
aI2487
aI1081
aI1549
aI1360
aI486
aI932
aa(lp1871
I1323
aI1798
aI1930
aI235
aI569
aI2427
aI1756
aa(lp1872
I224
aI576
aI621
aI1930
aI2480
aI145
aI1672
aI1243
aa(lp1873
I385
aI576
aI608
aI2907
aI2542
aI2995
aI235
aI144
aI2297
aa(lp1874
I688
aI2017
aI142
aI145
aI1023
aI570
aI2105
aI228
aI142
aa(lp1875
I1159
aI2017
aI145
aI1798
aI2562
aI2141
aI1635
aI228
aa(lp1876
I586
aI2791
aI157
aI1072
aI608
aI920
aI1178
aI920
aI1159
aI1039
aa(lp1877
I1178
aI224
aI2129
aI794
aI145
aI688
aI157
aI1072
aI569
aI2953
aa(lp1878
I2129
aI1128
aI1372
aI920
aI1680
aI3018
aI2129
aI1635
aI362
aI1156
aa(lp1879
I1159
aI233
aI3176
aI1178
aI2096
aI1066
aI1680
aI233
aI2096
aa(lp1880
I233
aI3039
aI1680
aI188
aI569
aI2096
aI1274
aI570
aI725
aa(lp1881
I638
aI1680
aI621
aI467
aI569
aI1204
aI621
aI1651
aI1635
aI2297
aa(lp1882
I578
aI1156
aI466
aI2308
aI2433
aI2615
aa(lp1883
I2297
aI2634
aI576
aI621
aI2665
aI1274
aI1610
aI487
aI2545
aa(lp1884
I2794
aI1505
aI3144
aI1473
aI1704
aI2129
aI1622
aI2890
aa(lp1885
I2334
aI621
aI2990
aI1505
aI157
aI973
aI569
aI302
aa(lp1886
I2794
aI2827
aI157
aI973
aI1125
aI1159
aI1798
aI592
aI117
aa(lp1887
I2777
aI157
aI973
aI1739
aI621
aI1171
aI121
aI2086
aI1120
aa(lp1888
I1515
aI362
aI1156
aI816
aI2544
aI1189
aI2544
aI569
aI1066
aa(lp1889
I1635
aI1911
aI461
aI2651
aI2984
aI1023
aI36
aI1798
aI786
aa(lp1890
I576
aI585
aI674
aI758
aI157
aI973
aI1178
aI1156
aI2766
aI548
aa(lp1891
I1178
aI1635
aI2544
aI2757
aI3128
aI2098
aI233
aI1067
aI1175
aa(lp1892
I1418
aI157
aI920
aI635
aI1159
aI2853
aI569
aI3136
aI1505
aI2651
aa(lp1893
I2995
aI429
aI1963
aI2690
aI385
aI2995
aI3039
aI2853
aI725
aa(lp1894
I1159
aI2853
aI1845
aI1125
aI145
aI2278
aI308
aI1975
aa(lp1895
I1738
aI576
aI621
aI121
aI2757
aI161
aa(lp1896
I2961
aI2610
aI1435
aI1159
aI2853
aI1477
aI145
aI2428
aa(lp1897
I3082
aI2853
aI1739
aI157
aI296
aI2098
aI1668
aI621
aI467
aa(lp1898
I1712
aI2995
aI99
aI2690
aI2446
aI3099
aa(lp1899
I1501
aI2124
aI1535
aI2961
aI569
aI3024
aI2651
aI1441
aa(lp1900
I2791
aI882
aI877
aI2853
aI1066
aI2853
aI569
aI164
aa(lp1901
I1178
aI882
aI1189
aI1066
aI2995
aI1159
aI2995
aI1567
aI675
aa(lp1902
I708
aI946
aI467
aI462
aI569
aI576
aI1926
aI524
aa(lp1903
I1178
aI2404
aI576
aI920
aI2747
aI1066
aI1635
aI2766
aI1035
aI78
aa(lp1904
I124
aI2995
aI2212
aI1549
aI2690
aI1178
aI2853
aI1549
aI145
aa(lp1905
I1178
aI576
aI2664
aI1309
aI2308
aI725
aI486
aI1208
aI2297
aa(lp1906
I708
aI736
aI1066
aI145
aI1635
aI388
aI621
aI190
aa(lp1907
I1159
aI608
aI1219
aI1305
aI2984
aI157
aI973
aa(lp1908
I587
aI145
aI1066
aI1549
aI1119
aI1725
aI2791
aI1549
aI608
aI3099
aa(lp1909
I2514
aI1490
aI1549
aI1490
aI1178
aI1181
aI145
aI1066
aI2308
aI2092
aa(lp1910
I127
aI145
aI2129
aI794
aI2340
aI2791
aI576
aI157
aI2283
aa(lp1911
I682
aI973
aI1848
aI1635
aI115
aI1119
aI1725
aI1201
aa(lp1912
I1680
aI2534
aI2129
aI587
aI1549
aI1753
aI1418
aI608
aI1845
aa(lp1913
I569
aI1735
aI1169
aI157
aI3011
aI1681
aI967
aI772
aa(lp1914
I2480
aI145
aI1745
aI228
aI1564
aI157
aI920
aI2998
aI1739
aa(lp1915
I2690
aI2530
aI2615
aI2766
aI533
aI362
aI687
aa(lp1916
I1178
aI124
aI2516
aI157
aI786
aI2853
aI1875
aI157
aI501
aa(lp1917
I1159
aI233
aI2340
aI1845
aI1454
aI2721
aI2239
aa(lp1918
I638
aI429
aI1066
aI1023
aI2791
aI1892
aI2995
aI1567
aI563
aI1331
aa(lp1919
I2087
aI145
aI2264
aI1549
aI2615
aI1178
aI2195
aI157
aI1212
aa(lp1920
I2297
aI3137
aI2951
aI2129
aI2092
aI3146
aI429
aI1066
aI3041
aa(lp1921
I157
aI1290
aI112
aI1549
aI326
aI536
aI504
aa(lp1922
I3005
aI2889
aI1481
aI145
aI2841
aI1178
aI2841
aI2068
aa(lp1923
I621
aI364
aI1505
aI157
aI2464
aI1212
aa(lp1924
I578
aI2995
aI1845
aI1912
aI228
aI2508
aI219
aI570
aI1176
aa(lp1925
I385
aI1066
aI1635
aI920
aI638
aI920
aI1635
aI127
aI145
aI1023
aa(lp1926
I2951
aI3032
aI3174
aI487
aI1418
aI2721
aI3153
aI2297
aI563
aa(lp1927
I792
aI497
aI2791
aI1895
aI2516
aI2721
aI2958
aI3039
aa(lp1928
I688
aI578
aI2995
aI2827
aI710
aI2995
aI2827
aI1016
aI1011
aa(lp1929
I1178
aI576
aI157
aI1325
aI1845
aI526
aI506
aI1505
aI228
aa(lp1930
I1067
aI2544
aI1690
aI1458
aI569
aI579
aI1023
aI2675
aa(lp1931
I1011
aI1946
aI2308
aI1011
aI2700
aI40
aI2297
aa(lp1932
I1159
aI2995
aI1007
aI1066
aI2297
aI1023
aI1069
aI2129
aI1903
aa(lp1933
I2839
aI1119
aI1156
aI2179
aI385
aI608
aI1226
aI973
aI2421
aI1171
aa(lp1934
I576
aI2310
aI2995
aI429
aI1066
aI920
aI228
aI1549
aI362
aI1156
aa(lp1935
I688
aI233
aI576
aI228
aI1798
aI1350
aI390
aI1202
aa(lp1936
I2791
aI1262
aI157
aI973
aI1159
aI2747
aI1680
aI233
aI2038
aa(lp1937
I2784
aI576
aI440
aI1505
aI2856
aI569
aI894
aI1635
aI552
aa(lp1938
I1069
aI2098
aI362
aI1104
aI1549
aI608
aI2250
aI1849
aI1063
aa(lp1939
I1069
aI1663
aI2125
aI1635
aI1909
aI416
aI521
aa(lp1940
I1069
aI1563
aI1069
aI802
aI664
aI1635
aI2297
aI2899
aa(lp1941
I1635
aI1196
aI1993
aI2647
aI1549
aI228
aI907
aa(lp1942
I2791
aI157
aI3038
aI2773
aI1069
aI157
aI3038
aI2783
aI967
aa(lp1943
I2483
aI235
aI2272
aI973
aI2516
aI1030
aI228
aa(lp1944
I2784
aI97
aI2011
aI621
aI1867
aI1505
aI1798
aI1017
aa(lp1945
I608
aI1226
aI1786
aI2979
aI1178
aI3200
aI1203
aI1635
aI2297
aa(lp1946
I937
aI157
aI3128
aI2961
aI180
aI2995
aI3135
aI157
aI3129
aa(lp1947
I1159
aI2853
aI1159
aI2495
aI145
aI2582
aI1320
aI145
aI1212
aa(lp1948
I920
aI569
aI157
aI2582
aI1178
aI608
aI682
aI956
aI11
aa(lp1949
I11
aI1505
aI157
aI2582
aI2127
aI1501
aI778
aI945
aa(lp1950
I708
aI2791
aI1549
aI362
aI1765
aI2129
aI1119
aI3102
aI2879
aa(lp1951
I1178
aI2129
aI394
aI2049
aI570
aI2866
aI1066
aI1167
aa(lp1952
I1515
aI578
aI570
aI429
aI1066
aI2516
aI1359
aI2281
aI1505
aI1119
aa(lp1953
I1159
aI2766
aI211
aI2721
aI1363
aI776
aa(lp1954
I1178
aI1720
aI2757
aI2448
aI1505
aI920
aI2951
aI3001
aI2951
aI362
aa(lp1955
I1349
aI655
aI2786
aI156
aI1505
aI2721
aI1939
aa(lp1956
I2297
aI570
aI3110
aI2995
aI920
aI228
aI2951
aI2129
aI794
aI1359
aa(lp1957
I2157
aI1119
aI1156
aI2825
aI2951
aI362
aI1618
aI228
aa(lp1958
I913
aI500
aI576
aI608
aI973
aI1159
aI1418
aI570
aI593
aa(lp1959
I608
aI500
aI1007
aI1581
aI1635
aI2704
aI2297
aa(lp1960
I578
aI2129
aI3018
aI370
aI1635
aI2766
aI1680
aI2129
aI3018
aI63
aa(lp1961
I2308
aI3192
aI1129
aI2129
aI2297
aI693
aa(lp1962
I2626
aI2951
aI1798
aI1357
aI782
aI444
aI1635
aI554
aa(lp1963
I235
aI1505
aI2690
aI3007
aI1677
aI1748
aI472
aa(lp1964
I3002
aI724
aI2690
aI2529
aI1178
aI2495
aI1610
aI2894
aI1330
aa(lp1965
I576
aI88
aI1505
aI621
aI1118
aI2853
aI119
aI2766
aI3183
aa(lp1966
I2611
aI2690
aI951
aI553
aI2575
aI2690
aI576
aI2198
aa(lp1967
I3014
aI1635
aI554
aI2690
aI13
aI1213
aI1110
aI569
aI1869
aa(lp1968
I1635
aI1624
aI1159
aI2777
aI2137
aI218
aI2690
aI786
aa(lp1969
I1066
aI277
aI2690
aI1590
aI3028
aI2414
aa(lp1970
I1023
aI269
aI2129
aI189
aI1159
aI2777
aI2137
aI2516
aI228
aa(lp1971
I2611
aI2995
aI608
aI2529
aI2198
aI228
aI1982
aI1296
aa(lp1972
I2791
aI578
aI2129
aI554
aI608
aI2833
aI2769
aI748
aI1635
aI145
aa(lp1973
I1178
aI2279
aI621
aI342
aI1961
aI3009
aI145
aI2297
aI1966
aa(lp1974
I1023
aI2953
aI2995
aI1832
aI1159
aI2129
aI1129
aI2766
aI608
aI2953
aa(lp1975
I578
aI2129
aI2769
aI748
aI1178
aI157
aI304
aI2248
aI1039
aa(lp1976
I1729
aI2747
aI2995
aI2766
aI1505
aI1782
aI1178
aI710
aa(lp1977
I2777
aI3045
aI1729
aI2103
aI429
aI515
aI145
aI1039
aa(lp1978
I621
aI219
aI1180
aI569
aI1798
aI1017
aI674
aI461
aa(lp1979
I621
aI70
aI439
aI1798
aI1642
aI1648
aI506
aa(lp1980
I1635
aI2503
aI145
aI1818
aI1635
aI1824
aI157
aI2656
aI289
aa(lp1981
I922
aI157
aI219
aI1180
aI2516
aI157
aI249
aa(lp1982
I1178
aI119
aI466
aI157
aI1958
aI1635
aI2297
aI1798
aI2147
aa(lp1983
I580
aI2561
aI983
aI1549
aI2690
aI36
aI25
aa(lp1984
I1178
aI3140
aI1159
aI157
aI1180
aI2297
aI1184
aI2062
aa(lp1985
I895
aI2995
aI1007
aI638
aI1066
aI1135
aI127
aa(lp1986
I2791
aI1417
aI2124
aI2516
aI145
aI2124
aI1635
aI245
aI349
aa(lp1987
I2995
aI685
aI235
aI1180
aI576
aI1080
aI1824
aa(lp1988
I638
aI2544
aI2290
aI2995
aI64
aI3039
aI2791
aI940
aI576
aI2521
aa(lp1989
I998
aI157
aI2675
aI1180
aI2168
aI157
aI1850
aI235
aI2668
aa(lp1990
I1359
aI2281
aI1159
aI946
aI3102
aI599
aI868
aI586
aa(lp1991
I401
aI276
aI621
aI377
aI1159
aI469
aI432
aI2267
aa(lp1992
I1635
aI145
aI1159
aI2441
aI688
aI2690
aI933
aa(lp1993
I2791
aI1418
aI2853
aI2467
aI157
aI1744
aI2879
aa(lp1994
I2179
aI576
aI2690
aI973
aI868
aI2066
aI1313
aa(lp1995
I2822
aI1159
aI3099
aI1159
aI77
aI2141
aa(lp1996
I737
aI2211
aI576
aI2466
aI2763
aI1751
aa(lp1997
I1178
aI255
aI570
aI2961
aI770
aI1635
aI196
aa(lp1998
I432
aI2267
aI2853
aI683
aI1549
aI1569
aI1013
aa(lp1999
I1159
aI1090
aI570
aI2951
aI2763
aI2642
aa(lp2000
I555
aI1624
aI671
aI2784
aI3045
aI1798
aI2062
aa(lp2001
I2516
aI1657
aI1635
aI1824
aI569
aI2215
aI472
aa(lp2002
I432
aI2267
aI2516
aI11
aI472
aI2853
aI544
aa(lp2003
I1178
aI1647
aI157
aI545
aI1242
aI2438
aI1543
aa(lp2004
I1590
aI963
aI621
aI2782
aI1505
aI157
aI778
aI412
aa(lp2005
I157
aI778
aI412
aI1364
aI1107
aI354
aI260
aa(lp2006
I2794
aI3018
aI2129
aI897
aI2321
aI1178
aI1826
aI3156
aa(lp2007
I2805
aI608
aI2102
aI1858
aI1023
aI114
aI2166
aa(lp2008
I2794
aI1023
aI263
aI883
aI2411
aI1023
aI1800
aI1798
aI1954
aa(lp2009
I3018
aI2129
aI2984
aI608
aI1992
aI8
aI2233
aa(lp2010
I2290
aI1617
aI71
aI1505
aI2544
aI1703
aa(lp2011
I3132
aI1278
aI608
aI846
aI569
aI2544
aI608
aI2746
aI1013
aa(lp2012
I224
aI963
aI940
aI2129
aI2984
aI608
aI975
aI3043
aa(lp2013
I1178
aI2480
aI1159
aI897
aI1635
aI383
aI608
aI1953
aa(lp2014
I2764
aI488
aI1476
aI576
aI1956
aI1701
aI1505
aI1341
aa(lp2015
I2321
aI2297
aI1008
aI1411
aI2297
aI424
aI792
aI1735
aa(lp2016
I1023
aI2290
aI2129
aI1924
aI1501
aI2122
aI1159
aI1499
aI1501
aI487
aa(lp2017
I1178
aI2122
aI2412
aI680
aI20
aI792
aI1735
aI791
aI224
aa(lp2018
I157
aI920
aI569
aI2951
aI1798
aI1083
aI1959
aI1039
aa(lp2019
I688
aI1159
aI2777
aI820
aI1638
aI621
aI2801
aa(lp2020
I14
aI1501
aI1159
aI2777
aI555
aI484
aI621
aI506
aa(lp2021
I591
aI1074
aI212
aI9
aI1635
aI2105
aa(lp2022
I157
aI1711
aI621
aI558
aI1635
aI157
aI920
aa(lp2023
I935
aI1159
aI2561
aI901
aI2098
aI1066
aI607
aa(lp2024
I4
aI624
aI145
aI1178
aI2995
aI1179
aI1067
aI2134
aa(lp2025
I664
aI569
aI2122
aI2777
aI2591
aI868
aI2144
aa(lp2026
I1668
aI622
aI2995
aI1567
aI1067
aI1711
aI569
aI1668
aI1110
aa(lp2027
I1178
aI1355
aI1549
aI10
aI43
aa(lp2028
I157
aI605
aI1178
aI157
aI2206
aI2951
aI1011
aI1161
aI2098
aa(lp2029
I2956
aI1409
aI2516
aI621
aI2651
aI2610
aI2468
aa(lp2030
I688
aI2995
aI2766
aI1001
aI228
aI461
aI1178
aI2999
aI228
aI1241
aa(lp2031
I2784
aI2092
aI2951
aI1256
aI2951
aI1824
aI2951
aI602
aI2951
aI671
aa(lp2032
I708
aI145
aI1680
aI1156
aI4
aI920
aI1911
aI576
aI157
aI740
aa(lp2033
I2777
aI2766
aI792
aI1057
aI1549
aI758
aI2283
aa(lp2034
I1515
aI578
aI233
aI2766
aI1274
aI569
aI157
aI2990
aI3023
aa(lp2035
I1159
aI606
aI798
aI1680
aI233
aI2096
aI2238
aa(lp2036
I578
aI1159
aI2297
aI461
aI2623
aI157
aI2757
aI1156
aI552
aa(lp2037
I1680
aI2837
aI621
aI1458
aI1635
aI1189
aI570
aI569
aI1066
aI1023
aa(lp2038
I578
aI570
aI2297
aI1066
aI224
aI920
aI555
aI2998
aI3157
aa(lp2039
I946
aI1725
aI569
aI1066
aI1023
aI758
aI2951
aI1610
aI1161
aI792
aa(lp2040
I3080
aI967
aI570
aI708
aI3080
aI967
aI946
aI1725
aI2297
aI758
aa(lp2041
I1159
aI569
aI1023
aI516
aI1549
aI575
aI1178
aI1549
aI1254
aa(lp2042
I792
aI2410
aI224
aI385
aI2995
aI103
aI157
aI2856
aa(lp2043
I621
aI1685
aI570
aI1999
aI357
aI1066
aI998
aI1657
aI1361
aa(lp2044
I708
aI1753
aI920
aI1549
aI1254
aI2129
aI1634
aI145
aI1128
aa(lp2045
I3005
aI1156
aI1772
aI608
aI36
aI1309
aI2827
aI2049
aa(lp2046
I2273
aI2129
aI708
aI3146
aI1189
aI2995
aI920
aI228
aI1066
aa(lp2047
I1418
aI2995
aI507
aI157
aI1999
aI1549
aI228
aI1257
aa(lp2048
I429
aI2995
aI1066
aI1125
aI1501
aI228
aI1418
aI2995
aI256
aa(lp2049
I1567
aI1505
aI157
aI1999
aI1006
aI688
aI608
aI933
aa(lp2050
I2784
aI1014
aI228
aI1159
aI2995
aI429
aI736
aI157
aI349
aa(lp2051
I1501
aI2157
aI2225
aI2129
aI1159
aI2995
aI429
aI0
aI2984
aa(lp2052
I2386
aI578
aI2129
aI996
aI1501
aI145
aI429
aI2995
aI1066
aI2233
aa(lp2053
I1700
aI2984
aI157
aI1999
aI1549
aI1636
aI1940
aa(lp2054
I1680
aI1239
aI429
aI2995
aI576
aI157
aI1999
aI1707
aa(lp2055
I1159
aI569
aI1023
aI1226
aI608
aI1917
aI1635
aI2038
aa(lp2056
I1418
aI1610
aI157
aI467
aI555
aI2296
aI608
aI1986
aa(lp2057
I1754
aI2308
aI621
aI1117
aI1505
aI1119
aI1156
aa(lp2058
I2791
aI920
aI11
aI1501
aI688
aI1067
aI2995
aI3039
aI608
aI361
aa(lp2059
I1359
aI1159
aI967
aI2096
aI2129
aI794
aI1178
aI2995
aI1567
aI1128
aa(lp2060
I708
aI2516
aI1680
aI1490
aI1704
aI2129
aI2544
aI2706
aI1845
aa(lp2061
I1549
aI2536
aI157
aI973
aI1635
aI26
aa(lp2062
I1635
aI586
aI145
aI936
aI621
aI2212
aI1635
aI157
aI758
aI2283
aa(lp2063
I1178
aI2578
aI1159
aI239
aI555
aI1066
aI1964
aI621
aI2642
aa(lp2064
I1508
aI1704
aI2129
aI2544
aI745
aI1505
aI585
aI506
aa(lp2065
I1159
aI576
aI621
aI1645
aI1799
aI1505
aI608
aI1834
aa(lp2066
I1533
aI569
aI2710
aI374
aI1178
aI1470
aI1505
aI3016
aa(lp2067
I1159
aI576
aI157
aI361
aI608
aI1651
aI1610
aI467
aI511
aa(lp2068
I2784
aI255
aI228
aI3080
aI1635
aI586
aI145
aI920
aI228
aI1735
aa(lp2069
I621
aI1735
aI2995
aI752
aI1178
aI2096
aI626
aI2678
aI1505
aI11
aa(lp2070
I708
aI385
aI2995
aI920
aI1680
aI2482
aI429
aI2779
aa(lp2071
I1549
aI2482
aI2129
aI2054
aI1066
aI2779
aI157
aI2879
aa(lp2072
I578
aI608
aI2148
aI716
aI920
aI576
aI145
aa(lp2073
I1735
aI3083
aI2995
aI1635
aI2297
aI649
aI1505
aI228
aa(lp2074
I920
aI569
aI326
aI2428
aI1635
aI3039
aI1680
aI1678
aI569
aa(lp2075
I638
aI2784
aI1739
aI1066
aI1678
aI569
aI681
aI1505
aI920
aa(lp2076
I224
aI2763
aI823
aI1209
aI1066
aI157
aI365
aa(lp2077
I3005
aI73
aI1505
aI157
aI1309
aI608
aI2141
aI1999
aI932
aa(lp2078
I688
aI2129
aI925
aI145
aI2995
aI429
aI2060
aa(lp2079
I157
aI1352
aI1961
aI1635
aI157
aI1478
aI2746
aI1606
aa(lp2080
I157
aI963
aI555
aI127
aI157
aI2472
aI1159
aI3134
aI1007
aa(lp2081
I47
aI576
aI920
aI2980
aI1817
aI792
aI456
aI1711
aa(lp2082
I2791
aI1524
aI2956
aI608
aI1072
aI555
aI2139
aI2668
aI228
aa(lp2083
I2951
aI2561
aI3143
aI42
aI1226
aI1505
aI2544
aI25
aa(lp2084
I3134
aI569
aI1114
aI608
aI1590
aI855
aI1635
aI2297
aa(lp2085
I1635
aI1511
aI576
aI608
aI2110
aI1653
aI2308
aI608
aI249
aa(lp2086
I792
aI976
aI1505
aI1678
aI142
aI570
aI1159
aI2995
aI736
aa(lp2087
I2690
aI920
aI688
aI13
aI682
aI920
aI2995
aI2394
aI1178
aI1653
aa(lp2088
I576
aI945
aI228
aI2129
aI1914
aI2995
aI1567
aI431
aa(lp2089
I2791
aI2129
aI2092
aI451
aI431
aI1635
aI145
aI920
aI107
aa(lp2090
I576
aI1512
aI608
aI205
aI1748
aI1178
aI75
aI2310
aI2916
aa(lp2091
I576
aI2345
aI75
aI11
aI189
aI75
aI920
aI3151
aa(lp2092
I2791
aI2794
aI1505
aI1729
aI1530
aI1076
aI429
aI2995
aI2444
aI228
aa(lp2093
I1418
aI2995
aI230
aI1922
aI2995
aI1567
aI1807
aI2013
aa(lp2094
I688
aI1610
aI157
aI2876
aI2098
aI408
aI2791
aI1635
aI2531
aI228
aa(lp2095
I1178
aI1610
aI157
aI1116
aI2310
aI576
aI228
aI569
aI3046
aa(lp2096
I688
aI2995
aI2766
aI1001
aI1568
aI408
aI1505
aI608
aI1568
aI2640
aa(lp2097
I408
aI1505
aI608
aI920
aI608
aI2651
aI608
aI395
aa(lp2098
I1178
aI1635
aI483
aI228
aI654
aI1156
aI1635
aI756
aa(lp2099
I1515
aI3136
aI225
aI2578
aI507
aI621
aI1118
aI233
aI2096
aa(lp2100
I688
aI2995
aI2766
aI1001
aI228
aI461
aI1735
aI1807
aI2995
aa(lp2101
I1635
aI2578
aI507
aI621
aI2651
aI1023
aI36
aI1798
aI2297
aa(lp2102
I421
aI271
aI2308
aI2561
aI3123
aI1178
aI1509
aI1280
aa(lp2103
I1798
aI1050
aI1505
aI825
aI2544
aI854
aI1876
aa(lp2104
I1178
aI2561
aI3195
aI2168
aI868
aI3111
aI2751
aa(lp2105
I576
aI1798
aI1038
aI1446
aI1505
aI1159
aI1244
aa(lp2106
I2777
aI428
aI2516
aI2544
aI131
aI2168
aI1505
aI920
aa(lp2107
I1798
aI2886
aI1525
aI751
aI1039
aI1635
aI2116
aa(lp2108
I1178
aI1967
aI1798
aI1085
aI715
aI2777
aI638
aI487
aI932
aa(lp2109
I507
aI1841
aI550
aI1798
aI732
aI622
aa(lp2110
I2791
aI2956
aI157
aI1865
aI1725
aI946
aI3123
aI1988
aa(lp2111
I621
aI911
aI688
aI1768
aI1778
aI119
aI1427
aI157
aI2073
aa(lp2112
I2995
aI3174
aI924
aI621
aI1815
aI1505
aI715
aI2128
aa(lp2113
I1178
aI3017
aI2362
aI1798
aI1187
aI1521
aI1942
aa(lp2114
I2791
aI1876
aI792
aI622
aI621
aI715
aI688
aI157
aI1815
aI725
aa(lp2115
I1274
aI421
aI274
aI75
aI2168
aI157
aI1865
aI1156
aa(lp2116
I621
aI1145
aI3013
aI2035
aI2412
aI1280
aa(lp2117
I271
aI2308
aI2561
aI249
aI2561
aI272
aI3123
aa(lp2118
I2611
aI1316
aI1859
aI1159
aI1405
aI2499
aI545
aI1635
aI2693
aa(lp2119
I2408
aI2871
aI2308
aI2791
aI576
aI2690
aI384
aI599
aa(lp2120
I621
aI2726
aI857
aI333
aI1278
aI1159
aI2168
aa(lp2121
I2777
aI1316
aI2653
aI1505
aI758
aI620
aI644
aI2322
aa(lp2122
I1178
aI1023
aI621
aI2934
aI1505
aI181
aI664
aa(lp2123
I737
aI2870
aI2308
aI1798
aI734
aI599
aI392
aa(lp2124
I2544
aI3123
aI2853
aI1695
aI576
aI1798
aI863
aI2998
aI2308
aa(lp2125
I2777
aI2516
aI946
aI2168
aI333
aI751
aI3047
aa(lp2126
I968
aI1798
aI715
aI1178
aI2343
aI2071
aa(lp2127
I688
aI487
aI29
aI2791
aI2995
aI157
aI1865
aI2576
aa(lp2128
I2408
aI1533
aI688
aI622
aI1178
aI2544
aI2308
aI1159
aI2995
aI932
aa(lp2129
I946
aI2168
aI2407
aI905
aI905
aI583
aI1066
aI920
aa.