(lp1
(lp2
I2537
aI2749
aI1686
aI488
aI667
aI1034
aa(lp3
I1166
aI1067
aI784
aI1444
aI1856
aI83
aI874
aa(lp4
I2816
aI2976
aI624
aI2979
aI2852
aI2326
aI1600
aI3084
aa(lp5
I2582
aI1672
aI2554
aI1856
aI2864
aI2582
aI949
aa(lp6
I2816
aI2144
aI898
aI1644
aI1126
aI3128
aI1248
aI1163
aa(lp7
I669
aI611
aI116
aI350
aI1558
aI2051
aI2855
aa(lp8
I975
aI1809
aI3059
aI1281
aI856
aI729
aa(lp9
I611
aI2012
aI611
aI696
aI1644
aI611
aI2156
aI2012
aI328
aI3172
aa(lp10
I2144
aI1166
aI2107
aI1073
aI624
aI121
aI2430
aI1302
aa(lp11
I1185
aI943
aI244
aI1644
aI624
aI1162
aI2294
aa(lp12
I2339
aI1126
aI3128
aI3159
aI1242
aI611
aI272
aa(lp13
I1185
aI1672
aI370
aI991
aI2955
aI579
aI1563
aa(lp14
I502
aI624
aI1466
aI1523
aI2187
aI2565
aI1239
aI2315
aa(lp15
I1644
aI3158
aI624
aI121
aI2170
aI2326
aI624
aI395
aI1185
aI230
aa(lp16
I1426
aI270
aI1231
aI2308
aI2413
aI611
aI1382
aa(lp17
I1185
aI875
aI1577
aI3142
aI579
aI611
aI784
aI3045
aa(lp18
I611
aI338
aI1233
aI1999
aI1029
aI1936
aI1509
aI1073
aa(lp19
I2978
aI2315
aI1809
aI2558
aI1405
aI1513
aI1670
aI27
aI1831
aa(lp20
I226
aI1425
aI516
aI1281
aI1619
aI611
aI188
aI729
aa(lp21
I1281
aI1619
aI624
aI1257
aI1513
aI611
aI598
aI298
aa(lp22
I1644
aI1196
aI2339
aI1126
aI3128
aI1577
aI2400
aI1163
aa(lp23
I1183
aI1578
aI2992
aI575
aI1185
aI800
aI2568
aa(lp24
I3106
aI539
aI1746
aI2568
aI2329
aI611
aI784
aI2535
aa(lp25
I581
aI2144
aI2836
aI183
aI2320
aI463
aI556
aI1513
aI364
aa(lp26
I2308
aI1695
aI157
aI3161
aI1185
aI589
aI157
aI678
aI2422
aa(lp27
I1169
aI2582
aI188
aI2326
aI45
aI1126
aa(lp28
I2565
aI1183
aI1644
aI2315
aI75
aI3162
aI1426
aI2144
aI2107
aI678
aa(lp29
I1185
aI2111
aI611
aI1805
aI138
aI1426
aI2144
aI1115
aI573
aI1044
aa(lp30
I2193
aI579
aI611
aI137
aI1185
aI127
aI624
aI790
aI2144
aI2064
aa(lp31
I1073
aI572
aI624
aI1600
aI1166
aI790
aI2852
aI746
aI319
aa(lp32
I13
aI2430
aI2337
aI581
aI1073
aI2144
aI1072
aI2948
aa(lp33
I2144
aI3043
aI2634
aI624
aI1466
aI130
aI2296
aI622
aa(lp34
I691
aI1281
aI572
aI2878
aI1029
aI463
aI13
aI2737
aI1703
aa(lp35
I705
aI624
aI1057
aI1513
aI611
aI1006
aa(lp36
I1523
aI2809
aI572
aI3160
aI1029
aI2057
aI2978
aI2315
aI624
aI2612
aa(lp37
I1513
aI2582
aI1735
aI1644
aI435
aI3110
aa(lp38
I2144
aI2107
aI611
aI344
aI137
aI1185
aI2878
aI579
aI230
aa(lp39
I1609
aI752
aI624
aI544
aI2928
aI1513
aI2713
aI1275
aa(lp40
I1029
aI2144
aI1833
aI2038
aI1513
aI1126
aI2425
aI396
aI2111
aa(lp41
I442
aI1513
aI2330
aI2565
aI611
aI106
aI1600
aa(lp42
I2816
aI581
aI2144
aI946
aI2317
aI1072
aI1644
aI2315
aa(lp43
I874
aI2394
aI1185
aI1126
aI1530
aI812
aI1558
aI230
aa(lp44
I1334
aI2730
aI2819
aI3043
aI2144
aI2249
aa(lp45
I3009
aI611
aI2012
aI611
aI784
aI2890
aa(lp46
I1897
aI606
aI1161
aI2030
aI2816
aI558
aI1489
aa(lp47
I1185
aI1425
aI2704
aI2878
aI3082
aI1644
aI1367
aI2113
aI286
aa(lp48
I226
aI2075
aI2078
aI2819
aI3043
aI2144
aI2609
aa(lp49
I624
aI580
aI2996
aI285
aI230
aI1644
aI942
aa(lp50
I1319
aI323
aI2819
aI3043
aI2144
aI2535
aa(lp51
I1029
aI2508
aI1809
aI1695
aI1513
aI1461
aI641
aI2290
aI1072
aI946
aa(lp52
I691
aI2432
aI1464
aI1558
aI611
aI2012
aI913
aa(lp53
I2144
aI1513
aI611
aI2012
aI611
aI2156
aI2012
aI3043
aI1031
aa(lp54
I226
aI3106
aI1426
aI492
aI1609
aI230
aI1644
aI2315
aI1568
aa(lp55
I1689
aI958
aI3017
aI2290
aI2144
aI876
aa(lp56
I611
aI2025
aI188
aI144
aI2315
aI1479
aI1558
aI230
aa(lp57
I2801
aI2226
aI2188
aI594
aI2569
aI1644
aI2315
aa(lp58
I1367
aI1710
aI1166
aI1558
aI2787
aI150
aI873
aI2888
aa(lp59
I624
aI544
aI1545
aI1281
aI35
aI1736
aI558
aI329
aa(lp60
I2978
aI2297
aI624
aI1862
aI1644
aI624
aI1654
aI1393
aa(lp61
I1185
aI1166
aI633
aI2801
aI599
aI558
aI797
aa(lp62
I691
aI2752
aI1600
aI839
aI1423
aI1509
aa(lp63
I1644
aI1648
aI996
aI1185
aI848
aI2093
aI1541
aa(lp64
I1201
aI1153
aI1558
aI2365
aI1185
aI598
aI97
aI1112
aI1568
aa(lp65
I188
aI186
aI1185
aI1431
aI35
aI1281
aa(lp66
I226
aI1183
aI1072
aI1446
aI986
aI627
aa(lp67
I1809
aI1026
aI2817
aI1840
aI579
aI1869
aI1513
aI137
aa(lp68
I784
aI3010
aI1558
aI188
aI1183
aI994
aa(lp69
I1075
aI573
aI1075
aI796
aI2344
aI1689
aI573
aI741
aa(lp70
I2816
aI1175
aI1396
aI387
aI235
aI1558
aI996
aI2570
aa(lp71
I129
aI2816
aI2744
aI1244
aI2744
aI95
aI1045
aI2188
aI2156
aa(lp72
I226
aI2501
aI1072
aI233
aI618
aI602
aI2832
aa(lp73
I579
aI230
aI611
aI1423
aI154
aI2144
aI2315
aI1396
aa(lp74
I589
aI2156
aI2296
aI1981
aI1257
aI2144
aI2296
aI1127
aa(lp75
I1558
aI784
aI1257
aI154
aI573
aI2315
aI3187
aa(lp76
I1166
aI2535
aI572
aI1072
aI1623
aI2373
aa(lp77
I2801
aI1559
aI1367
aI1166
aI1392
aI624
aI2652
aI2157
aa(lp78
I1824
aI691
aI611
aI2012
aI1644
aI1155
aI319
aI230
aa(lp79
I1523
aI1675
aI169
aI2421
aI2315
aI573
aI1675
aI691
aI237
aa(lp80
I1675
aI169
aI611
aI2012
aI1183
aI2421
aI1176
aI2144
aI2107
aa(lp81
I581
aI1675
aI1513
aI1126
aI1675
aI169
aI2786
aI230
aa(lp82
I226
aI1689
aI2715
aI2137
aI431
aI581
aI2144
aI2068
aI1727
aa(lp83
I2512
aI230
aI1094
aI579
aI3110
aa(lp84
I2315
aI1072
aI1855
aI691
aI2144
aI2107
aI539
aI328
aI463
aa(lp85
I1644
aI2315
aI3105
aI2338
aI1185
aI589
aI1626
aI1126
aI2554
aa(lp86
I2648
aI579
aI624
aI1899
aI1426
aI624
aI560
aI2616
aa(lp87
I2014
aI1285
aI2582
aI1527
aI744
aI247
aI22
aI1736
aa(lp88
I558
aI1640
aI1644
aI2582
aI2725
aI2301
aa(lp89
I1036
aI1558
aI2637
aI2582
aI1798
aI2153
aa(lp90
I1185
aI2432
aI98
aI624
aI783
aI275
aI1907
aa(lp91
I1212
aI1715
aI1987
aI579
aI2582
aI1384
aI2425
aa(lp92
I641
aI2721
aI2637
aI773
aI2582
aI188
aI1045
aa(lp93
I2708
aI1509
aI2582
aI106
aI383
aa(lp94
I2816
aI1426
aI2537
aI2436
aI1043
aI1558
aI2918
aI968
aa(lp95
I3070
aI867
aI2425
aI3160
aI2045
aI2537
aI624
aI2664
aa(lp96
I624
aI1163
aI751
aI2999
aI1073
aI3173
aI2113
aa(lp97
I2537
aI2582
aI2751
aI1229
aI1185
aI2193
aI319
aI739
aa(lp98
I1029
aI2144
aI611
aI2012
aI54
aI579
aI611
aI1488
aa(lp99
I2762
aI1509
aI498
aI2806
aI2144
aI1268
aI1809
aI727
aa(lp100
I123
aI1644
aI756
aI2819
aI2964
aI2144
aI123
aI2739
aa(lp101
I2657
aI1558
aI2657
aI742
aI1072
aI2913
aI2176
aI579
aI2913
aa(lp102
I2819
aI798
aI2144
aI1166
aI2801
aI2144
aI296
aI1072
aI2559
aa(lp103
I1523
aI2187
aI296
aI1558
aI1820
aI1126
aI2561
aa(lp104
I581
aI624
aI762
aI255
aI1513
aI1785
aI1146
aa(lp105
I2326
aI2122
aI2876
aI431
aI2814
aI1126
aI3157
aa(lp106
I235
aI431
aI2816
aI1692
aI2353
aI230
aI2809
aI848
aa(lp107
I579
aI612
aI624
aI2998
aI1166
aI2144
aI2068
aI2864
aa(lp108
I1349
aI3106
aI237
aI858
aI2156
aI1282
aI1644
aI319
aa(lp109
I1555
aI247
aI579
aI247
aI2326
aI3191
aI2740
aa(lp110
I1212
aI2522
aI1185
aI556
aI1185
aI743
aI622
aa(lp111
I2809
aI1619
aI579
aI237
aI237
aI2452
aI1209
aI431
aI2505
aa(lp112
I13
aI1868
aI1653
aI1425
aI1323
aI1937
aI237
aa(lp113
I2794
aI2565
aI1644
aI230
aI429
aI2394
aI2973
aI938
aI2562
aa(lp114
I572
aI573
aI691
aI891
aI1644
aI3052
aI1809
aI2827
aI1736
aa(lp115
I1166
aI2144
aI172
aI611
aI2012
aI579
aI2394
aI548
aa(lp116
I1573
aI581
aI2144
aI2482
aI396
aI654
aI1644
aI874
aa(lp117
I624
aI1466
aI2978
aI908
aI230
aI3070
aI1809
aI2417
aI1610
aa(lp118
I624
aI1466
aI2978
aI2315
aI611
aI1130
aI1185
aI1045
aI1411
aa(lp119
I1166
aI2144
aI796
aI746
aI1513
aI230
aI1713
aI627
aI1303
aa(lp120
I1426
aI35
aI2526
aI1130
aI3023
aI1013
aI2716
aa(lp121
I2326
aI2693
aI1163
aI2713
aI2820
aI2254
aI579
aI363
aa(lp122
I2193
aI1689
aI1578
aI1734
aI579
aI624
aI1466
aI558
aI2249
aa(lp123
I1395
aI2816
aI2582
aI1127
aI691
aI1045
aI624
aI1466
aI1308
aI573
aa(lp124
I2816
aI784
aI2955
aI4
aI579
aI624
aI1466
aI1578
aI1019
aa(lp125
I1185
aI610
aI2025
aI624
aI308
aI1029
aI1496
aI573
aa(lp126
I796
aI926
aI1992
aI2503
aI579
aI1166
aI1846
aI2989
aa(lp127
I1166
aI1509
aI2359
aI2733
aI3116
aI575
aI1915
aa(lp128
I691
aI575
aI2822
aI1166
aI2144
aI1522
aI926
aI1644
aI1203
aa(lp129
I2809
aI691
aI611
aI2012
aI2107
aI1029
aI459
aa(lp130
I2215
aI581
aI2144
aI2973
aI2144
aI2107
aI652
aI1513
aI1323
aa(lp131
I2816
aI1166
aI2144
aI1767
aI798
aI572
aI2026
aI2873
aa(lp132
I691
aI2144
aI2107
aI1029
aI614
aI1558
aI3116
aI11
aa(lp133
I1166
aI1630
aI611
aI2012
aI2144
aI1177
aI1072
aI1644
aI1781
aa(lp134
I1864
aI1166
aI2075
aI152
aI1644
aI307
aa(lp135
I2801
aI1644
aI2337
aI2852
aI2315
aI611
aI2619
aI667
aa(lp136
I712
aI915
aI611
aI3024
aI1166
aI3020
aI1013
aI915
aI157
aI363
aa(lp137
I2308
aI11
aI2315
aI2212
aI159
aI1176
aI2787
aI926
aa(lp138
I2315
aI2976
aI611
aI722
aI572
aI560
aI1185
aI1978
aa(lp139
I1523
aI1644
aI611
aI2012
aI2981
aI1958
aI2311
aI938
aa(lp140
I589
aI230
aI319
aI2012
aI691
aI926
aI1513
aI145
aa(lp141
I1166
aI188
aI1045
aI1013
aI946
aI579
aI1126
aI1523
aI230
aa(lp142
I2976
aI1539
aI2976
aI2144
aI396
aI163
aI1029
aI1539
aI2144
aI2577
aa(lp143
I579
aI237
aI1513
aI1126
aI2537
aI1166
aI2801
aI2144
aI1304
aa(lp144
I1185
aI1166
aI2430
aI1805
aI2801
aI1967
aI2144
aI218
aa(lp145
I2144
aI1136
aI740
aI1126
aI1426
aI2144
aI2537
aI1987
aI2047
aa(lp146
I135
aI2188
aI336
aI188
aI1185
aI1034
aa(lp147
I1419
aI2565
aI1181
aI2425
aI1185
aI1044
aI2647
aa(lp148
I581
aI1619
aI1183
aI1661
aI1029
aI624
aI169
aI2852
aI1432
aa(lp149
I1185
aI1853
aI1092
aI119
aI589
aI624
aI1466
aI474
aa(lp150
I2501
aI1367
aI2172
aI492
aI4
aI1072
aI3162
aI691
aI1965
aa(lp151
I1389
aI2350
aI1185
aI1802
aI2312
aI2703
aa(lp152
I2193
aI2172
aI2878
aI469
aI1381
aI2878
aI657
aI230
aI1746
aa(lp153
I2801
aI580
aI670
aI2144
aI2068
aI579
aI1157
aI716
aa(lp154
I2878
aI1582
aI230
aI691
aI2713
aI1290
aI1185
aI2859
aI1067
aa(lp155
I2144
aI2068
aI1908
aI1746
aI1072
aI2501
aI1166
aI419
aI874
aa(lp156
I1426
aI3020
aI431
aI3161
aI624
aI1693
aI1166
aI373
aI624
aI1600
aa(lp157
I1185
aI2111
aI624
aI881
aI2664
aI1629
aI579
aI1648
aI674
aa(lp158
I1426
aI3020
aI3203
aI624
aI2894
aI1677
aI1275
aa(lp159
I1185
aI1306
aI1055
aI1619
aI1668
aI2764
aI1558
aI1158
aa(lp160
I1426
aI2935
aI2084
aI3020
aI2111
aI2046
aI1513
aI97
aa(lp161
I2801
aI559
aI2537
aI755
aI873
aI2934
aI624
aI85
aa(lp162
I1185
aI1446
aI1213
aI1619
aI1173
aI1285
aI579
aI1373
aa(lp163
I263
aI1509
aI624
aI476
aI1558
aI1158
aI1185
aI2217
aI355
aa(lp164
I226
aI1513
aI611
aI188
aI431
aI3020
aI2352
aI589
aa(lp165
I1166
aI2144
aI1330
aI624
aI2033
aI1513
aI1600
aI144
aI2442
aa(lp166
I1903
aI2657
aI1185
aI2626
aI431
aI2543
aI1311
aa(lp167
I1185
aI874
aI2976
aI1539
aI2976
aI235
aI2111
aI2503
aI1022
aa(lp168
I1185
aI2030
aI1630
aI2812
aI2499
aI973
aI589
aI1690
aa(lp169
I656
aI1155
aI1644
aI881
aI2093
aI1426
aI3160
aI1737
aI230
aI2722
aa(lp170
I712
aI1166
aI1597
aI1183
aI1536
aI2012
aI2816
aI926
aI1597
aI2113
aa(lp171
I796
aI824
aI626
aI1176
aI1597
aI1536
aI2012
aI84
aI946
aa(lp172
I509
aI2565
aI1806
aI1019
aI1597
aI2852
aI1540
aa(lp173
I1185
aI1536
aI2156
aI3206
aI1644
aI2296
aI3051
aI942
aa(lp174
I1029
aI2852
aI1166
aI188
aI2801
aI1597
aI142
aI579
aI1966
aa(lp175
I2063
aI796
aI3229
aI226
aI1597
aI1183
aa(lp176
I1536
aI2012
aI1587
aI189
aI1536
aI1352
aI3084
aa(lp177
I1426
aI1536
aI2156
aI1910
aI1536
aI2156
aI746
aI2852
aI2864
aa(lp178
I2809
aI2965
aI1029
aI463
aI1809
aI1893
aI1662
aI1644
aI2647
aa(lp179
I2801
aI1006
aI579
aI909
aI1856
aI2447
aa(lp180
I509
aI624
aI1255
aI173
aI1513
aI233
aI2664
aa(lp181
I1185
aI2046
aI1562
aI1513
aI3105
aI284
aI1044
aa(lp182
I712
aI1767
aI2816
aI1331
aI685
aI157
aI926
aI1597
aI3064
aa(lp183
I1597
aI647
aI1809
aI847
aI2501
aI1536
aI727
aI1196
aI1029
aa(lp184
I1072
aI2537
aI624
aI1547
aI431
aI3020
aI157
aI2273
aI1314
aa(lp185
I1185
aI641
aI3211
aI3020
aI2790
aI3215
aa(lp186
I2816
aI1072
aI1644
aI127
aI1513
aI1861
aI1523
aI291
aI252
aa(lp187
I1513
aI2251
aI1513
aI1719
aI1523
aI1546
aI2735
aa(lp188
I1075
aI973
aI3020
aI1470
aI1644
aI1696
aI3176
aI127
aa(lp189
I1621
aI1644
aI247
aI2582
aI66
aI601
aI1185
aI205
aa(lp190
I1523
aI1196
aI1558
aI3164
aI581
aI573
aI2308
aI2442
aI3023
aa(lp191
I2326
aI3026
aI984
aI1166
aI3020
aI579
aI1666
aI2063
aa(lp192
I2816
aI2537
aI1126
aI1163
aI157
aI2846
aI3020
aI1049
aa(lp193
I1185
aI2388
aI1547
aI579
aI227
aI3020
aI1459
aI2733
aI2107
aa(lp194
I2976
aI2673
aI1185
aI188
aI2308
aI1956
aI2130
aa(lp195
I581
aI2537
aI611
aI2012
aI1644
aI1965
aI2144
aI204
aI2186
aa(lp196
I1523
aI2187
aI1513
aI230
aI2565
aI3020
aI639
aa(lp197
I611
aI1019
aI572
aI231
aI1185
aI784
aI1762
aI1185
aI1018
aa(lp198
I1426
aI3020
aI1620
aI35
aI1125
aI1166
aI596
aa(lp199
I2596
aI579
aI2865
aI2816
aI1809
aI1152
aI2229
aa(lp200
I1166
aI2565
aI1788
aI3114
aI2115
aI725
aI2816
aI1107
aa(lp201
I2645
aI624
aI1547
aI579
aI2173
aI2392
aI2939
aa(lp202
I1426
aI3020
aI436
aI1166
aI489
aI2976
aI2191
aI1034
aa(lp203
I2536
aI1185
aI1153
aI60
aI2326
aI624
aI1564
aI3047
aa(lp204
I2573
aI579
aI2744
aI2335
aI1201
aI2981
aI521
aI2530
aa(lp205
I1185
aI497
aI2744
aI881
aI2904
aI2690
aI1513
aI949
aa(lp206
I226
aI624
aI2510
aI1513
aI2565
aI3086
aI3210
aa(lp207
I3027
aI1597
aI2026
aI426
aI579
aI1987
aI220
aI157
aI2301
aa(lp208
I1281
aI630
aI1600
aI2341
aI1558
aI2647
aa(lp209
I1644
aI915
aI1536
aI2664
aI1513
aI1987
aI1644
aI2378
aI674
aa(lp210
I1185
aI1619
aI579
aI742
aI1558
aI1600
aI691
aI926
aI1513
aI1597
aa(lp211
I2976
aI3160
aI1737
aI2537
aI1597
aI3020
aI775
aI1597
aI75
aa(lp212
I2816
aI887
aI431
aI1072
aI1597
aI1809
aI2395
aI739
aa(lp213
I589
aI742
aI3009
aI2565
aI929
aI2638
aI1600
aa(lp214
I1185
aI215
aI1536
aI2012
aI579
aI1536
aI2647
aa(lp215
I1558
aI2862
aI1746
aI1531
aI1176
aI157
aI2046
aI2461
aa(lp216
I1073
aI1519
aI1597
aI1509
aI624
aI324
aI1513
aI743
aI1710
aa(lp217
I1185
aI1323
aI386
aI3231
aI641
aI1618
aa(lp218
I1558
aI2453
aI3167
aI119
aI2864
aI1597
aI1094
aI1175
aa(lp219
I539
aI2160
aI1176
aI1536
aI2962
aI2588
aa(lp220
I1029
aI2852
aI624
aI2618
aI1513
aI548
aI1166
aI548
aI2337
aa(lp221
I2801
aI2565
aI2812
aI2549
aI1523
aI157
aI3226
aI1583
aa(lp222
I2907
aI579
aI1844
aI27
aI1075
aI2117
aI463
aa(lp223
I973
aI589
aI1597
aI946
aI1536
aI2012
aI579
aI1163
aI1513
aI489
aa(lp224
I1644
aI942
aI474
aI1536
aI2012
aI202
aI1536
aI2012
aI1045
aa(lp225
I1185
aI1597
aI144
aI946
aI484
aI2326
aI1536
aI3128
aI2156
aI3041
aa(lp226
I2809
aI2978
aI1975
aI157
aI1448
aI579
aI1600
aI1644
aI1320
aa(lp227
I581
aI573
aI1183
aI905
aI1558
aI1536
aI2026
aI2580
aI2069
aa(lp228
I387
aI641
aI1666
aI1750
aI573
aI572
aI2816
aI2976
aI1809
aI2612
aa(lp229
I2801
aI990
aI1536
aI548
aI1185
aI1107
aI1072
aI1071
aI1536
aI2998
aa(lp230
I581
aI3020
aI2715
aI1003
aI624
aI188
aI1513
aI1536
aI1163
aa(lp231
I1185
aI579
aI2430
aI1784
aI1941
aI1619
aI1536
aI46
aa(lp232
I624
aI2425
aI1644
aI1320
aI119
aI1196
aI2565
aI2954
aI729
aa(lp233
I2733
aI275
aI418
aI64
aI425
aI3214
aI512
aa(lp234
I1029
aI2852
aI157
aI803
aI529
aI1558
aI2744
aI2425
aa(lp235
I2315
aI1407
aI3070
aI678
aI489
aI1513
aI2071
aI2673
aI1176
aI3125
aa(lp236
I1185
aI1536
aI762
aI149
aI2315
aI1842
aI1809
aI632
aI1562
aa(lp237
I1185
aI1339
aI2511
aI1513
aI1578
aI676
aI1653
aa(lp238
I2816
aI1183
aI2296
aI556
aI1513
aI626
aI3089
aI1166
aI1600
aa(lp239
I1597
aI2852
aI946
aI453
aI579
aI573
aI1185
aI579
aI157
aI2461
aa(lp240
I2308
aI3020
aI1776
aI230
aI1644
aI1809
aI1446
aI2664
aa(lp241
I2144
aI2107
aI1746
aI544
aI1185
aI1746
aI1024
aa(lp242
I2841
aI1678
aI431
aI2889
aI624
aI1909
aI1537
aI1513
aI1013
aa(lp243
I1185
aI1446
aI1966
aI4
aI1619
aI328
aI1811
aI1809
aI1018
aa(lp244
I787
aI328
aI181
aI624
aI1736
aI1513
aI1666
aI789
aa(lp245
I1185
aI2292
aI572
aI2582
aI2053
aI1305
aI2404
aa(lp246
I1185
aI35
aI463
aI2537
aI463
aI787
aI2108
aa(lp247
I2326
aI3212
aI1523
aI1897
aI1410
aI1042
aI2615
aa(lp248
I2816
aI611
aI284
aI1423
aI2308
aI1072
aI222
aa(lp249
I1075
aI3077
aI2548
aI1513
aI1166
aI463
aI2144
aI1752
aa(lp250
I1075
aI2308
aI2137
aI510
aI2144
aI1122
aI579
aI2582
aI1817
aa(lp251
I1426
aI579
aI284
aI2618
aI1644
aI1600
aI2144
aI2577
aa(lp252
I1029
aI1141
aI2976
aI489
aI973
aI128
aI1523
aI1163
aI973
aI2111
aa(lp253
I1029
aI1141
aI2188
aI2565
aI1185
aI2565
aI1161
aI548
aI1644
aI230
aa(lp254
I2167
aI1600
aI1214
aI2144
aI624
aI1732
aI2586
aa(lp255
I1185
aI589
aI624
aI414
aI2930
aI2713
aI3128
aI2156
aI2644
aa(lp256
I1314
aI624
aI2718
aI828
aI2537
aI624
aI953
aI1159
aI1548
aa(lp257
I1185
aI699
aI624
aI1526
aI810
aI579
aI2713
aI1805
aa(lp258
I589
aI1763
aI1185
aI24
aI2031
aI2976
aI2144
aI894
aa(lp259
I1185
aI431
aI2952
aI2144
aI2973
aI357
aI1600
aa(lp260
I1644
aI624
aI1178
aI1466
aI1185
aI1619
aI2713
aI2004
aI2657
aa(lp261
I2816
aI3020
aI2523
aI230
aI237
aI2026
aI753
aI1260
aa(lp262
I712
aI223
aI1072
aI1558
aI611
aI1710
aI157
aI952
aI463
aI1382
aa(lp263
I1075
aI2410
aI796
aI2618
aI1541
aI1558
aI1126
aI676
aI1583
aa(lp264
I2093
aI579
aI611
aI1042
aI1310
aI431
aI2621
aa(lp265
I691
aI784
aI2900
aI1644
aI642
aI489
aa(lp266
I641
aI431
aI611
aI1660
aI678
aI1600
aI442
aI611
aI190
aa(lp267
I157
aI926
aI2308
aI579
aI157
aI1448
aI77
aI946
aI2449
aa(lp268
I1809
aI1929
aI790
aI1558
aI1897
aI3128
aI602
aI2962
aa(lp269
I1713
aI2144
aI624
aI327
aI293
aI1513
aI157
aI3100
aa(lp270
I1809
aI1929
aI2787
aI979
aI2816
aI1072
aI1469
aa(lp271
I1558
aI701
aI915
aI2976
aI572
aI2781
aI33
aI358
aa(lp272
I1578
aI1736
aI1746
aI1248
aI1176
aI708
aI2071
aI2781
aI579
aI818
aa(lp273
I126
aI624
aI388
aI290
aI573
aI3138
aa(lp274
I1809
aI1023
aI579
aI360
aI1619
aI2264
aI579
aI2582
aI1758
aa(lp275
I2801
aI3016
aI1168
aI1163
aI1185
aI33
aI836
aI2029
aa(lp276
I1185
aI691
aI1809
aI1651
aI1179
aI2144
aI1134
aI297
aa(lp277
I1004
aI492
aI2976
aI2878
aI219
aI230
aI1517
aI91
aa(lp278
I1185
aI2326
aI2950
aI145
aI1513
aI230
aI574
aa(lp279
I2326
aI644
aI237
aI1125
aI1644
aI157
aI2232
aI2030
aa(lp280
I2816
aI1903
aI2878
aI754
aI230
aI2690
aI691
aI33
aI1820
aa(lp281
I364
aI2315
aI611
aI926
aI1185
aI611
aI952
aI2535
aI2744
aI1257
aa(lp282
I1029
aI572
aI573
aI1072
aI1558
aI145
aI2976
aI1558
aI1166
aI134
aa(lp283
I3219
aI2326
aI1809
aI2962
aI188
aI1644
aI2582
aI1448
aa(lp284
I2809
aI1666
aI573
aI2012
aI691
aI1302
aI558
aI2535
aa(lp285
I1185
aI35
aI463
aI1558
aI2582
aI463
aI558
aI694
aa(lp286
I975
aI1809
aI208
aI1513
aI1233
aI1776
aa(lp287
I1558
aI1694
aI1185
aI1491
aI1558
aI414
aI1185
aI1328
aI426
aI2258
aa(lp288
I1558
aI906
aI814
aI1175
aI1185
aI1619
aI588
aI3117
aa(lp289
I1166
aI3095
aI563
aI579
aI2565
aI1788
aI1955
aI1663
aa(lp290
I712
aI2501
aI145
aI762
aI579
aI926
aI2816
aI1271
aI1003
aa(lp291
I1185
aI226
aI1975
aI145
aI157
aI926
aI572
aI2976
aI463
aa(lp292
I2976
aI1203
aI344
aI556
aI387
aI1072
aI1029
aI1248
aa(lp293
I2976
aI1367
aI2053
aI1027
aI2880
aI579
aI3095
aI563
aa(lp294
I2501
aI227
aI1196
aI1746
aI1166
aI3070
aI1513
aI313
aI3023
aa(lp295
I3020
aI2978
aI1072
aI2568
aI1166
aI2232
aI1072
aI1644
aI2006
aa(lp296
I157
aI137
aI2308
aI1072
aI58
aI145
aI3020
aI1576
aI678
aa(lp297
I1029
aI1141
aI2976
aI1987
aI1185
aI2144
aI2113
aI1513
aI237
aI1018
aa(lp298
I2816
aI1426
aI579
aI230
aI2812
aI855
aI3020
aI3203
aa(lp299
I226
aI2193
aI3020
aI2137
aI157
aI298
aI2852
aI1288
aa(lp300
I691
aI1619
aI1166
aI188
aI1166
aI558
aI2042
aI230
aa(lp301
I572
aI2816
aI624
aI445
aI438
aI1513
aI157
aI979
aa(lp302
I2801
aI579
aI611
aI2087
aI558
aI946
aI2976
aI1126
aI579
aI145
aa(lp303
I3106
aI973
aI3020
aI226
aI2315
aI1943
aI1176
aI2144
aI2107
aa(lp304
I712
aI124
aI926
aI2315
aI1513
aI2639
aI1029
aI132
aa(lp305
I2976
aI3020
aI1072
aI691
aI157
aI2012
aI2816
aI691
aI230
aI2978
aa(lp306
I3177
aI611
aI979
aI2801
aI3020
aI2978
aI2716
aI1029
aI2018
aa(lp307
I2976
aI1672
aI1700
aI2713
aI2550
aI2537
aI745
aI508
aa(lp308
I2252
aI1072
aI1509
aI611
aI979
aI1426
aI364
aI572
aI1338
aa(lp309
I2144
aI1821
aI145
aI1126
aI1072
aI1644
aI942
aI752
aI1587
aa(lp310
I2976
aI1578
aI2207
aI799
aI1509
aI624
aI3114
aa(lp311
I2809
aI1558
aI2582
aI891
aI572
aI1922
aI592
aI2582
aI1973
aa(lp312
I1523
aI2296
aI953
aI1125
aI1808
aI1558
aI328
aI539
aI1562
aa(lp313
I13
aI959
aI856
aI570
aI2582
aI3128
aI979
aa(lp314
I1029
aI3020
aI691
aI891
aI1513
aI526
aI12
aI1644
aI1196
aa(lp315
I624
aI2641
aI171
aI1513
aI952
aI2128
aa(lp316
I1185
aI579
aI364
aI3128
aI952
aI376
aI371
aI1644
aI2647
aa(lp317
I2032
aI1558
aI520
aI1513
aI364
aI3128
aI952
aI1856
aa(lp318
I712
aI2501
aI157
aI2637
aI2315
aI226
aI624
aI1883
aa(lp319
I1185
aI2773
aI649
aI1513
aI157
aI1160
aI2087
aa(lp320
I2809
aI2483
aI691
aI926
aI1185
aI2193
aI691
aI1128
aa(lp321
I1746
aI1176
aI1166
aI3125
aI1166
aI1746
aI4
aI1746
aI2489
aa(lp322
I712
aI1772
aI1644
aI1459
aI1689
aI1154
aI926
aI4
aI2620
aa(lp323
I1644
aI756
aI1558
aI1163
aI651
aI1644
aI952
aI2062
aI2529
aa(lp324
I364
aI1736
aI4
aI571
aI624
aI2968
aI1185
aI4
aI2248
aa(lp325
I611
aI784
aI746
aI579
aI2947
aI1513
aI157
aI979
aa(lp326
I157
aI2493
aI572
aI624
aI2888
aI2220
aI1269
aI1831
aa(lp327
I1185
aI1680
aI573
aI572
aI469
aI2077
aI2107
aa(lp328
I691
aI1833
aI624
aI2968
aI144
aI1597
aI2111
aI2582
aI3041
aa(lp329
I1644
aI2063
aI1281
aI1536
aI762
aI1530
aI3225
aI729
aa(lp330
I2801
aI579
aI157
aI693
aI1243
aI572
aI7
aI1045
aa(lp331
I1166
aI4
aI2582
aI2038
aI236
aI1558
aI1126
aI1163
aa(lp332
I1073
aI2111
aI1689
aI1861
aI1886
aI1163
aI691
aI1163
aI2790
aI1946
aa(lp333
I364
aI1163
aI2790
aI484
aI611
aI2254
aI1185
aI1126
aI691
aI145
aa(lp334
I2113
aI2038
aI1644
aI157
aI2087
aI1011
aI624
aI1694
aa(lp335
I2176
aI1644
aI704
aI1644
aI1545
aI3083
aI1509
aI230
aa(lp336
I641
aI1163
aI2565
aI1764
aI982
aI1644
aI1976
aI2744
aI2107
aa(lp337
I235
aI2410
aI2816
aI1689
aI235
aI2111
aI3064
aI1072
aI624
aI979
aa(lp338
I2501
aI1367
aI2809
aI2113
aI579
aI899
aI1558
aI2744
aI1547
aa(lp339
I1513
aI1702
aI909
aI1185
aI1233
aI349
aI918
aa(lp340
I2633
aI3020
aI2172
aI1470
aI1513
aI2733
aI47
aI2105
aa(lp341
I2762
aI691
aI2913
aI579
aI1166
aI3020
aI909
aI2026
aa(lp342
I2508
aI2680
aI2623
aI2744
aI463
aI97
aI3144
aa(lp343
I2816
aI2976
aI624
aI277
aI2981
aI624
aI2545
aI1736
aa(lp344
I1185
aI579
aI2543
aI2744
aI25
aI729
aI1198
aa(lp345
I691
aI2981
aI1809
aI1457
aI235
aI579
aI2744
aI3165
aI874
aa(lp346
I624
aI2750
aI487
aI2553
aI691
aI737
aa(lp347
I189
aI1809
aI1358
aI245
aI2433
aI1199
aa(lp348
I572
aI2537
aI624
aI3199
aI1513
aI909
aI53
aI1112
aa(lp349
I1185
aI1619
aI624
aI1429
aI258
aI691
aI2801
aI3160
aI1579
aa(lp350
I226
aI743
aI3020
aI1166
aI926
aI1185
aI1576
aI652
aa(lp351
I1281
aI3020
aI1013
aI1072
aI2099
aI1075
aI2315
aI761
aa(lp352
I23
aI1513
aI157
aI926
aI1644
aI2172
aI579
aI2385
aa(lp353
I611
aI1246
aI4
aI157
aI1329
aI1567
aI294
aa(lp354
I1644
aI230
aI3020
aI2450
aI2565
aI1259
aI1119
aa(lp355
I1644
aI3200
aI1329
aI1072
aI1644
aI1244
aI157
aI2529
aa(lp356
I1329
aI1029
aI2508
aI2801
aI2529
aI1029
aI1599
aI2976
aI364
aa(lp357
I1013
aI589
aI371
aI2112
aI579
aI663
aI2866
aI1644
aI1244
aI573
aa(lp358
I2816
aI1166
aI3020
aI2858
aI2296
aI1861
aI2510
aI1513
aI1126
aa(lp359
I579
aI611
aI869
aI3024
aI1619
aI1279
aI2978
aI289
aI573
aa(lp360
I1004
aI21
aI3207
aI1166
aI1437
aI157
aI2231
aa(lp361
I402
aI1509
aI145
aI2363
aI1558
aI463
aI1434
aa(lp362
I1185
aI531
aI1616
aI1509
aI157
aI2558
aI951
aa(lp363
I1644
aI1244
aI145
aI3109
aI1513
aI611
aI2156
aI1716
aa(lp364
I226
aI1013
aI3020
aI1468
aI1644
aI918
aI3106
aI3020
aI431
aI926
aI230
aa(lp365
I1004
aI226
aI1072
aI1244
aI157
aI744
aI1281
aI2144
aI1136
aI938
aI145
aa(lp366
I2918
aI1558
aI2247
aI3020
aI201
aI145
aI1644
aI157
aI2767
aa(lp367
I624
aI685
aI168
aI691
aI1048
aI1558
aI176
aI51
aa(lp368
I2816
aI226
aI340
aI1809
aI816
aI579
aI157
aI744
aa(lp369
I1644
aI150
aI157
aI363
aI1426
aI2770
aI2478
aI2818
aa(lp370
I691
aI226
aI157
aI608
aI2537
aI180
aI1281
aI3020
aI1101
aa(lp371
I809
aI1809
aI1512
aI383
aI1644
aI230
aa(lp372
I1185
aI2716
aI157
aI2121
aI454
aI1148
aI1178
aa(lp373
I1102
aI1509
aI1691
aI2801
aI624
aI1135
aI431
aI2111
aa(lp374
I656
aI1166
aI157
aI869
aI3111
aI2301
aa(lp375
I18
aI611
aI664
aI1644
aI157
aI2630
aI2881
aa(lp376
I2801
aI3070
aI1809
aI3224
aI675
aI579
aI216
aI674
aa(lp377
I2516
aI1263
aI674
aI2075
aI1185
aI2713
aI678
aI790
aI75
aa(lp378
I2648
aI2986
aI2326
aI2664
aI157
aI1048
aI2326
aI674
aI157
aI363
aa(lp379
I691
aI230
aI1185
aI691
aI157
aI2012
aI796
aI1325
aI2063
aa(lp380
I3106
aI973
aI3020
aI226
aI1386
aI579
aI743
aI640
aa(lp381
I1166
aI1576
aI2451
aI624
aI1473
aI1513
aI1429
aa(lp382
I1426
aI1726
aI3208
aI572
aI1072
aI2668
aI2326
aI674
aa(lp383
I2816
aI2664
aI2326
aI674
aI1185
aI674
aI2326
aI2664
aI1895
aa(lp384
I1185
aI247
aI387
aI690
aI1644
aI2266
aI817
aa(lp385
I431
aI579
aI211
aI2889
aI2659
aI1644
aI2457
aI145
aa(lp386
I624
aI237
aI2326
aI2247
aI624
aI3051
aI1644
aI1877
aa(lp387
I3106
aI180
aI3020
aI2247
aI1045
aI458
aI3019
aI2537
aI230
aa(lp388
I3020
aI127
aI624
aI2664
aI1644
aI2120
aI2093
aI2144
aI2107
aI1248
aa(lp389
I1185
aI3043
aI2093
aI1976
aI1426
aI871
aI431
aI1440
aI624
aI1666
aa(lp390
I1029
aI679
aI3020
aI624
aI2090
aI674
aa(lp391
I1426
aI1641
aI1547
aI3029
aI1072
aI2144
aI1637
aI624
aI60
aa(lp392
I2816
aI2664
aI558
aI826
aI2410
aI157
aI111
aI824
aa(lp393
I1185
aI674
aI558
aI3012
aI589
aI3145
aI2719
aI371
aI2825
aa(lp394
I1426
aI579
aI779
aI1558
aI1470
aI1185
aI1168
aI1163
aa(lp395
I3020
aI1619
aI913
aI2689
aI157
aI3011
aI2904
aa(lp396
I1185
aI866
aI681
aI1666
aI1558
aI157
aI440
aI3039
aa(lp397
I1185
aI2193
aI3009
aI157
aI2012
aI1185
aI895
aI157
aI3056
aa(lp398
I1040
aI145
aI3070
aI1644
aI237
aI1746
aI426
aI579
aI2858
aa(lp399
I318
aI3070
aI2093
aI3070
aI2093
aI1558
aI3216
aI614
aa(lp400
I2533
aI2565
aI2490
aI2107
aI1185
aI1166
aI2490
aI950
aa(lp401
I1558
aI1689
aI3020
aI2026
aI48
aI1121
aI1958
aa(lp402
I641
aI579
aI1372
aI608
aI157
aI2012
aI2984
aI801
aa(lp403
I710
aI3020
aI1132
aI1509
aI230
aI1185
aI226
aI157
aI2904
aa(lp404
I3070
aI1644
aI624
aI2313
aI2981
aI232
aI1513
aI2664
aI3028
aa(lp405
I2537
aI2399
aI414
aI2794
aI1093
aI2981
aI3095
aI184
aa(lp406
I691
aI611
aI2156
aI926
aI2317
aI2733
aI937
aI133
aa(lp407
I1166
aI226
aI3020
aI483
aI1644
aI915
aI157
aI2904
aI1558
aI1482
aa(lp408
I1426
aI1644
aI624
aI955
aI1513
aI2156
aI1154
aI3024
aa(lp409
I3020
aI2877
aI1285
aI2344
aI1513
aI588
aI1677
aa(lp410
I3020
aI886
aI624
aI1624
aI1513
aI1323
aI1809
aI1125
aI3020
aI2581
aa(lp411
I1185
aI1558
aI678
aI254
aI75
aI908
aI157
aI685
aI2812
aI2955
aa(lp412
I226
aI973
aI3020
aI960
aI1578
aI1736
aI2025
aI1644
aI399
aa(lp413
I691
aI2917
aI3216
aI2086
aI579
aI3105
aI2911
aI674
aa(lp414
I1185
aI1411
aI2821
aI952
aI1141
aI1903
aI1377
aI2126
aa(lp415
I1185
aI1951
aI594
aI514
aI1513
aI1323
aI1809
aI805
aI2301
aa(lp416
I226
aI973
aI3020
aI3168
aI2981
aI2095
aI1753
aa(lp417
I1185
aI3035
aI2537
aI2126
aI1644
aI2126
aI127
aI2764
aa(lp418
I624
aI1194
aI2563
aI1513
aI1916
aI1951
aa(lp419
I2801
aI3020
aI75
aI1392
aI2976
aI581
aI1072
aI1224
aI220
aa(lp420
I2816
aI581
aI624
aI2197
aI3020
aI1132
aI1509
aI230
aI685
aI351
aa(lp421
I1619
aI1718
aI2113
aI831
aI1185
aI111
aI1019
aa(lp422
I611
aI1846
aI572
aI3189
aI1558
aI1619
aI623
aa(lp423
I2801
aI3020
aI2326
aI2269
aI2790
aI1991
aI683
aa(lp424
I1185
aI1541
aI1318
aI926
aI1185
aI1619
aI952
aI951
aI2998
aa(lp425
I1185
aI1619
aI1367
aI3216
aI2801
aI3020
aI3024
aI1198
aa(lp426
I3106
aI1323
aI1809
aI131
aI1185
aI2842
aI1884
aa(lp427
I4
aI685
aI1636
aI926
aI1060
aI2537
aI364
aI1736
aa(lp428
I2976
aI540
aI1513
aI624
aI683
aI2801
aI1073
aI896
aa(lp429
I2816
aI588
aI761
aI1166
aI224
aI579
aI230
aI2227
aa(lp430
I2144
aI2107
aI624
aI395
aI1281
aI1198
aI926
aI558
aI946
aa(lp431
I675
aI1558
aI624
aI1001
aI1513
aI157
aI1901
aI1568
aa(lp432
I2809
aI1619
aI2744
aI2998
aI1513
aI145
aI1644
aI230
aI873
aI942
aa(lp433
I1166
aI2170
aI1513
aI1323
aI1073
aI572
aI1126
aI913
aa(lp434
I2744
aI1483
aI3020
aI2761
aI3020
aI2881
aI579
aI230
aa(lp435
I1185
aI2144
aI1619
aI235
aI1713
aI1619
aI624
aI1619
aI1513
aI145
aa(lp436
I581
aI2144
aI125
aI157
aI3002
aI2664
aa(lp437
I1426
aI1166
aI370
aI2137
aI157
aI2584
aI1558
aI3014
aI2308
aI2042
aa(lp438
I1185
aI396
aI2326
aI1470
aI2433
aI1746
aI2791
aa(lp439
I1372
aI1599
aI1802
aI2618
aI1513
aI611
aI977
aI2772
aa(lp440
I1776
aI227
aI1558
aI624
aI473
aI1513
aI624
aI1600
aa(lp441
I1185
aI387
aI235
aI2315
aI3127
aI2326
aI35
aI1583
aa(lp442
I406
aI227
aI691
aI157
aI926
aI1072
aI691
aI2744
aI2461
aa(lp443
I2685
aI2326
aI624
aI521
aI1513
aI2421
aI489
aa(lp444
I712
aI226
aI1665
aI145
aI2816
aI2565
aI951
aI3024
aa(lp445
I2020
aI157
aI6
aI134
aI582
aI1558
aI2565
aI974
aI2425
aa(lp446
I1809
aI645
aI662
aI1176
aI2565
aI2582
aI926
aI647
aI668
aa(lp447
I1644
aI2268
aI579
aI3221
aI1513
aI221
aI1066
aa(lp448
I2816
aI1903
aI3160
aI821
aI1185
aI3103
aI221
aI938
aa(lp449
I708
aI691
aI2744
aI1839
aI1673
aI1459
aI2582
aI691
aI2582
aI2738
aa(lp450
I1705
aI1323
aI1809
aI2937
aI1278
aI2790
aI3020
aI2209
aa(lp451
I679
aI624
aI2007
aI600
aI1558
aI736
aI1736
aa(lp452
I2200
aI1558
aI106
aI790
aI624
aI153
aI1213
aa(lp453
I126
aI2303
aI2931
aI1558
aI275
aI650
aa(lp454
I2145
aI101
aI624
aI1463
aI871
aI1644
aI2566
aa(lp455
I1558
aI565
aI2475
aI1509
aI2582
aI1570
aI790
aa(lp456
I1185
aI2537
aI624
aI2119
aI1466
aI2582
aI1778
aI63
aa(lp457
I1575
aI3065
aI1644
aI1347
aI1558
aI2565
aI779
aa(lp458
I60
aI1029
aI157
aI1694
aI237
aI2234
aI1742
aI873
aI2327
aa(lp459
I1558
aI1619
aI3169
aI577
aI1509
aI157
aI1382
aa(lp460
I2816
aI2690
aI203
aI3160
aI741
aI2816
aI237
aI1768
aI364
aa(lp461
I624
aI1324
aI2532
aI4
aI3101
aI2093
aI2537
aI145
aI1073
aa(lp462
I641
aI2093
aI691
aI2565
aI157
aI926
aI796
aI260
aI496
aa(lp463
I1622
aI1513
aI624
aI1466
aI1013
aI1265
aI1426
aI3095
aI1694
aI1227
aa(lp464
I2819
aI3193
aI2144
aI3133
aI2733
aI1809
aI2075
aI2664
aa(lp465
I1185
aI589
aI145
aI176
aI278
aI1419
aI157
aI1000
aa(lp466
I1644
aI2501
aI1920
aI871
aI3102
aI145
aI579
aI157
aI739
aa(lp467
I2544
aI611
aI549
aI579
aI2744
aI2491
aI100
aa(lp468
I1269
aI1072
aI1550
aI1166
aI1833
aI624
aI2532
aI2144
aI232
aa(lp469
I1644
aI93
aI624
aI601
aI1509
aI157
aI1867
aI790
aa(lp470
I691
aI796
aI1023
aI3023
aI1513
aI2733
aI1809
aI2253
aI973
aI528
aa(lp471
I1166
aI527
aI624
aI590
aI1185
aI2720
aI1072
aI624
aI779
aa(lp472
I1075
aI973
aI611
aI575
aI942
aI2613
aI1644
aI157
aI136
aa(lp473
I387
aI2144
aI1593
aI641
aI3020
aI2790
aI1045
aI624
aI3068
aa(lp474
I594
aI884
aI2914
aI3082
aI2816
aI493
aI1420
aa(lp475
I1644
aI2093
aI1166
aI300
aI624
aI1715
aI2870
aI2994
aa(lp476
I1573
aI2816
aI1367
aI1261
aI2113
aI1741
aI2801
aI611
aI926
aI967
aa(lp477
I1185
aI235
aI2113
aI426
aI1185
aI2991
aI1619
aI508
aI1845
aa(lp478
I796
aI1746
aI2315
aI1321
aI2981
aI1166
aI2801
aI2144
aI1713
aI1946
aa(lp479
I1595
aI2790
aI1032
aI1185
aI238
aI3151
aI479
aa(lp480
I871
aI1185
aI2201
aI1265
aI2139
aI1491
aI1185
aI1694
aa(lp481
I1185
aI2240
aI2608
aI2188
aI579
aI17
aI3159
aa(lp482
I1619
aI489
aI589
aI1316
aI1185
aI60
aI3020
aI579
aI2565
aa(lp483
I495
aI611
aI1247
aI1558
aI1776
aa(lp484
I157
aI2012
aI1934
aI2564
aI611
aI367
aa(lp485
I1580
aI611
aI2497
aI1746
aI1176
aI611
aI2497
aI2113
aa(lp486
I691
aI1644
aI611
aI2005
aI507
aI3020
aI2839
aI579
aI985
aa(lp487
I611
aI2997
aI3001
aI572
aI611
aI2272
aa(lp488
I1185
aI1630
aI157
aI2012
aI1809
aI3136
aI1114
aI2758
aa(lp489
I2733
aI723
aI742
aI572
aI579
aI157
aI926
aI1185
aI11
aa(lp490
I1166
aI3020
aI1578
aI2860
aI1789
aI144
aI2315
aa(lp491
I1644
aI1166
aI2156
aI3088
aI2801
aI2971
aI1258
aI2537
aI145
aa(lp492
I2501
aI145
aI2695
aI1166
aI488
aI1740
aI144
aI2315
aI538
aa(lp493
I3108
aI2686
aI999
aI2771
aI2113
aI237
aa(lp494
I1029
aI2308
aI1367
aI228
aI1166
aI431
aI1558
aI145
aI1770
aa(lp495
I1419
aI611
aI1826
aI2326
aI145
aI2315
aI263
aI913
aa(lp496
I579
aI2686
aI1740
aI2771
aI1541
aI572
aI2816
aI237
aI1716
aa(lp497
I387
aI579
aI2686
aI2188
aI1809
aI309
aI421
aa(lp498
I2801
aI387
aI573
aI1857
aI1072
aI952
aI2135
aI3010
aa(lp499
I641
aI558
aI573
aI457
aI2156
aI1710
aI2537
aI952
aI603
aa(lp500
I3020
aI1013
aI1072
aI10
aI1051
aI230
aa(lp501
I3030
aI157
aI368
aI2127
aI2852
aI431
aI230
aI575
aa(lp502
I1075
aI2144
aI1558
aI1702
aI2662
aI909
aI145
aa(lp503
I2806
aI2144
aI1211
aI1166
aI909
aI2537
aI611
aI1078
aa(lp504
I2816
aI431
aI1072
aI1029
aI3020
aI926
aI230
aI579
aI2733
aI2387
aa(lp505
I2976
aI2144
aI1425
aI364
aI364
aI572
aI611
aI1861
aI443
aa(lp506
I2976
aI1809
aI554
aI847
aI1737
aI603
aa(lp507
I1644
aI2111
aI2582
aI89
aI556
aI431
aI1845
aI1513
aI1987
aa(lp508
I1029
aI3020
aI3162
aI2617
aI2326
aI1286
aI2635
aI421
aa(lp509
I1211
aI1619
aI157
aI1793
aI1513
aI611
aI27
aI1185
aI2673
aa(lp510
I691
aI3166
aI188
aI662
aI1523
aI937
aI1523
aI2529
aa(lp511
I1523
aI1203
aI1513
aI1372
aI1619
aI1523
aI1619
aI1523
aI1746
aa(lp512
I597
aI579
aI611
aI2998
aI431
aI292
aI2594
aa(lp513
I3020
aI589
aI157
aI926
aI838
aI1644
aI2565
aI1965
aa(lp514
I1029
aI226
aI3020
aI1576
aI1072
aI2617
aI1599
aI1075
aI734
aa(lp515
I2633
aI1166
aI2565
aI664
aI558
aI2733
aI95
aI942
aa(lp516
I1166
aI3020
aI579
aI611
aI856
aI1576
aI2696
aa(lp517
I1185
aI2326
aI1809
aI1973
aI1513
aI1619
aI611
aI3165
aI946
aa(lp518
I2193
aI1689
aI572
aI469
aI1166
aI469
aI3020
aI3167
aI579
aI230
aa(lp519
I2565
aI3167
aI3020
aI2790
aI226
aI1675
aI169
aI743
aI145
aa(lp520
I3106
aI973
aI157
aI134
aI982
aI470
aI1644
aI837
aa(lp521
I2197
aI2144
aI3043
aI128
aI1166
aI731
aI1062
aI157
aI1448
aa(lp522
I1126
aI3128
aI2156
aI1192
aI328
aI139
aa(lp523
I691
aI35
aI2742
aI1832
aI1644
aI694
aa(lp524
I712
aI942
aI611
aI2012
aI624
aI637
aI581
aI2763
aI579
aI145
aa(lp525
I3109
aI2409
aI1519
aI509
aI611
aI2301
aa(lp526
I691
aI3060
aI1029
aI2773
aI1166
aI1272
aI1003
aI1644
aI230
aa(lp527
I1426
aI2144
aI611
aI2012
aI3043
aI942
aI1679
aI2616
aa(lp528
I2315
aI2144
aI624
aI2688
aI134
aI1675
aI169
aI1746
aI579
aI27
aa(lp529
I1176
aI1367
aI678
aI1771
aI2801
aI2059
aI3150
aa(lp530
I1185
aI3160
aI1166
aI1609
aI1509
aI230
aI2501
aI2093
aI2839
aI278
aa(lp531
I284
aI1784
aI1644
aI2831
aI1141
aI1018
aa(lp532
I581
aI157
aI3104
aI134
aI431
aI2120
aI1372
aI2302
aI298
aa(lp533
I624
aI1219
aI2315
aI364
aI2816
aI1126
aI2308
aI2315
aI624
aI2568
aa(lp534
I712
aI3106
aI611
aI27
aI1558
aI2158
aI1013
aI3020
aI2505
aa(lp535
I1426
aI2144
aI2107
aI1619
aI624
aI221
aI1973
aI1513
aI145
aa(lp536
I1689
aI973
aI364
aI3128
aI2568
aI1644
aI364
aI3128
aI2012
aI2839
aa(lp537
I1185
aI1689
aI2204
aI2816
aI364
aI3128
aI1426
aI3020
aI2568
aI230
aa(lp538
I60
aI691
aI2565
aI2501
aI2379
aI998
aI946
aa(lp539
I1185
aI2686
aI685
aI926
aI3077
aI1078
aI1513
aI2394
aI237
aa(lp540
I1166
aI2326
aI2565
aI2502
aI3020
aI1013
aI942
aa(lp541
I1166
aI2170
aI1644
aI230
aI2801
aI2144
aI369
aI913
aa(lp542
I712
aI1851
aI1689
aI1809
aI2789
aI204
aI2144
aI938
aa(lp543
I1183
aI573
aI1072
aI611
aI972
aI437
aI657
aI2156
aI876
aa(lp544
I1644
aI912
aI624
aI1600
aI1558
aI608
aI1513
aI926
aa(lp545
I2801
aI1600
aI1185
aI608
aI1029
aI1692
aI558
aI1031
aa(lp546
I1185
aI1166
aI2144
aI1138
aI3106
aI1644
aI589
aI237
aI538
aa(lp547
I2326
aI375
aI2093
aI84
aI2809
aI558
aI2722
aI1770
aa(lp548
I1211
aI1619
aI157
aI2771
aI157
aI926
aI631
aI1211
aI227
aI1619
aa(lp549
I1689
aI1713
aI2144
aI226
aI1746
aI1176
aI2144
aI31
aI220
aa(lp550
I796
aI926
aI157
aI926
aI1166
aI2144
aI1136
aI762
aI926
aI740
aa(lp551
I1619
aI364
aI741
aI1126
aI220
aI2144
aI31
aI2565
aI1746
aa(lp552
I226
aI581
aI691
aI157
aI926
aI2144
aI157
aI926
aI1037
aa(lp553
I3020
aI1272
aI1315
aI230
aI691
aI157
aI926
aI2144
aI2151
aa(lp554
I2816
aI641
aI2315
aI607
aI581
aI2144
aI611
aI2012
aI1366
aa(lp555
I2326
aI2835
aI1572
aI1513
aI1689
aI611
aI2012
aI2642
aa(lp556
I3020
aI431
aI1917
aI611
aI1476
aI2787
aI3088
aa(lp557
I3108
aI2144
aI457
aI230
aI1619
aI157
aI2147
aa(lp558
I1185
aI641
aI926
aI1750
aI573
aI572
aI1809
aI2655
aI136
aa(lp559
I1644
aI2864
aI2655
aI190
aI1176
aI2980
aI1761
aI1745
aa(lp560
I2987
aI1976
aI579
aI2172
aI1619
aI508
aI3023
aI1107
aa(lp561
I2102
aI145
aI1558
aI2757
aI641
aI488
aI144
aI1072
aI2315
aI503
aa(lp562
I1367
aI2551
aI945
aI1166
aI68
aI1915
aa(lp563
I1426
aI3020
aI1576
aI787
aI764
aI2537
aI611
aI979
aa(lp564
I611
aI188
aI1185
aI611
aI1041
aI1705
aI3023
aI2572
aa(lp565
I691
aI1045
aI472
aI2283
aI1281
aI2144
aI2107
aa(lp566
I2787
aI2144
aI2107
aI1185
aI124
aI1644
aI2315
aI2123
aa(lp567
I2075
aI2144
aI2107
aI124
aI1644
aI2315
aI2396
aa(lp568
I1185
aI1426
aI1809
aI1651
aI1253
aI1689
aI1929
aI727
aa(lp569
I2978
aI2971
aI876
aI2713
aI1004
aI3160
aI2790
aI1697
aa(lp570
I1584
aI145
aI2816
aI641
aI2144
aI2601
aI157
aI2743
aI1859
aa(lp571
I1185
aI2353
aI611
aI188
aI1185
aI611
aI1356
aI1987
aa(lp572
I2809
aI3096
aI230
aI579
aI2744
aI954
aI60
aI1541
aa(lp573
I1281
aI2144
aI2107
aI1035
aI1644
aI232
aI1809
aI2214
aI2673
aa(lp574
I522
aI2326
aI611
aI188
aI302
aI2713
aI1644
aI230
aa(lp575
I1126
aI2326
aI611
aI188
aI1425
aI2781
aI1644
aI145
aa(lp576
I1166
aI2144
aI1713
aI2713
aI573
aI572
aI1072
aI1619
aI157
aI136
aa(lp577
I1185
aI641
aI573
aI1013
aI2315
aI471
aI3020
aI2761
aI2713
aI2277
aa(lp578
I1166
aI2878
aI4
aI230
aI572
aI1513
aI157
aI2056
aI2619
aa(lp579
I1809
aI3068
aI579
aI926
aI1166
aI418
aI145
aI1746
aI1273
aa(lp580
I951
aI1477
aI2986
aI3020
aI2978
aI1756
aI1866
aa(lp581
I2144
aI3043
aI926
aI2713
aI2343
aI2144
aI1925
aI3020
aI926
aI2713
aa(lp582
I1185
aI691
aI157
aI939
aI60
aI1029
aI558
aI2878
aI2609
aI145
aa(lp583
I934
aI157
aI351
aI691
aI157
aI939
aI1644
aI2149
aI2713
aa(lp584
I581
aI3020
aI3077
aI230
aI157
aI3068
aI572
aI157
aI952
aI3155
aa(lp585
I1185
aI702
aI2713
aI157
aI351
aI4
aI1887
aI1166
aI3068
aa(lp586
I2139
aI2063
aI247
aI3051
aI1185
aI3020
aI3077
aI2139
aI538
aa(lp587
I1185
aI2139
aI691
aI157
aI939
aI191
aI1509
aI145
aI2565
aI2994
aa(lp588
I2816
aI342
aI624
aI2913
aI157
aI351
aI1185
aI3020
aI2113
aI237
aa(lp589
I2156
aI2067
aI226
aI2878
aI2771
aI2816
aI145
aI913
aa(lp590
I1426
aI2026
aI3020
aI199
aI226
aI431
aI364
aI1163
aI469
aI2111
aa(lp591
I691
aI1619
aI624
aI2664
aI235
aI2881
aI588
aI462
aa(lp592
I2816
aI1426
aI3020
aI5
aI579
aI665
aI235
aI2193
aI1509
aI230
aa(lp593
I1185
aI2706
aI1248
aI2113
aI1248
aI579
aI605
aI2374
aa(lp594
I226
aI2144
aI13
aI664
aI239
aI558
aI589
aI1248
aa(lp595
I3106
aI119
aI611
aI2319
aI746
aI746
aI743
aI1244
aa(lp596
I1644
aI624
aI2040
aI2664
aI1558
aI611
aI539
aI1223
aI2616
aa(lp597
I1426
aI1644
aI2902
aI1163
aI611
aI1817
aI789
aI1029
aa(lp598
I3106
aI119
aI3020
aI1196
aI364
aI1163
aI2315
aI1531
aI3162
aa(lp599
I2326
aI1102
aI1509
aI230
aI579
aI624
aI1094
aI2664
aa(lp600
I1426
aI579
aI683
aI674
aI611
aI463
aI1969
aI1817
aa(lp601
I1833
aI1888
aI5
aI1509
aI2630
aI1163
aI558
aI3210
aa(lp602
I1619
aI298
aI2113
aI2008
aI1644
aI2111
aI1004
aI3020
aI2111
aI230
aa(lp603
I1185
aI2008
aI1248
aI298
aI1426
aI665
aI431
aI1244
aI230
aI145
aa(lp604
I581
aI624
aI2372
aI95
aI1513
aI157
aI3005
aI1183
aI3024
aa(lp605
I791
aI341
aI2852
aI1072
aI435
aI157
aI739
aa(lp606
I691
aI226
aI442
aI1513
aI1098
aI3020
aI119
aI2315
aI668
aa(lp607
I2537
aI2923
aI180
aI1608
aI1281
aI2144
aI3043
aI3210
aa(lp608
I796
aI347
aI226
aI3108
aI157
aI1873
aI873
aI1519
aa(lp609
I3009
aI624
aI2886
aI414
aI761
aI2537
aI230
aa(lp610
I691
aI2498
aI3024
aI973
aI2481
aI2139
aI2114
aI1185
aI2420
aa(lp611
I2976
aI1829
aI2976
aI1132
aI624
aI1127
aI1281
aI3160
aI119
aI2315
aa(lp612
I2816
aI1573
aI3024
aI1458
aI145
aI1166
aI3020
aI1576
aI1072
aI3024
aa(lp613
I1644
aI3099
aI265
aI2216
aI1513
aI1280
aI1426
aI2144
aI2107
aI1568
aa(lp614
I2816
aI1166
aI1029
aI539
aI1513
aI414
aI1185
aI911
aI219
aa(lp615
I3020
aI144
aI2605
aI2812
aI437
aI1558
aI157
aI1951
aa(lp616
I1105
aI725
aI2326
aI2411
aI1029
aI1252
aa(lp617
I2816
aI1888
aI1261
aI2640
aI1513
aI2266
aI2126
aa(lp618
I624
aI3051
aI1740
aI3104
aI563
aI1185
aI198
aI2183
aa(lp619
I2113
aI2139
aI1558
aI230
aI920
aI3020
aI1101
aa(lp620
I624
aI1134
aI157
aI3024
aI624
aI3051
aI157
aI667
aa(lp621
I1372
aI815
aI1558
aI2919
aI1124
aI2672
aa(lp622
I691
aI1426
aI1372
aI1674
aI2411
aI2113
aI1568
aa(lp623
I579
aI1672
aI2707
aI1513
aI926
aI1644
aI230
aa(lp624
I157
aI548
aI1425
aI3162
aI1513
aI3
aI1558
aI1740
aI913
aa(lp625
I81
aI728
aI1644
aI2137
aI1895
aI1558
aI2494
aa(lp626
I770
aI1611
aI2224
aI2315
aI120
aa(lp627
I2326
aI1367
aI2919
aI2276
aI1652
aI2537
aI230
aa(lp628
I2809
aI60
aI2816
aI1073
aI1320
aI752
aI1587
aI280
aa(lp629
I1513
aI611
aI463
aI1906
aI924
aI573
aI1644
aI145
aa(lp630
I2565
aI78
aI3020
aI2913
aI2816
aI226
aI796
aI824
aI1763
aa(lp631
I3020
aI2450
aI227
aI752
aI1587
aI1185
aI2194
aI1022
aI1194
aa(lp632
I364
aI1736
aI1185
aI979
aI2113
aI2981
aI1809
aI2721
aI742
aa(lp633
I3106
aI1644
aI108
aI624
aI2338
aI1513
aI611
aI2301
aa(lp634
I364
aI1736
aI157
aI979
aI611
aI666
aI2301
aI119
aI448
aa(lp635
I157
aI979
aI364
aI1736
aI624
aI3120
aI1513
aI1166
aI677
aa(lp636
I157
aI979
aI558
aI2483
aI1166
aI2144
aI579
aI2093
aI3043
aI2227
aa(lp637
I1809
aI2898
aI83
aI819
aI1558
aI771
aI1163
aa(lp638
I2816
aI624
aI2546
aI558
aI1166
aI1114
aI2822
aa(lp639
I1185
aI882
aI579
aI2093
aI611
aI463
aI2975
aI729
aa(lp640
I1644
aI251
aI2565
aI1256
aI572
aI2098
aa(lp641
I1809
aI2275
aI1513
aI608
aI1619
aI2334
aI1644
aI624
aI979
aa(lp642
I1185
aI2326
aI2744
aI2473
aI572
aI1989
aa(lp643
I624
aI2040
aI1008
aI2736
aI1185
aI624
aI685
aI1797
aI1973
aa(lp644
I2976
aI2986
aI364
aI1008
aI2170
aI572
aI611
aI2117
aI1973
aa(lp645
I1185
aI157
aI1797
aI677
aI611
aI1844
aI926
aI1513
aI979
aa(lp646
I2474
aI364
aI1736
aI1185
aI979
aI1809
aI2961
aI572
aI335
aa(lp647
I1185
aI247
aI558
aI1861
aI1886
aI1073
aI2257
aI624
aI3051
aa(lp648
I1426
aI1166
aI364
aI1736
aI572
aI1848
aI691
aI1809
aI2193
aa(lp649
I1523
aI979
aI579
aI926
aI1558
aI2298
aI2359
aI558
aI3062
aa(lp650
I1558
aI157
aI952
aI808
aI226
aI157
aI1736
aI558
aI2669
aa(lp651
I1185
aI1644
aI624
aI2962
aI2650
aI769
aI157
aI979
aa(lp652
I319
aI1600
aI364
aI1736
aI572
aI157
aI1797
aI1953
aa(lp653
I1185
aI579
aI2582
aI608
aI1513
aI926
aI558
aI1780
aI1809
aI1973
aa(lp654
I1029
aI1475
aI2326
aI611
aI808
aI1523
aI157
aI926
aa(lp655
I611
aI2012
aI474
aI2107
aI1645
aI1045
aI1558
aI145
aa(lp656
I691
aI2144
aI1072
aI458
aI1176
aI157
aI608
aI2290
aI2629
aa(lp657
I1185
aI3020
aI1576
aI1045
aI1558
aI227
aI1185
aI235
aI1558
aI230
aa(lp658
I1523
aI581
aI235
aI5
aI611
aI808
aI579
aI157
aI2301
aa(lp659
I585
aI157
aI979
aI1644
aI1797
aI1185
aI1008
aI603
aa(lp660
I3106
aI1365
aI741
aI3020
aI1426
aI3020
aI335
aI157
aI739
aa(lp661
I247
aI1047
aI22
aI1065
aI2105
aI1644
aI2710
aa(lp662
I1166
aI1644
aI157
aI2535
aI573
aI1856
aI2025
aI3210
aa(lp663
I2537
aI2659
aI1513
aI1481
aI579
aI1218
aI2426
aI1513
aI526
aa(lp664
I2816
aI2144
aI1644
aI2172
aI157
aI1193
aI1996
aI2113
aa(lp665
I2026
aI3109
aI1793
aI1073
aI157
aI620
aI136
aa(lp666
I2144
aI469
aI1513
aI2635
aI1185
aI364
aI943
aI1116
aa(lp667
I2107
aI627
aI624
aI948
aI1513
aI35
aI2742
aI3088
aa(lp668
I230
aI2790
aI3020
aI1072
aI146
aI1285
aI579
aI1203
aI380
aa(lp669
I656
aI1281
aI2144
aI2107
aI1072
aI387
aI3020
aI1940
aI2144
aI2107
aa(lp670
I2339
aI624
aI2787
aI1064
aI1513
aI157
aI2087
aa(lp671
I2537
aI1516
aI2981
aI1820
aI2144
aI1136
aI1320
aI1185
aI1973
aa(lp672
I1185
aI60
aI2925
aI2144
aI2973
aI2315
aI1060
aI3020
aI891
aa(lp673
I691
aI2673
aI1376
aI1782
aI691
aI1809
aI42
aI1029
aI685
aa(lp674
I509
aI1166
aI1600
aI581
aI77
aI1166
aI1600
aI1320
aa(lp675
I1426
aI3020
aI2308
aI2111
aI230
aI1457
aI1509
aI157
aI1947
aa(lp676
I1426
aI2976
aI611
aI926
aI4
aI1375
aI2582
aI2192
aI1695
aa(lp677
I2384
aI1644
aI1166
aI3017
aI2326
aI864
aI2691
aa(lp678
I509
aI1166
aI1600
aI1426
aI2144
aI396
aI733
aI1681
aa(lp679
I1185
aI3018
aI197
aI145
aI1558
aI1166
aI1694
aI1126
aI1736
aa(lp680
I1426
aI926
aI3173
aI2537
aI624
aI1125
aI573
aI741
aa(lp681
I2308
aI2155
aI2063
aI1513
aI104
aI2799
aa(lp682
I509
aI1166
aI1600
aI431
aI3020
aI1711
aI145
aI84
aa(lp683
I2339
aI624
aI2846
aI1513
aI364
aI3128
aI2419
aa(lp684
I1185
aI2565
aI157
aI602
aI509
aI157
aI2012
aI2527
aa(lp685
I1644
aI3132
aI624
aI3136
aI2155
aI1509
aI611
aI1973
aa(lp686
I1644
aI876
aI1599
aI145
aI2144
aI1713
aI624
aI376
aI1513
aI830
aa(lp687
I1903
aI2819
aI1644
aI926
aI3020
aI973
aI1787
aI796
aI2700
aa(lp688
I3106
aI1888
aI431
aI3020
aI816
aI1509
aI624
aI739
aa(lp689
I1426
aI1689
aI3020
aI372
aI157
aI2918
aI1234
aI1019
aa(lp690
I558
aI1923
aI1166
aI1368
aI1185
aI1166
aI634
aI1644
aI1196
aa(lp691
I1792
aI180
aI624
aI1280
aI2113
aI2034
aI2537
aI611
aI351
aI2692
aa(lp692
I624
aI1926
aI1166
aI300
aI145
aI51
aI1558
aI157
aI2126
aa(lp693
I2694
aI1452
aI1509
aI1644
aI2864
aI1166
aI1892
aI579
aI145
aa(lp694
I2976
aI581
aI2326
aI2296
aI2528
aI624
aI1210
aI873
aI3064
aa(lp695
I2582
aI384
aI2761
aI1072
aI1436
aI1425
aI3162
aI2537
aI230
aa(lp696
I624
aI929
aI2869
aI1272
aI992
aI2093
aI1509
aa(lp697
I1166
aI2041
aI1200
aI451
aI1062
aI2582
aI63
aa(lp698
I2801
aI3035
aI3160
aI1708
aI1558
aI1809
aI1549
aa(lp699
I1746
aI1786
aI1644
aI145
aI1176
aI2844
aI1644
aI2582
aI251
aa(lp700
I691
aI1166
aI1393
aI1549
aI558
aI1922
aI2565
aI579
aI157
aI363
aa(lp701
I157
aI136
aI729
aI3046
aI1185
aI157
aI2913
aI1303
aa(lp702
I2986
aI973
aI157
aI926
aI1756
aI624
aI1252
aI1460
aa(lp703
I1513
aI157
aI2372
aI417
aI1426
aI2537
aI230
aI3020
aI1436
aa(lp704
I2537
aI1281
aI2144
aI2107
aI2819
aI2852
aI3020
aI201
aI145
aI2925
aa(lp705
I1004
aI3020
aI1386
aI1513
aI792
aI572
aI796
aI2792
aa(lp706
I712
aI1689
aI1756
aI2978
aI157
aI1599
aI1926
aI226
aI2063
aa(lp707
I1426
aI2919
aI767
aI973
aI371
aI2816
aI1252
aa(lp708
I226
aI2852
aI3020
aI2869
aI387
aI845
aI1509
aI624
aI205
aa(lp709
I579
aI1827
aI1436
aI796
aI1124
aI2308
aI3020
aI3064
aa(lp710
I226
aI973
aI796
aI1952
aI1558
aI157
aI667
aI2716
aI2196
aa(lp711
I124
aI667
aI1513
aI1236
aI926
aI1425
aI3162
aa(lp712
I2308
aI1625
aI796
aI2372
aI3005
aI579
aI2582
aI1156
aI2472
aa(lp713
I2816
aI926
aI691
aI926
aI2986
aI2308
aI1756
aI157
aI2109
aa(lp714
I1903
aI2537
aI230
aI1262
aI3160
aI250
aI478
aa(lp715
I2021
aI230
aI1673
aI2316
aI1185
aI942
aI2093
aI876
aI1644
aI2442
aa(lp716
I1029
aI1576
aI3020
aI2976
aI624
aI426
aI13
aI1531
aI2916
aa(lp717
I973
aI2839
aI2093
aI1644
aI2582
aI2156
aI2985
aI1257
aa(lp718
I624
aI2801
aI3160
aI2978
aI1072
aI35
aI1768
aI2513
aa(lp719
I691
aI2028
aI624
aI2062
aI2154
aI1513
aI1276
aI1820
aa(lp720
I124
aI2113
aI2731
aI1029
aI65
aI1185
aI1029
aI3117
aa(lp721
I1903
aI1276
aI1806
aI579
aI1166
aI1141
aI1092
aI2106
aa(lp722
I3070
aI2050
aI1513
aI27
aI235
aI2479
aI3171
aI2113
aa(lp723
I1523
aI62
aI1193
aI579
aI624
aI1184
aa(lp724
I1029
aI572
aI624
aI1600
aI1166
aI202
aI1597
aI2976
aI157
aI380
aa(lp725
I1523
aI2976
aI624
aI337
aI2801
aI624
aI963
aI558
aI63
aa(lp726
I1644
aI589
aI2296
aI39
aI2922
aI2441
aa(lp727
I2326
aI75
aI2943
aI2582
aI1879
aI25
aa(lp728
I1531
aI2113
aI1597
aI13
aI1108
aI1161
aI950
aa(lp729
I1425
aI647
aI1644
aI47
aI1425
aI718
aI1644
aI2858
aa(lp730
I1689
aI572
aI1536
aI95
aI2649
aI2113
aI1597
aI3162
aa(lp731
I1166
aI1150
aI1513
aI1852
aI239
aI1509
aI1597
aI2903
aa(lp732
I1903
aI35
aI237
aI4
aI35
aI237
aI237
aI1817
aa(lp733
I1185
aI1597
aI2816
aI237
aI973
aI35
aI664
aI1489
aa(lp734
I2958
aI1972
aI1185
aI624
aI2588
aa(lp735
I572
aI76
aI1524
aI189
aI1597
aa(lp736
I1509
aI1592
aI2239
aI1619
aI2107
aI1513
aI188
aI2106
aa(lp737
I1185
aI1597
aI579
aI1104
aI56
aI2113
aI2962
aI75
aa(lp738
I528
aI1513
aI624
aI2294
aI1185
aI1698
aI1513
aI624
aI1092
aa(lp739
I624
aI237
aI558
aI664
aI1513
aI1536
aI188
aI1244
aa(lp740
I624
aI3051
aI2976
aI1536
aI1157
aI558
aI896
aa(lp741
I1185
aI1597
aI579
aI35
aI1531
aI2254
aI488
aI3064
aa(lp742
I579
aI1619
aI1362
aI1976
aI1597
aI2790
aI2296
aI1973
aa(lp743
I2816
aI1597
aI3070
aI1767
aI1767
aI1597
aI691
aI2388
aI979
aa(lp744
I712
aI3106
aI539
aI1746
aI558
aI188
aI2075
aI371
aa(lp745
I2326
aI1166
aI2156
aI1302
aI2801
aI2673
aI558
aI942
aa(lp746
I624
aI1444
aI2637
aI463
aI2816
aI2212
aI488
aI573
aI1581
aa(lp747
I691
aI1166
aI2156
aI2203
aI2801
aI558
aI579
aI573
aI946
aa(lp748
I624
aI2608
aI3003
aI2790
aI1705
aI2976
aI1577
aI1809
aI1274
aa(lp749
I2976
aI624
aI1240
aI2446
aI1513
aI624
aI1595
aa(lp750
I282
aI1509
aI2733
aI1032
aI1185
aI2297
aI2976
aI248
aa(lp751
I1426
aI1446
aI1350
aI2744
aI3101
aI1537
aI1313
aa(lp752
I2816
aI691
aI2744
aI962
aI943
aI572
aI2744
aI1244
aa(lp753
I235
aI946
aI1441
aI1185
aI462
aI222
aa(lp754
I874
aI1644
aI2543
aI2156
aI1595
aI431
aI1072
aI1029
aa(lp755
I1513
aI2744
aI2156
aI3179
aI2113
aI17
aI757
aI3162
aa(lp756
I1185
aI1029
aI1513
aI1597
aI2075
aI1185
aI544
aI1987
aa(lp757
I1426
aI1166
aI2308
aI222
aI157
aI1448
aI1422
aI1536
aI2673
aa(lp758
I1072
aI1773
aI1075
aI624
aI2066
aI2702
aa(lp759
I1513
aI3164
aI2308
aI2831
aI2565
aI2729
aI2461
aa(lp760
I2816
aI1597
aI2308
aI2327
aI1746
aI1248
aI579
aI1372
aI374
aa(lp761
I1176
aI2576
aI1510
aI2908
aI1558
aI2883
aI1600
aa(lp762
I1426
aI630
aI742
aI2308
aI2942
aI2967
aa(lp763
I1185
aI332
aI919
aI2690
aI624
aI150
aI1513
aI1364
aa(lp764
I1075
aI1353
aI2582
aI1005
aI1075
aI680
aI879
aI2183
aI2308
aI699
aa(lp765
I624
aI1094
aI2899
aI1513
aI1536
aI949
aa(lp766
I1630
aI2137
aI1185
aI2202
aI1717
aa(lp767
I2308
aI1597
aI2196
aI278
aI1536
aI2568
aI2308
aI1045
aI2063
aI147
aa(lp768
I60
aI579
aI624
aI1163
aI1513
aI1619
aI3110
aa(lp769
I1166
aI497
aI2565
aI1466
aI2690
aI1644
aI624
aI412
aI1762
aa(lp770
I1029
aI1004
aI624
aI3015
aI1166
aI1536
aI2012
aI2360
aa(lp771
I1597
aI946
aI579
aI2565
aI1185
aI329
aI579
aI2534
aI1163
aa(lp772
I2156
aI926
aI301
aI611
aI50
aI2315
aI573
aI1072
aI471
aa(lp773
I611
aI2245
aI2852
aI916
aI2315
aI1176
aI9
aa(lp774
I2801
aI2816
aI823
aI2326
aI14
aI572
aI2391
aa(lp775
I576
aI2279
aI579
aI2582
aI1642
aI1856
aa(lp776
I1029
aI926
aI2315
aI2144
aI3108
aI823
aI2144
aI1586
aa(lp777
I611
aI785
aI1163
aI60
aI1004
aI235
aI199
aI1558
aI619
aa(lp778
I576
aI2111
aI1587
aI1185
aI431
aI1072
aI2102
aa(lp779
I624
aI441
aI1513
aI926
aI1558
aI1809
aI3072
aI249
aa(lp780
I2501
aI2565
aI1194
aI3040
aI3070
aI624
aI617
aI2315
aa(lp781
I2801
aI2998
aI624
aI1816
aI1281
aI1740
aI898
aI75
aa(lp782
I1320
aI826
aI1644
aI624
aI1819
aI1166
aI1426
aI235
aI2111
aa(lp783
I1386
aI1513
aI926
aI1746
aI1500
aI1013
aI2315
aI624
aI2881
aa(lp784
I1523
aI740
aI573
aI996
aI2801
aI1425
aI1705
aI1513
aI1116
aa(lp785
I2516
aI1446
aI813
aI545
aI1746
aI2456
aI1746
aI3117
aa(lp786
I1425
aI1536
aI3004
aI1689
aI2852
aI3020
aI431
aI2816
aI2903
aa(lp787
I3009
aI624
aI1710
aI1185
aI169
aI1513
aI1536
aI667
aa(lp788
I3020
aI2790
aI796
aI2917
aI1600
aI2981
aI1619
aI1644
aI2249
aa(lp789
I1075
aI2342
aI1644
aI431
aI1004
aI1597
aI1180
aa(lp790
I1075
aI1468
aI3020
aI2353
aI624
aI2851
aI1768
aa(lp791
I2633
aI3020
aI157
aI736
aI2606
aI624
aI1693
aI691
aI1597
aa(lp792
I1075
aI1132
aI624
aI345
aI1513
aI1851
aI972
aa(lp793
I1426
aI1597
aI2790
aI2271
aI1536
aI1079
aI2433
aI2805
aa(lp794
I1075
aI1468
aI3020
aI2352
aI1558
aI157
aI317
aI3024
aa(lp795
I1281
aI1597
aI1013
aI2315
aI1523
aI1536
aI2125
aI567
aa(lp796
I2816
aI3070
aI1809
aI1194
aI3004
aI3210
aI1185
aI1132
aI1513
aI725
aa(lp797
I656
aI1281
aI1597
aI2113
aI3106
aI743
aI1597
aI589
aI1367
aa(lp798
I1029
aI762
aI1809
aI1380
aI572
aI926
aI1166
aI579
aI1536
aI2978
aa(lp799
I387
aI1597
aI431
aI1203
aI1125
aI3160
aI1485
aI796
aI508
aa(lp800
I1166
aI269
aI2523
aI1166
aI3162
aI145
aI1134
aI1536
aI3004
aa(lp801
I3020
aI2852
aI579
aI3024
aI2574
aI1536
aI169
aI1513
aI1820
aa(lp802
I1523
aI2981
aI1536
aI602
aI594
aI2563
aI1513
aI1710
aI1644
aI57
aa(lp803
I1425
aI1536
aI3228
aI726
aI1644
aI3210
aI1536
aI437
aa(lp804
I712
aI2501
aI145
aI1837
aI1425
aI2981
aI1536
aI86
aa(lp805
I594
aI1879
aI1851
aI1513
aI1536
aI68
aa(lp806
I1185
aI112
aI1147
aI1644
aI1129
aI776
aI247
aI1394
aa(lp807
I1419
aI2778
aI1597
aI1513
aI1745
aa(lp808
I2315
aI1281
aI1597
aI1667
aI1536
aI49
aI572
aI1029
aI1715
aa(lp809
I1166
aI1597
aI1536
aI2012
aI1013
aI2810
aI1536
aI1600
aa(lp810
I1644
aI1689
aI1597
aI2978
aI1644
aI1597
aI573
aI558
aI2218
aa(lp811
I1536
aI2012
aI1644
aI1
aI1513
aI1346
aI1260
aa(lp812
I3020
aI1576
aI1644
aI2175
aI387
aI2072
aI1029
aI2315
aI1835
aa(lp813
I1072
aI1315
aI1536
aI1820
aI2315
aI573
aI508
aI1523
aI3023
aa(lp814
I581
aI1541
aI2315
aI2030
aI75
aI2816
aI1166
aI2801
aI572
aa(lp815
I4
aI536
aI220
aI3106
aI2113
aI2686
aI1167
aI2946
aa(lp816
I2801
aI2784
aI691
aI1679
aI2864
aI1238
aa(lp817
I624
aI2949
aI520
aI1513
aI1809
aI1642
aI556
aa(lp818
I712
aI1166
aI2899
aI2715
aI1558
aI1809
aI1607
aI2193
aa(lp819
I60
aI1513
aI3063
aI1964
aI1487
aI1513
aI624
aI1694
aa(lp820
I1244
aI145
aI1536
aI1530
aI579
aI2296
aI676
aI3199
aa(lp821
I1903
aI363
aI2981
aI1134
aI579
aI339
aI741
aI1946
aa(lp822
I1166
aI3020
aI1856
aI2111
aI1689
aI624
aI678
aI1466
aI2715
aI1196
aa(lp823
I1644
aI2565
aI2518
aI1295
aI1513
aI1536
aI2888
aa(lp824
I3166
aI488
aI2113
aI1804
aI1523
aI3166
aI221
aI235
aa(lp825
I1523
aI3166
aI1945
aI2315
aI624
aI1393
aa(lp826
I712
aI1218
aI3020
aI1576
aI624
aI2797
aI1513
aI1642
aI298
aa(lp827
I1644
aI381
aI170
aI2790
aI285
aI2427
aI2568
aa(lp828
I3070
aI2976
aI624
aI1137
aI589
aI2021
aI624
aI482
aI1816
aa(lp829
I1029
aI431
aI2686
aI3176
aI456
aI1644
aI2744
aI1019
aa(lp830
I247
aI1410
aI1127
aI1558
aI1166
aI2801
aI902
aI220
aa(lp831
I579
aI1605
aI2247
aI1619
aI1938
aI431
aI264
aa(lp832
I1139
aI2433
aI579
aI624
aI1061
aI1513
aI2616
aa(lp833
I1858
aI1644
aI2381
aI2823
aI1425
aI292
aa(lp834
I1299
aI2201
aI1630
aI2582
aI3165
aI737
aa(lp835
I1185
aI1600
aI1166
aI657
aI558
aI1073
aI2582
aI670
aI2205
aa(lp836
I1600
aI558
aI2628
aI624
aI1021
aI2106
aI1509
aI1987
aa(lp837
I1185
aI1751
aI624
aI491
aI579
aI784
aI1382
aa(lp838
I1507
aI1509
aI624
aI2393
aI1513
aI1897
aI2673
aa(lp839
I1185
aI2030
aI2035
aI2816
aI691
aI2582
aI2499
aI1644
aI2228
aa(lp840
I1185
aI641
aI1644
aI169
aI579
aI2858
aI157
aI1448
aI2308
aI1519
aa(lp841
I375
aI611
aI27
aI442
aI2582
aI3172
aI602
aa(lp842
I572
aI573
aI611
aI2978
aI611
aI1530
aI2852
aI2716
aI1148
aa(lp843
I157
aI1888
aI454
aI1644
aI624
aI2918
aI674
aa(lp844
I3043
aI2144
aI667
aI157
aI3198
aI2852
aI2315
aI1504
aa(lp845
I2197
aI239
aI3070
aI1644
aI230
aI431
aI2408
aI157
aI2301
aa(lp846
I572
aI573
aI611
aI441
aI1166
aI2144
aI2092
aI2537
aI230
aa(lp847
I1029
aI180
aI2537
aI3093
aI1062
aI157
aI1845
aI1644
aI1202
aa(lp848
I1644
aI2063
aI2690
aI3006
aI1185
aI348
aI1710
aI579
aI145
aa(lp849
I624
aI950
aI1185
aI2622
aI1513
aI611
aI735
aa(lp850
I712
aI796
aI611
aI926
aI387
aI539
aI572
aI1072
aI1029
aI2508
aa(lp851
I573
aI572
aI157
aI926
aI1166
aI202
aI364
aI1736
aI52
aa(lp852
I364
aI3128
aI762
aI926
aI1166
aI558
aI157
aI1429
aI2514
aa(lp853
I1644
aI2297
aI624
aI3143
aI77
aI691
aI611
aI939
aa(lp854
I691
aI230
aI2606
aI3020
aI2633
aI2144
aI3043
aI1361
aI2361
aa(lp855
I2537
aI145
aI180
aI3019
aI1558
aI2503
aI1619
aI328
aI566
aa(lp856
I2603
aI1513
aI1735
aI2148
aI1619
aI364
aI1736
aa(lp857
I1185
aI1619
aI157
aI969
aI1185
aI1619
aI157
aI35
aI1973
aa(lp858
I1185
aI691
aI2565
aI2603
aI1541
aI572
aI796
aI2085
aa(lp859
I573
aI572
aI1029
aI2142
aI1844
aI579
aI157
aI979
aa(lp860
I3211
aI796
aI790
aI1029
aI560
aI572
aI2976
aI364
aa(lp861
I796
aI2254
aI1029
aI762
aI796
aI2673
aI1513
aI2733
aI2563
aa(lp862
I1185
aI691
aI157
aI2012
aI364
aI3128
aI27
aI431
aI2956
aa(lp863
I2976
aI3020
aI1619
aI3051
aI579
aI1619
aI3113
aI932
aa(lp864
I2816
aI1426
aI157
aI137
aI1107
aI145
aI157
aI2012
aI1038
aa(lp865
I61
aI1185
aI1794
aI1558
aI1617
aI1942
aa(lp866
I364
aI3128
aI1735
aI1112
aI1990
aI3020
aI1459
aa(lp867
I2012
aI1029
aI1494
aI1183
aI2468
aa(lp868
I1269
aI230
aI157
aI2012
aI1166
aI691
aI157
aI2012
aI3020
aI2568
aa(lp869
I2830
aI157
aI2425
aI1558
aI188
aI1513
aI611
aI298
aa(lp870
I509
aI157
aI926
aI2308
aI2315
aI2976
aI3020
aI1576
aI1073
aa(lp871
I1558
aI2812
aI791
aI602
aI3061
aI1185
aI935
aa(lp872
I1426
aI1710
aI2790
aI1790
aI2582
aI1805
aI1185
aI905
aI2582
aI1382
aa(lp873
I1558
aI2618
aI1185
aI2330
aI1426
aI2582
aI2335
aI1742
aa(lp874
I4
aI2747
aI1509
aI1644
aI1118
aI1723
aI674
aa(lp875
I1185
aI1619
aI1367
aI2626
aI2649
aI1073
aI3222
aI1977
aa(lp876
I2113
aI2136
aI1523
aI805
aI2690
aI1513
aI2301
aa(lp877
I1575
aI474
aI624
aI1257
aI1513
aI2582
aI2294
aa(lp878
I691
aI2733
aI1809
aI1600
aI431
aI3020
aI1073
aI215
aa(lp879
I509
aI2460
aI1118
aI3172
aI1495
aa(lp880
I1166
aI3160
aI2308
aI83
aI2260
aI2537
aI949
aa(lp881
I157
aI2156
aI952
aI188
aI387
aI157
aI2377
aI548
aa(lp882
I2582
aI188
aI2308
aI579
aI1372
aI1263
aI2618
aI2315
aI2209
aa(lp883
I1185
aI235
aI2308
aI946
aI1185
aI3160
aI579
aI227
aI1045
aI1213
aa(lp884
I1426
aI3020
aI2790
aI2209
aI2326
aI2812
aI1517
aI602
aI1206
aa(lp885
I624
aI3073
aI888
aI1513
aI1676
aI1198
aI2425
aa(lp886
I1426
aI787
aI2935
aI956
aI3020
aI2111
aI2910
aa(lp887
I1185
aI1604
aI284
aI3004
aI1644
aI2721
aI1562
aa(lp888
I1426
aI3020
aI2790
aI2209
aI624
aI785
aI617
aI3155
aa(lp889
I859
aI1509
aI624
aI1456
aI1513
aI624
aI1816
aa(lp890
I1185
aI624
aI2178
aI1743
aI2524
aI1513
aI624
aI2604
aI1061
aa(lp891
I447
aI1965
aI1558
aI3068
aI1185
aI3068
aI1558
aI1965
aa(lp892
I1426
aI3020
aI2790
aI2209
aI2733
aI1151
aI1513
aI2904
aa(lp893
I1523
aI2904
aI573
aI2012
aI940
aI1644
aI2647
aa(lp894
I2070
aI4
aI257
aI145
aI2986
aI1644
aI2443
aa(lp895
I1166
aI1600
aI2978
aI1320
aI1185
aI1211
aI157
aI926
aI474
aa(lp896
I2565
aI3024
aI572
aI2976
aI1809
aI2137
aI2801
aI1272
aI2653
aa(lp897
I2816
aI1411
aI1644
aI2790
aI1166
aI2801
aI573
aI2403
aI1644
aI3077
aa(lp898
I1903
aI1604
aI1075
aI1510
aI1075
aI414
aI1075
aI1103
aI2114
aa(lp899
I2816
aI1194
aI1980
aI2110
aI2744
aI1498
aa(lp900
I3106
aI1558
aI2565
aI1562
aI2308
aI188
aI142
aI1809
aI1114
aa(lp901
I13
aI1722
aI572
aI796
aI2825
aI1176
aI1809
aI1602
aa(lp902
I712
aI3106
aI2308
aI1446
aI165
aI1350
aI142
aI2690
aa(lp903
I509
aI624
aI822
aI1109
aI1513
aI944
aI298
aa(lp904
I1426
aI243
aI2083
aI2113
aI1072
aI1029
aI2658
aa(lp905
I1075
aI2054
aI1513
aI2760
aI1029
aI1715
aI2816
aI1600
aI2684
aa(lp906
I712
aI1669
aI1634
aI1281
aI203
aa(lp907
I2308
aI2812
aI469
aI3224
aI2537
aI2812
aI380
aI2227
aI2086
aa(lp908
I1523
aI1689
aI1715
aI602
aI973
aI142
aI2582
aI2919
aI1873
aI752
aa(lp909
I1523
aI2809
aI2582
aI1333
aI1513
aI188
aI973
aI2523
aa(lp910
I712
aI1767
aI2806
aI2565
aI1472
aI2790
aI1856
aa(lp911
I1166
aI579
aI1263
aI3185
aI157
aI926
aI1013
aI1045
aI2327
aI1248
aa(lp912
I51
aI1558
aI1619
aI1372
aI691
aI1993
aI2137
aI3020
aI2097
aa(lp913
I2976
aI1644
aI3203
aI2419
aI1809
aI2783
aI684
aa(lp914
I1185
aI1791
aI2030
aI2671
aI579
aI2768
aa(lp915
I1185
aI1294
aI2328
aI530
aI433
aa(lp916
I1185
aI2066
aI909
aI1428
aI2336
aa(lp917
I1185
aI386
aI962
aI2724
aI857
aa(lp918
I1185
aI677
aI2865
aI2104
aI1803
aa(lp919
I1185
aI376
aI2326
aI1385
aI26
aI1830
aa(lp920
I1185
aI2107
aI3162
aI1297
aI2326
aI2367
aa(lp921
I1185
aI1181
aI1344
aI1758
aI3041
aa(lp922
I1185
aI3049
aI2673
aI2887
aI1801
aa(lp923
I1185
aI766
aI1861
aI2708
aI62
aI508
aa(lp924
I51
aI1558
aI1619
aI1372
aI2537
aI1372
aI119
aI3020
aI2315
aI1568
aa(lp925
I656
aI1166
aI1644
aI874
aI3020
aI876
aI157
aI926
aI913
aa(lp926
I1573
aI887
aI1558
aI2556
aI2852
aI3160
aI946
aa(lp927
I1185
aI1558
aI2582
aI722
aI1976
aI1728
aa(lp928
I1166
aI2603
aI2326
aI2093
aI859
aI2852
aI1471
aa(lp929
I1185
aI1335
aI573
aI2012
aI1558
aI2582
aI2683
aa(lp930
I2819
aI2852
aI2781
aI2830
aI465
aI2582
aI2239
aa(lp931
I1185
aI457
aI683
aI1937
aI1513
aI2582
aI1094
aI360
aa(lp932
I2819
aI2852
aI1599
aI188
aI177
aI372
aa(lp933
I1595
aI1513
aI664
aI1903
aI2582
aI1444
aI572
aI762
aa(lp934
I2819
aI2852
aI3160
aI946
aI1073
aI492
aI2614
aI572
aa(lp935
I2780
aI1513
aI1805
aI1644
aI1939
aI1833
aI1533
aI1083
aa(lp936
I691
aI2878
aI4
aI796
aI322
aI1073
aI2816
aI2582
aa(lp937
I1185
aI1233
aI1513
aI1323
aI2188
aI3009
aI2582
aI2079
aa(lp938
I712
aI2093
aI2878
aI3033
aI1644
aI1244
aI1689
aI937
aI2878
aI647
aa(lp939
I579
aI298
aI1141
aI1903
aI220
aI1372
aI2141
aI1029
aI2697
aa(lp940
I2986
aI572
aI2582
aI2239
aI624
aI1009
aI1513
aI298
aI1676
aa(lp941
I1426
aI188
aI2179
aI1185
aI821
aI2976
aI1175
aI431
aI1073
aa(lp942
I220
aI1372
aI2795
aI1834
aI1513
aI463
aI1183
aI684
aa(lp943
I1523
aI2867
aI2857
aI1509
aI1809
aI1094
aI1382
aa(lp944
I220
aI624
aI106
aI2709
aI1513
aI624
aI683
aa(lp945
I624
aI677
aI1513
aI2091
aI1183
aI1497
aI474
aa(lp946
I1644
aI946
aI1809
aI2949
aI548
aI1509
aI2949
aI744
aa(lp947
I154
aI784
aI683
aI861
aI3162
aI319
aI2181
aa(lp948
I579
aI2093
aI1367
aI131
aI676
aI1710
aI2113
aI2209
aa(lp949
I1419
aI1619
aI1302
aI573
aI2012
aI1185
aI762
aa(lp950
I975
aI796
aI1423
aI1513
aI1086
aI1213
aa(lp951
I140
aI796
aI678
aI1644
aI997
aI2582
aI188
aI75
aa(lp952
I1185
aI2093
aI2976
aI691
aI1809
aI1009
aI558
aI492
aI1965
aa(lp953
I1644
aI1244
aI2781
aI2107
aI1689
aI188
aI741
aI1513
aI2711
aa(lp954
I1367
aI2998
aI1513
aI230
aI1166
aI624
aI121
aI1736
aI558
aI2881
aa(lp955
I982
aI2030
aI1166
aI624
aI3024
aI1513
aI623
aI973
aI428
aa(lp956
I1619
aI1995
aI624
aI569
aI1513
aI836
aI942
aI230
aI1166
aI2170
aa(lp957
I41
aI2112
aI2673
aI60
aI1029
aI2976
aI503
aI2945
aa(lp958
I611
aI2117
aI2986
aI1558
aI2117
aI2568
aI572
aI292
aa(lp959
I2816
aI1367
aI1393
aI1995
aI1166
aI942
aI230
aI1029
aI1126
aI3128
aa(lp960
I579
aI3051
aI1574
aI431
aI2565
aI2568
aI2205
aa(lp961
I2326
aI820
aI458
aI1176
aI624
aI1736
aI4
aI1095
aa(lp962
I235
aI2193
aI1062
aI624
aI188
aI1513
aI611
aI363
aa(lp963
I1185
aI1166
aI579
aI688
aI235
aI3181
aI2326
aI611
aI1845
aa(lp964
I226
aI995
aI2744
aI608
aI3108
aI2744
aI1163
aI1183
aI1978
aa(lp965
I1644
aI611
aI463
aI1602
aI3050
aI624
aI315
aI806
aI1513
aI1872
aa(lp966
I2816
aI2819
aI611
aI2203
aI74
aI1072
aI611
aI1244
aa(lp967
I624
aI1743
aI572
aI2565
aI1166
aI2144
aI3043
aI2101
aI1022
aa(lp968
I1166
aI2144
aI2107
aI607
aI2308
aI1072
aI2315
aI611
aI1998
aa(lp969
I691
aI1412
aI1349
aI741
aI77
aI641
aI624
aI463
aa(lp970
I624
aI1302
aI1513
aI188
aI572
aI901
aa(lp971
I1809
aI2477
aI1166
aI2152
aI579
aI3095
aI17
aI563
aa(lp972
I1029
aI2144
aI2315
aI1861
aI2382
aI558
aI2816
aI2149
aa(lp973
I611
aI27
aI624
aI2655
aI1425
aI3055
aI1513
aI1600
aa(lp974
I691
aI2608
aI2424
aI624
aI17
aI1537
aI558
aI926
aa(lp975
I1185
aI2144
aI1815
aI1809
aI1932
aI2646
aI1275
aa(lp976
I2144
aI1713
aI1962
aI2326
aI624
aI2332
aI1513
aI2449
aI298
aa(lp977
I1475
aI1072
aI2396
aI1523
aI2486
aI1425
aI1421
aa(lp978
I641
aI2565
aI611
aI2568
aI1272
aI2315
aI1029
aI611
aI2568
aa(lp979
I1644
aI804
aI1285
aI2845
aI10
aI1944
aa(lp980
I581
aI2296
aI901
aI1513
aI508
aI3101
aI1072
aI611
aI1244
aa(lp981
I226
aI2144
aI913
aI167
aI1513
aI623
aI2068
aI3130
aa(lp982
I796
aI824
aI863
aI691
aI145
aI1426
aI3020
aI1576
aI683
aa(lp983
I1176
aI1597
aI2308
aI756
aI624
aI1896
aI2399
aI2386
aa(lp984
I942
aI1131
aI1644
aI624
aI1466
aI1166
aI3020
aI1576
aI3048
aa(lp985
I2537
aI2565
aI15
aI1466
aI1558
aI672
aI1626
aI1644
aI329
aa(lp986
I2407
aI581
aI1597
aI1459
aI2565
aI2371
aI1025
aI1072
aa(lp987
I624
aI602
aI1166
aI2620
aI573
aI691
aI3020
aI926
aI1597
aI1029
aa(lp988
I1166
aI3020
aI579
aI1536
aI2156
aI608
aI119
aI2315
aI258
aa(lp989
I581
aI1443
aI1509
aI145
aI226
aI2852
aI589
aI1597
aI2126
aa(lp990
I712
aI581
aI3020
aI1196
aI1597
aI2193
aI3009
aI2565
aI1448
aa(lp991
I1426
aI3020
aI2993
aI2592
aI1576
aI1558
aI2318
aa(lp992
I431
aI1072
aI1029
aI539
aI2976
aI157
aI1599
aI1078
aI694
aa(lp993
I2816
aI2501
aI1536
aI926
aI60
aI1558
aI157
aI548
aI2647
aa(lp994
I3030
aI624
aI3163
aI1466
aI2852
aI2193
aI1062
aI1536
aI1951
aa(lp995
I1185
aI2408
aI1597
aI1558
aI145
aI189
aI3020
aI1576
aI1568
aa(lp996
I712
aI3030
aI624
aI1466
aI2852
aI2235
aI1597
aI1644
aI1825
aa(lp997
I1689
aI1246
aI2179
aI579
aI145
aI1166
aI1597
aI2852
aI926
aa(lp998
I189
aI157
aI2137
aI685
aI926
aI12
aI145
aI1112
aa(lp999
I691
aI1597
aI579
aI145
aI973
aI2030
aI3109
aI938
aa(lp1000
I2806
aI1597
aI119
aI3180
aI2296
aI2453
aI2227
aa(lp1001
I1644
aI431
aI1746
aI691
aI145
aI1176
aI364
aI3128
aI2419
aa(lp1002
I1185
aI282
aI1746
aI2568
aI3009
aI977
aI3020
aa(lp1003
I1176
aI2078
aI2673
aI119
aI793
aI2699
aa(lp1004
I712
aI3030
aI1536
aI762
aI926
aI1013
aI371
aI2781
aI579
aI2565
aa(lp1005
I1166
aI1597
aI691
aI926
aI528
aI3023
aI1513
aI145
aI2884
aa(lp1006
I157
aI1078
aI2315
aI1198
aI1281
aI157
aI2493
aI572
aa(lp1007
I1185
aI946
aI796
aI1746
aI1644
aI575
aI1075
aI145
aI1075
aI1597
aa(lp1008
I691
aI3020
aI1576
aI1961
aI2326
aI1166
aI2801
aI3020
aI2839
aI278
aa(lp1009
I1185
aI1029
aI2852
aI1597
aI1644
aI926
aI588
aI2030
aI27
aa(lp1010
I1166
aI1600
aI1513
aI1092
aI2144
aI1136
aI579
aI145
aI3203
aa(lp1011
I1426
aI2
aI97
aI1523
aI1767
aI1523
aI2541
aI431
aI282
aa(lp1012
I3009
aI1367
aI2905
aI2801
aI2889
aI509
aI624
aI1044
aa(lp1013
I2112
aI1292
aI1514
aI1281
aI1849
aI624
aI2156
aI1046
aI268
aa(lp1014
I579
aI145
aI2144
aI2211
aI624
aI1074
aI1513
aI2733
aI2664
aa(lp1015
I2976
aI189
aI1237
aI281
aI579
aI624
aI1347
aa(lp1016
I2801
aI2326
aI1185
aI2326
aI1263
aI674
aI558
aI1211
aI474
aa(lp1017
I3105
aI2949
aI2012
aI1166
aI1628
aI1285
aI1619
aI579
aI1429
aa(lp1018
I579
aI145
aI2144
aI2211
aI624
aI1796
aI1513
aI2733
aI2183
aa(lp1019
I1166
aI1509
aI624
aI393
aI1513
aI2582
aI1987
aI558
aI2227
aa(lp1020
I2976
aI624
aI1508
aI2645
aI573
aI144
aI3107
aa(lp1021
I398
aI1558
aI1166
aI2801
aI573
aI741
aI37
aI2326
aa(lp1022
I2565
aI2144
aI835
aI2801
aI2516
aI611
aI926
aI1746
aI1715
aa(lp1023
I1644
aI926
aI1166
aI3023
aI2801
aI2144
aI144
aI876
aI154
aI1141
aa(lp1024
I2816
aI2315
aI1121
aI1426
aI1166
aI1517
aI2165
aa(lp1025
I1419
aI1619
aI415
aI2308
aI1144
aI145
aI474
aa(lp1026
I157
aI548
aI4
aI579
aI2565
aI2371
aI2296
aI540
aa(lp1027
I2801
aI691
aI584
aI1045
aI1558
aI230
aI2308
aI3210
aa(lp1028
I1426
aI2144
aI661
aI2565
aI2144
aI3043
aI1300
aa(lp1029
I624
aI1654
aI1973
aI741
aI1140
aI1644
aI230
aa(lp1030
I624
aI414
aI973
aI2790
aI2816
aI414
aI2801
aI572
aI2582
aI2170
aa(lp1031
I157
aI441
aI572
aI1126
aI624
aI221
aI1973
aI1513
aI145
aa(lp1032
I1029
aI226
aI2144
aI1713
aI2816
aI3071
aI624
aI2575
aI1513
aI548
aa(lp1033
I624
aI948
aI1513
aI1626
aI157
aI2493
aI1425
aI683
aa(lp1034
I624
aI343
aI2338
aI1513
aI1809
aI1474
aI1495
aa(lp1035
I328
aI1920
aI1513
aI230
aI1644
aI2315
aI2317
aa(lp1036
I624
aI27
aI1513
aI1166
aI572
aI1166
aI2801
aI573
aI1739
aa(lp1037
I1185
aI1166
aI572
aI2565
aI1185
aI2565
aI1558
aI230
aI2538
aa(lp1038
I1029
aI2113
aI1597
aI1644
aI157
aI608
aI2976
aI1865
aI1644
aI548
aa(lp1039
I1523
aI2976
aI1111
aI2002
aI2113
aI1644
aI624
aI1251
aa(lp1040
I1185
aI691
aI624
aI2402
aI1513
aI1597
aI3020
aI142
aI2733
aI2285
aa(lp1041
I2976
aI2182
aI1809
aI2506
aI1185
aI2582
aI937
aI572
aI1887
aa(lp1042
I1073
aI1233
aI2976
aI1578
aI411
aI1185
aI2145
aa(lp1043
I2861
aI624
aI321
aI2425
aI2978
aI457
aI2582
aI1257
aa(lp1044
I1073
aI2591
aI469
aI1644
aI2315
aI1558
aI1597
aI913
aa(lp1045
I226
aI102
aI1166
aI624
aI1466
aI1013
aI2111
aI157
aI1820
aa(lp1046
I787
aI1619
aI1705
aI1558
aI2037
aI1509
aI1536
aI2301
aa(lp1047
I1185
aI2326
aI1185
aI2326
aI2412
aI2246
aI691
aI1809
aI2193
aa(lp1048
I2728
aI1523
aI427
aI796
aI603
aa(lp1049
I656
aI1689
aI572
aI647
aI1523
aI144
aI2537
aI1597
aI2315
aI335
aa(lp1050
I2986
aI431
aI3020
aI903
aI1185
aI1085
aI2664
aI2326
aI2664
aa(lp1051
I1523
aI1383
aI1509
aI1619
aI1523
aI1619
aI474
aa(lp1052
I2819
aI572
aI157
aI1448
aI1029
aI2046
aI1513
aI75
aI25
aa(lp1053
I1029
aI180
aI2537
aI3209
aI1523
aI879
aI915
aa(lp1054
I2819
aI1558
aI624
aI1600
aI431
aI3020
aI1072
aI115
aI1208
aa(lp1055
I1644
aI671
aI732
aI1185
aI1644
aI1298
aI1852
aa(lp1056
I2819
aI1003
aI3020
aI1045
aI1619
aI237
aI77
aI624
aI1393
aa(lp1057
I1185
aI2716
aI1679
aI579
aI1809
aI1930
aI1405
aa(lp1058
I1166
aI35
aI865
aI558
aI2984
aI127
aI157
aI1078
aa(lp1059
I3069
aI2744
aI662
aI1185
aI1281
aI235
aI873
aI707
aa(lp1060
I712
aI3064
aI2156
aI926
aI3020
aI1881
aI1003
aI1513
aI1597
aa(lp1061
I1185
aI1597
aI1185
aI926
aI2113
aI1045
aI157
aI1192
aa(lp1062
I1029
aI1619
aI157
aI469
aI572
aI1646
aI678
aI2866
aI75
aa(lp1063
I2351
aI1587
aI1689
aI572
aI311
aI365
aa(lp1064
I691
aI2976
aI624
aI1694
aI572
aI826
aI75
aI1185
aI678
aa(lp1065
I1029
aI572
aI157
aI926
aI1045
aI2466
aI1689
aI572
aI78
aa(lp1066
I611
aI137
aI2978
aI1244
aI230
aI3106
aI611
aI2626
aI497
aa(lp1067
I611
aI389
aI3106
aI611
aI2917
aI3176
aI2955
aa(lp1068
I1372
aI1418
aI97
aI611
aI361
aI1430
aI2978
aI2864
aa(lp1069
I1185
aI1513
aI2565
aI3199
aI2565
aI1340
aI1136
aI2144
aI1572
aa(lp1070
I624
aI2330
aI2801
aI611
aI137
aI2978
aI1271
aI1244
aa(lp1071
I1513
aI2670
aI2445
aI2978
aI942
aI230
aI949
aa(lp1072
I2144
aI2326
aI611
aI2184
aI1813
aI1544
aI1136
aI3064
aa(lp1073
I2812
aI1782
aI2906
aI1644
aI807
aa(lp1074
I2193
aI1689
aI611
aI949
aI1272
aI2879
aa(lp1075
I717
aI1644
aI1372
aI2955
aI187
aI1185
aI2144
aI396
aI2063
aa(lp1076
I1367
aI69
aI3190
aI2305
aI2537
aI611
aI2874
aa(lp1077
I1644
aI1211
aI1809
aI75
aI2306
aI1513
aI611
aI363
aa(lp1078
I1372
aI673
aI1029
aI3026
aI2976
aI2144
aI2973
aI2193
aa(lp1079
I2308
aI1099
aI230
aI1185
aI539
aI229
aI611
aI3199
aa(lp1080
I1029
aI3026
aI2790
aI3020
aI1296
aI230
aI691
aI157
aI134
aa(lp1081
I1185
aI1887
aI2733
aI463
aI897
aI579
aI157
aI1448
aa(lp1082
I2976
aI35
aI2439
aI1583
aI4
aI276
aI157
aI2535
aa(lp1083
I1185
aI22
aI230
aI2744
aI2838
aI1433
aa(lp1084
I1126
aI1163
aI1166
aI257
aI624
aI2773
aI1509
aI2580
aI1644
aI2505
aa(lp1085
I1185
aI1888
aI494
aI2321
aI1644
aI965
aa(lp1086
I2790
aI2300
aI333
aI1644
aI624
aI2732
aI1235
aa(lp1087
I1185
aI285
aI1976
aI1809
aI1982
aI2153
aa(lp1088
I641
aI2315
aI2026
aI1233
aI1513
aI1166
aI2801
aI3020
aI1374
aa(lp1089
I13
aI2392
aI572
aI1126
aI1185
aI684
aI1513
aI230
aa(lp1090
I579
aI658
aI3079
aI2144
aI3043
aI2816
aI428
aI624
aI1839
aa(lp1091
I1185
aI1345
aI1558
aI611
aI2156
aI46
aI44
aI2315
aa(lp1092
I2816
aI2144
aI2107
aI1619
aI157
aI2107
aI1185
aI3043
aI1117
aa(lp1093
I2976
aI2580
aI2976
aI1340
aI157
aI1802
aI494
aa(lp1094
I2633
aI3020
aI913
aI873
aI740
aI3009
aI611
aI568
aa(lp1095
I157
aI1448
aI913
aI647
aI1619
aI611
aI2787
aI1976
aa(lp1096
I2816
aI1073
aI157
aI560
aI1784
aI2113
aI2263
aa(lp1097
I1185
aI157
aI3201
aI134
aI558
aI942
aI1578
aI3051
aI1127
aa(lp1098
I3020
aI2215
aI2156
aI926
aI611
aI544
aI1192
aa(lp1099
I2331
aI624
aI2003
aI1513
aI1809
aI1450
aI1583
aa(lp1100
I641
aI1689
aI1513
aI230
aI611
aI2954
aI558
aI837
aa(lp1101
I3160
aI1258
aI230
aI1513
aI1185
aI724
aI573
aI230
aI1587
aa(lp1102
I3160
aI3082
aI230
aI962
aI1185
aI3160
aI993
aI1166
aI865
aa(lp1103
I2537
aI611
aI2933
aI188
aI558
aI3160
aI942
aa(lp1104
I1185
aI1887
aI573
aI579
aI611
aI2239
aI3160
aI973
aI2405
aa(lp1105
I796
aI2568
aI1644
aI230
aI2816
aI1689
aI579
aI230
aI558
aI946
aa(lp1106
I226
aI1050
aI2093
aI1072
aI691
aI1166
aI2801
aI3160
aI558
aI1196
aa(lp1107
I1903
aI1689
aI3160
aI2208
aI230
aI2144
aI611
aI2012
aI3043
aI1392
aa(lp1108
I712
aI3106
aI3020
aI721
aI1426
aI3020
aI1513
aI1597
aI431
aI1003
aa(lp1109
I2132
aI1809
aI221
aI441
aI558
aI2535
aI1536
aI1078
aa(lp1110
I1185
aI579
aI624
aI2568
aI1871
aI1585
aI1619
aI2582
aI1856
aa(lp1111
I1644
aI589
aI145
aI1297
aI1160
aI1513
aI1536
aI1387
aa(lp1112
I2816
aI1903
aI1536
aI27
aI1178
aI2976
aI624
aI617
aI572
aa(lp1113
I624
aI615
aI2976
aI624
aI2960
aI475
aI558
aI2864
aa(lp1114
I157
aI1838
aI2116
aI1054
aI180
aI1644
aI2582
aa(lp1115
I1509
aI1536
aI3097
aI1061
aI558
aI1266
aI896
aa(lp1116
I1536
aI1986
aI1826
aI2978
aI142
aI145
aI1285
aI2834
aa(lp1117
I2633
aI3160
aI3009
aI1536
aI2759
aI1577
aI558
aI2566
aa(lp1118
I1523
aI1425
aI404
aI3020
aI1576
aI1809
aI2161
aI1343
aa(lp1119
I3160
aI1513
aI1033
aI1606
aI1185
aI1513
aI2390
aI25
aa(lp1120
I226
aI581
aI3160
aI2130
aI1185
aI3020
aI2315
aI1375
aI474
aa(lp1121
I624
aI1660
aI741
aI2565
aI157
aI926
aI741
aI157
aI2647
aa(lp1122
I1523
aI3020
aI2308
aI946
aI1536
aI964
aI1644
aI589
aa(lp1123
I1523
aI1597
aI125
aI1426
aI3020
aI579
aI414
aI1576
aI2491
aa(lp1124
I2537
aI2722
aI1536
aI949
aI2137
aI1272
aI1211
aa(lp1125
I3108
aI579
aI145
aI247
aI1973
aI2978
aI2315
aI2146
aa(lp1126
I1536
aI1078
aI2537
aI2722
aI3090
aI548
aI2308
aI2790
aa(lp1127
I387
aI3020
aI2433
aI1568
aI1644
aI1619
aI624
aI1466
aI144
aI874
aa(lp1128
I624
aI414
aI973
aI1277
aI145
aI2816
aI1809
aI2101
aI395
aa(lp1129
I1426
aI1597
aI1195
aI579
aI1168
aI1163
aI2308
aI2227
aa(lp1130
I1536
aI3175
aI2308
aI2315
aI157
aI2787
aI1448
aa(lp1131
I2801
aI1163
aI1072
aI641
aI297
aI2308
aI38
aa(lp1132
I1185
aI1995
aI1644
aI2315
aI1536
aI1425
aI2308
aI694
aa(lp1133
I1426
aI1619
aI624
aI1875
aI1513
aI2565
aI1466
aI2113
aI683
aa(lp1134
I1597
aI1045
aI2308
aI946
aI2733
aI962
aI4
aI157
aI1583
aa(lp1135
I1281
aI1350
aI2026
aI400
aI60
aI579
aI624
aI1097
aI1513
aI489
aa(lp1136
I3020
aI2215
aI2144
aI1179
aI1072
aI2876
aI1644
aI157
aI134
aa(lp1137
I1185
aI124
aI1136
aI1419
aI3131
aI2631
aa(lp1138
I624
aI980
aI2866
aI2801
aI182
aI2535
aa(lp1139
I1513
aI2744
aI463
aI470
aI1359
aI35
aI3199
aa(lp1140
I2144
aI2107
aI2976
aI463
aI579
aI2846
aI2976
aI579
aI360
aa(lp1141
I2016
aI611
aI27
aI1809
aI3174
aI1677
aI157
aI2568
aa(lp1142
I1185
aI124
aI2107
aI2779
aI1644
aI372
aI774
aa(lp1143
I2296
aI162
aI2166
aI1513
aI624
aI533
aI298
aa(lp1144
I1185
aI431
aI1029
aI926
aI641
aI1426
aI235
aI2790
aI3058
aa(lp1145
I1689
aI1501
aI418
aI240
aI973
aI1489
aa(lp1146
I2144
aI1271
aI463
aI1179
aI1271
aI1911
aa(lp1147
I579
aI762
aI2974
aI2866
aI2326
aI611
aI253
aI351
aa(lp1148
I1185
aI2744
aI1486
aI2830
aI1856
aI2315
aI221
aI2226
aa(lp1149
I1281
aI2547
aI2792
aI1805
aI579
aI230
aI573
aI572
aI1560
aa(lp1150
I3020
aI83
aI2488
aI1166
aI1597
aI873
aI2830
aI2792
aa(lp1151
I1185
aI124
aI1644
aI1536
aI463
aI796
aI2830
aI2106
aa(lp1152
I3020
aI1887
aI1523
aI3024
aI3020
aI1887
aI1597
aI873
aI3085
aa(lp1153
I1166
aI2046
aI1672
aI1513
aI1809
aI632
aI500
aa(lp1154
I1185
aI124
aI2790
aI3020
aI1949
aI579
aI1536
aI443
aa(lp1155
I1166
aI1597
aI1536
aI2012
aI1425
aI1724
aI3023
aI1856
aI1244
aa(lp1156
I3106
aI180
aI1809
aI362
aI59
aI558
aI1320
aI328
aI1811
aa(lp1157
I1160
aI1513
aI27
aI1689
aI27
aI579
aI1597
aI558
aI1022
aa(lp1158
I2565
aI1030
aI691
aI157
aI2603
aI1597
aI873
aI1565
aa(lp1159
I2801
aI2308
aI2315
aI2026
aI157
aI3165
aI1425
aI2773
aa(lp1160
I691
aI3020
aI966
aI1072
aI188
aI1425
aI2849
aa(lp1161
I1426
aI2503
aI119
aI942
aI548
aI1185
aI2839
aI1809
aI2612
aa(lp1162
I1541
aI2188
aI1746
aI548
aI579
aI237
aI1513
aI1536
aI463
aI1163
aa(lp1163
I1176
aI2139
aI1536
aI3103
aI973
aI579
aI2568
aI3180
aa(lp1164
I2809
aI572
aI573
aI1166
aI882
aI2026
aI2801
aI973
aI1196
aI1746
aa(lp1165
I1176
aI2565
aI426
aI2568
aI1166
aI1597
aI913
aI2113
aI1597
aa(lp1166
I579
aI13
aI1100
aI2376
aI572
aI624
aI1965
aa(lp1167
I2801
aI2852
aI158
aI1281
aI1536
aI2926
aI1979
aa(lp1168
I3098
aI1822
aI2339
aI1166
aI1583
aI558
aI329
aa(lp1169
I1166
aI1644
aI2582
aI470
aI3082
aI1072
aI2296
aI1670
aI3165
aa(lp1170
I2816
aI3160
aI1166
aI2517
aI1513
aI1597
aI581
aI3160
aI973
aI127
aa(lp1171
I1166
aI1597
aI2113
aI1597
aI1029
aI175
aI2582
aI2349
aa(lp1172
I2501
aI2093
aI2816
aI419
aI1689
aI579
aI1597
aI572
aI2620
aa(lp1173
I1072
aI975
aI170
aI1689
aI492
aI3162
aI1029
aI2040
aa(lp1174
I1185
aI2733
aI1809
aI2717
aI2308
aI1387
aI2582
aI2529
aa(lp1175
I975
aI2582
aI1839
aI1905
aI35
aI1281
aa(lp1176
I1597
aI1644
aI1536
aI2075
aI3122
aI3050
aI1809
aI895
aa(lp1177
I1425
aI2057
aI1509
aI2568
aI2801
aI2516
aI1536
aI846
aI170
aa(lp1178
I157
aI1297
aI134
aI579
aI2158
aI2596
aI2713
aI1045
aa(lp1179
I2197
aI695
aI1513
aI1536
aI2568
aI1088
aI2081
aa(lp1180
I406
aI2744
aI339
aI1558
aI106
aI59
aa(lp1181
I1185
aI2917
aI160
aI2326
aI1619
aI624
aI1052
aI2369
aa(lp1182
I3020
aI1132
aI1861
aI608
aI2633
aI3051
aI1003
aI1861
aI2866
aa(lp1183
I1185
aI3070
aI3202
aI910
aI1045
aI2097
aI1301
aa(lp1184
I1644
aI35
aI893
aI1166
aI2798
aI441
aI1149
aa(lp1185
I579
aI3129
aI746
aI1513
aI3023
aI730
aI1583
aa(lp1186
I316
aI1597
aI852
aI3020
aI1196
aI1269
aI1029
aI1269
aI762
aa(lp1187
I1185
aI1644
aI624
aI2026
aI1513
aI2568
aI3050
aI2583
aI1746
aa(lp1188
I2816
aI1166
aI572
aI579
aI157
aI3024
aI13
aI926
aI1644
aI1597
aa(lp1189
I387
aI2866
aI1320
aI1267
aI2596
aI2582
aI315
aI220
aa(lp1190
I226
aI2503
aI691
aI624
aI1350
aI1513
aI2866
aI1716
aa(lp1191
I145
aI691
aI157
aI2773
aI608
aI1160
aI579
aI3010
aa(lp1192
I741
aI573
aI624
aI1233
aI1705
aI475
aI1513
aI2582
aI2508
aI1448
aa(lp1193
I726
aI691
aI624
aI42
aI1513
aI1619
aI328
aI2917
aI1597
aa(lp1194
I1166
aI873
aI157
aI2982
aI608
aI579
aI157
aI2874
aI32
aa(lp1195
I975
aI2744
aI2612
aI624
aI1703
aI2220
aI235
aI1979
aa(lp1196
I741
aI573
aI2582
aI441
aI2326
aI2118
aI257
aI1644
aI1003
aa(lp1197
I72
aI1809
aI2721
aI1043
aI1166
aI1455
aI145
aI683
aa(lp1198
I796
aI2907
aI3160
aI1075
aI2582
aI646
aI2326
aI674
aa(lp1199
I2487
aI2093
aI568
aI157
aI1448
aI759
aa(lp1200
I3160
aI1075
aI1166
aI1683
aI2863
aI3218
aa(lp1201
I2801
aI3012
aI3037
aI2093
aI1558
aI2745
aa(lp1202
I2976
aI3140
aI1513
aI157
aI1030
aI1272
aI918
aa(lp1203
I3020
aI741
aI1072
aI3201
aI1513
aI1203
aI891
aI2537
aI2925
aa(lp1204
I2816
aI1426
aI1536
aI1317
aI905
aI1285
aI2582
aI2371
aa(lp1205
I226
aI718
aI3020
aI347
aI1166
aI2893
aI364
aa(lp1206
I1090
aI2144
aI2107
aI328
aI685
aI691
aI157
aI2728
aa(lp1207
I1185
aI3070
aI1550
aI2144
aI1925
aI611
aI1733
aa(lp1208
I624
aI49
aI1513
aI611
aI27
aI1161
aI230
aI2963
aa(lp1209
I157
aI2469
aI579
aI230
aI2113
aI1619
aI207
aa(lp1210
I691
aI3106
aI431
aI3020
aI142
aI230
aI2816
aI2326
aI611
aI16
aa(lp1211
I1185
aI691
aI1166
aI2765
aI1281
aI572
aI157
aI352
aa(lp1212
I624
aI2700
aI1513
aI2565
aI463
aI670
aI579
aI145
aI572
aI663
aa(lp1213
I1185
aI1029
aI157
aI587
aI752
aI1587
aI572
aI1336
aa(lp1214
I611
aI2012
aI2144
aI1821
aI611
aI3128
aI27
aI226
aI1072
aI2132
aa(lp1215
I1523
aI145
aI1644
aI2172
aI2144
aI1821
aI573
aI2187
aI288
aa(lp1216
I1029
aI611
aI2508
aI670
aI3009
aI259
aI974
aa(lp1217
I2590
aI3093
aI1587
aI1509
aI221
aI2273
aI975
aa(lp1218
I2986
aI2790
aI3020
aI647
aI230
aI2976
aI1809
aI1823
aI558
aI679
aa(lp1219
I579
aI5
aI1809
aI1977
aI2816
aI2480
aI796
aI2733
aI347
aa(lp1220
I1426
aI2144
aI396
aI2315
aI1542
aI1644
aI2106
aI145
aI2616
aa(lp1221
I1185
aI1127
aI157
aI1246
aI579
aI624
aI1736
aI1513
aI483
aa(lp1222
I3009
aI611
aI251
aI509
aI157
aI2012
aI1673
aI737
aa(lp1223
I1185
aI938
aI230
aI2453
aI387
aI2144
aI2107
aI433
aa(lp1224
I1558
aI364
aI3128
aI267
aI1425
aI469
aI1469
aa(lp1225
I3009
aI611
aI1973
aI3020
aI973
aI2106
aI728
aI1809
aI2349
aa(lp1226
I1513
aI1316
aI2324
aI2220
aI3020
aI1576
aI1777
aa(lp1227
I1166
aI2144
aI579
aI702
aI145
aI396
aI2524
aI539
aI3165
aa(lp1228
I1185
aI3020
aI2326
aI2565
aI2978
aI2315
aI1809
aI3123
aI328
aa(lp1229
I691
aI2058
aI1619
aI157
aI951
aI608
aI1509
aI230
aa(lp1230
I624
aI2256
aI1166
aI1644
aI157
aI2012
aI3020
aI431
aa(lp1231
I2679
aI230
aI1414
aI885
aI145
aa(lp1232
I2733
aI572
aI157
aI926
aI1644
aI230
aI3020
aI1029
aI2218
aa(lp1233
I1166
aI691
aI611
aI677
aI157
aI2012
aI2978
aI2864
aI1619
aI190
aa(lp1234
I1196
aI1166
aI2144
aI3193
aI1311
aI145
aI691
aI2296
aI507
aa(lp1235
I1185
aI3020
aI2978
aI2939
aI3009
aI1166
aI1460
aa(lp1236
I528
aI1513
aI157
aI1757
aI1185
aI3020
aI2194
aI2978
aI2990
aa(lp1237
I509
aI611
aI2155
aI975
aI796
aI1690
aa(lp1238
I2144
aI2290
aI1072
aI926
aI779
aI145
aI1071
aI1029
aI508
aa(lp1239
I1644
aI2106
aI1809
aI746
aI3009
aI2143
aI915
aa(lp1240
I2976
aI1673
aI157
aI2012
aI779
aI2132
aI611
aI2978
aa(lp1241
I3020
aI2978
aI2306
aI217
aI1185
aI2193
aI1852
aa(lp1242
I2315
aI764
aI2537
aI611
aI19
aI1185
aI579
aI157
aI3125
aa(lp1243
I611
aI2156
aI652
aI1078
aI796
aI1746
aI2308
aI329
aa(lp1244
I3030
aI3020
aI328
aI539
aI1370
aI2852
aI431
aI573
aI193
aa(lp1245
I1185
aI710
aI1513
aI2686
aI678
aI2306
aI127
aa(lp1246
I691
aI230
aI509
aI157
aI2012
aI1673
aI2206
aI2843
aa(lp1247
I691
aI3020
aI144
aI64
aI926
aI2093
aI2172
aI2144
aI3043
aI11
aa(lp1248
I226
aI11
aI145
aI1426
aI2144
aI2973
aI581
aI77
aI1073
aa(lp1249
I1073
aI2197
aI624
aI1466
aI572
aI1880
aI157
aI1845
aI1644
aI2994
aa(lp1250
I82
aI1558
aI624
aI421
aI1513
aI1470
aI589
aI145
aI921
aa(lp1251
I1185
aI431
aI1072
aI1081
aI579
aI691
aI1578
aI209
aa(lp1252
I1573
aI431
aI1072
aI1426
aI157
aI979
aI4
aI2164
aI2565
aI2914
aa(lp1253
I1320
aI579
aI624
aI2714
aI1513
aI1809
aI1408
aI2126
aa(lp1254
I942
aI1072
aI1809
aI2440
aI674
aI1809
aI2398
aI2243
aa(lp1255
I1644
aI3119
aI2690
aI1809
aI2585
aI2185
aa(lp1256
I581
aI2144
aI2973
aI876
aI145
aI431
aI1072
aI876
aI145
aI2141
aa(lp1257
I1426
aI3051
aI1552
aI334
aI2790
aI1946
aI2744
aI421
aa(lp1258
I2816
aI579
aI624
aI2013
aI1320
aI1029
aI2308
aI3020
aI1572
aa(lp1259
I2981
aI1134
aI624
aI1654
aI1660
aI1513
aI1286
aI1856
aa(lp1260
I1185
aI3051
aI1391
aI1513
aI2126
aI2801
aI1073
aI371
aI2126
aa(lp1261
I3192
aI1558
aI3068
aI1513
aI230
aI2978
aI1072
aI371
aI1029
aa(lp1262
I2296
aI3165
aI579
aI2744
aI662
aI2296
aI579
aI2744
aI3041
aa(lp1263
I2296
aI579
aI2744
aI937
aI2296
aI579
aI2744
aI2770
aI50
aa(lp1264
I2296
aI579
aI2744
aI1232
aI387
aI1799
aI508
aa(lp1265
I2296
aI579
aI2744
aI325
aI1185
aI1342
aI2296
aI579
aI2744
aI1952
aa(lp1266
I1185
aI35
aI927
aI4
aI2582
aI2800
aI1820
aa(lp1267
I2220
aI573
aI2150
aI1809
aI2913
aI72
aI624
aI1429
aa(lp1268
I2816
aI1372
aI537
aI2113
aI1072
aI157
aI3181
aa(lp1269
I1619
aI1372
aI3020
aI221
aI579
aI237
aI2959
aI469
aa(lp1270
I611
aI926
aI572
aI221
aI1176
aI2580
aI662
aI1644
aI145
aa(lp1271
I2766
aI1176
aI937
aI2746
aI1176
aI2280
aI713
aa(lp1272
I1513
aI1746
aI603
aI1176
aI325
aI1185
aI1747
aI2315
aa(lp1273
I1185
aI2432
aI230
aI1513
aI1619
aI1168
aI25
aI3020
aI918
aa(lp1274
I1748
aI579
aI2565
aI913
aI1166
aI2144
aI1136
aI1211
aa(lp1275
I1619
aI2565
aI474
aI1185
aI145
aI2026
aI2233
aI589
aa(lp1276
I2816
aI431
aI611
aI1660
aI1644
aI457
aI611
aI2012
aI474
aa(lp1277
I691
aI1077
aI1513
aI548
aI2144
aI2107
aI280
aI364
aa(lp1278
I1185
aI548
aI796
aI824
aI1176
aI611
aI926
aI2978
aI3210
aa(lp1279
I691
aI573
aI467
aI3009
aI1166
aI926
aI1513
aI1126
aa(lp1280
I226
aI2792
aI3020
aI1072
aI1644
aI891
aI624
aI1660
aI1513
aI945
aa(lp1281
I1426
aI579
aI624
aI1958
aI1513
aI227
aI157
aI548
aI4
aI1019
aa(lp1282
I3020
aI2111
aI1809
aI221
aI2904
aI1644
aI145
aI651
aa(lp1283
I1176
aI1166
aI2801
aI1509
aI611
aI927
aI558
aI1714
aa(lp1284
I2144
aI2290
aI1072
aI849
aI145
aI1558
aI3086
aI363
aa(lp1285
I1903
aI1166
aI157
aI548
aI1509
aI611
aI196
aI558
aI2227
aa(lp1286
I712
aI1689
aI1809
aI743
aI1256
aI431
aI3020
aI2063
aa(lp1287
I743
aI1644
aI2790
aI611
aI926
aI743
aI1644
aI874
aa(lp1288
I2816
aI3204
aI1029
aI110
aI1166
aI2403
aI796
aI1440
aa(lp1289
I2144
aI1136
aI2315
aI2781
aI1185
aI641
aI3020
aI3064
aI573
aI1072
aa(lp1290
I1029
aI2308
aI3020
aI946
aI604
aI2144
aI2107
aI762
aa(lp1291
I3070
aI1809
aI283
aI1282
aI1029
aI952
aI790
aa(lp1292
I1013
aI1045
aI371
aI926
aI1644
aI145
aI387
aI686
aI75
aa(lp1293
I611
aI2637
aI1558
aI145
aI611
aI979
aI579
aI3051
aI1127
aa(lp1294
I691
aI1541
aI973
aI946
aI796
aI2333
aI579
aI1126
aI1736
aa(lp1295
I124
aI579
aI1166
aI3020
aI1272
aI3064
aI611
aI915
aa(lp1296
I579
aI2840
aI2637
aI624
aI2781
aI1797
aI1774
aa(lp1297
I572
aI2620
aI579
aI2598
aI1185
aI2698
aI1185
aI2330
aI1852
aa(lp1298
I2816
aI1666
aI579
aI611
aI2295
aI873
aI266
aa(lp1299
I1166
aI579
aI611
aI790
aI2156
aI926
aI2852
aI77
aI329
aa(lp1300
I2952
aI611
aI608
aI1523
aI611
aI1797
aI3087
aI2315
aa(lp1301
I611
aI2637
aI2852
aI2030
aI2925
aI2816
aI613
aI127
aa(lp1302
I3106
aI3070
aI2471
aI2521
aI558
aI611
aI188
aI1022
aa(lp1303
I581
aI611
aI2156
aI962
aI183
aI1072
aI611
aI1244
aa(lp1304
I235
aI1166
aI2790
aI1498
aI1644
aI1170
aI1185
aI2978
aI431
aI1767
aa(lp1305
I1166
aI431
aI1072
aI431
aI624
aI1125
aI235
aI2026
aI431
aI1244
aa(lp1306
I2809
aI2231
aI2503
aI2113
aI2543
aI2976
aI1510
aa(lp1307
I2966
aI1044
aI1185
aI1644
aI472
aI1252
aa(lp1308
I235
aI3178
aI431
aI616
aI3095
aI46
aa(lp1309
I1185
aI1282
aI1897
aI2765
aI2537
aI514
aa(lp1310
I2129
aI2113
aI624
aI2380
aI1185
aI1927
aI1513
aI2744
aI512
aa(lp1311
I2503
aI2816
aI1912
aI1513
aI2744
aI877
aa(lp1312
I624
aI1446
aI1602
aI572
aI1644
aI624
aI1423
aI2156
aa(lp1313
I387
aI1644
aI573
aI2012
aI573
aI943
aI946
aI1185
aI874
aa(lp1314
I2816
aI581
aI1166
aI1602
aI1558
aI1920
aI2556
aI2570
aa(lp1315
I624
aI1463
aI1405
aI2885
aI2582
aI659
aa(lp1316
I691
aI17
aI588
aI2793
aI1241
aI2326
aI2744
aI1845
aa(lp1317
I765
aI1166
aI2940
aI806
aI180
aI170
aI1176
aI1872
aa(lp1318
I3106
aI2156
aI1185
aI544
aI3043
aI2144
aI589
aI624
aI575
aa(lp1319
I2801
aI3070
aI1809
aI2608
aI579
aI624
aI2726
aI1444
aa(lp1320
I558
aI1015
aI624
aI188
aI1513
aI611
aI118
aI1078
aa(lp1321
I712
aI579
aI1689
aI2657
aI3043
aI2144
aI611
aI2497
aI2636
aa(lp1322
I1166
aI3125
aI1166
aI373
aI624
aI2349
aI1513
aI611
aI298
aa(lp1323
I975
aI2987
aI695
aI1509
aI611
aI1205
aa(lp1324
I1272
aI2624
aI2816
aI579
aI1809
aI1978
aI1513
aI2568
aa(lp1325
I3188
aI611
aI1078
aI1535
aI1578
aI508
aI443
aa(lp1326
I712
aI1689
aI1809
aI8
aI2790
aI1367
aI643
aI276
aa(lp1327
I2801
aI691
aI2744
aI1143
aI2495
aI2690
aI230
aa(lp1328
I1281
aI784
aI3141
aI558
aI2042
aI35
aI1440
aa(lp1329
I1185
aI1619
aI588
aI1886
aI1644
aI463
aI1166
aI1163
aI973
aI2111
aa(lp1330
I1211
aI3076
aI685
aI979
aI1513
aI2565
aI265
aI542
aa(lp1331
I624
aI971
aI1495
aI1145
aI558
aI3077
aI2582
aI2245
aa(lp1332
I2296
aI1196
aI611
aI507
aI572
aI1987
aI2296
aI295
aa(lp1333
I2296
aI1196
aI611
aI1976
aI572
aI1987
aI1185
aI2787
aI1205
aa(lp1334
I2139
aI1976
aI1185
aI1316
aI2113
aI2761
aI1513
aI1746
aI1185
aI2071
aa(lp1335
I2144
aI991
aI1316
aI46
aI1166
aI1644
aI230
aI1850
aa(lp1336
I2976
aI1509
aI624
aI481
aI1513
aI1809
aI1416
aI2455
aa(lp1337
I624
aI1463
aI3224
aI2978
aI2315
aI3023
aI2222
aa(lp1338
I1029
aI2113
aI1367
aI392
aI1166
aI579
aI230
aI2113
aI2209
aa(lp1339
I1644
aI1882
aI2287
aI1185
aI691
aI762
aI588
aI79
aa(lp1340
I3106
aI1323
aI2988
aI1856
aI624
aI113
aI1518
aI2074
aa(lp1341
I581
aI3070
aI1809
aI2589
aI3160
aI2715
aI2582
aI2637
aI2358
aa(lp1342
I3106
aI1323
aI1688
aI2601
aI2144
aI3096
aI474
aa(lp1343
I581
aI2144
aI204
aI2535
aI624
aI376
aI1513
aI1619
aI611
aI2904
aa(lp1344
I2816
aI431
aI1072
aI1029
aI3020
aI926
aI230
aI579
aI2733
aI2387
aa(lp1345
I2976
aI2144
aI1425
aI364
aI364
aI572
aI611
aI1861
aI443
aa(lp1346
I3106
aI3070
aI1809
aI996
aI4
aI157
aI1851
aI536
aa(lp1347
I2537
aI230
aI624
aI1820
aI1513
aI624
aI3186
aI1092
aa(lp1348
I1689
aI3000
aI2790
aI3020
aI715
aI1689
aI605
aI298
aI2209
aa(lp1349
I1689
aI678
aI3013
aI1431
aI961
aa(lp1350
I1185
aI641
aI2565
aI1600
aI761
aI741
aI1446
aI1600
aa(lp1351
I624
aI1847
aI1988
aI2270
aI1558
aI426
aI1034
aa(lp1352
I3177
aI624
aI1639
aI2837
aI1513
aI624
aI1275
aa(lp1353
I3070
aI1525
aI2293
aI189
aI2744
aI591
aI3084
aa(lp1354
I641
aI2565
aI843
aI1910
aI2444
aI1644
aI145
aa(lp1355
I2816
aI2858
aI1513
aI1084
aI1185
aI772
aI1406
aa(lp1356
I691
aI1423
aI1185
aI2582
aI2096
aI2175
aI1509
aI230
aa(lp1357
I1185
aI2144
aI474
aI624
aI1654
aI1046
aI2113
aI2849
aa(lp1358
I1523
aI581
aI235
aI2505
aI1269
aI1558
aI1029
aI2372
aI1809
aI2244
aa(lp1359
I1166
aI97
aI2193
aI2303
aI1948
aI624
aI233
aI566
aa(lp1360
I2537
aI1597
aI2790
aI3020
aI536
aI764
aI579
aI624
aI2294
aa(lp1361
I1426
aI1890
aI2928
aI3194
aI579
aI1619
aI2582
aI778
aa(lp1362
I4
aI1922
aI1809
aI441
aI1513
aI1987
aI579
aI35
aI1125
aa(lp1363
I1166
aI1888
aI444
aI382
aI1185
aI155
aI1558
aI2093
aa(lp1364
I641
aI1075
aI624
aI1312
aI1513
aI1046
aI1075
aI624
aI2156
aI806
aa(lp1365
I1513
aI1388
aI1175
aI579
aI2203
aI1185
aI579
aI360
aa(lp1366
I2715
aI589
aI145
aI1203
aI1446
aI2349
aI127
aa(lp1367
I1523
aI2537
aI2744
aI1233
aI192
aI1314
aI227
aI1281
aI235
aI1979
aa(lp1368
I1075
aI873
aI3020
aI1295
aI2981
aI624
aI2774
aI1158
aa(lp1369
I1075
aI2568
aI624
aI1577
aI543
aI579
aI624
aI1444
aa(lp1370
I235
aI1183
aI2816
aI2156
aI2816
aI1397
aI1513
aI603
aa(lp1371
I484
aI189
aI1597
aI1597
aI2900
aI1513
aI1619
aI1367
aa(lp1372
I641
aI2444
aI573
aI996
aI1045
aI1185
aI1597
aI474
aa(lp1373
I2976
aI1558
aI1536
aI664
aI3020
aI1558
aI1372
aI873
aI2297
aa(lp1374
I624
aI2357
aI2894
aI2986
aI873
aI3020
aI2353
aa(lp1375
I2156
aI3088
aI1516
aI3193
aI2144
aI457
aI611
aI2156
aI1166
aI2347
aa(lp1376
I581
aI1072
aI2537
aI157
aI952
aI1350
aI624
aI692
aI25
aa(lp1377
I2801
aI1509
aI611
aI3080
aI1394
aI691
aI1305
aI1704
aa(lp1378
I579
aI157
aI952
aI1083
aI2144
aI1713
aI328
aI2250
aI1612
aa(lp1379
I624
aI2803
aI3020
aI534
aI691
aI611
aI602
aa(lp1380
I1185
aI1537
aI1513
aI2941
aI647
aI1060
aI611
aI3091
aa(lp1381
I624
aI1595
aI1730
aI1509
aI1032
aI873
aI1519
aa(lp1382
I237
aI825
aI575
aI319
aI1158
aI714
aa(lp1383
I1809
aI194
aI1075
aI2701
aI1075
aI1158
aI647
aI1060
aI1513
aI2139
aa(lp1384
I1185
aI1644
aI2582
aI1476
aI647
aI2607
aI611
aI1350
aa(lp1385
I2816
aI691
aI2582
aI2088
aI579
aI25
aI1513
aI1619
aI2582
aI3092
aa(lp1386
I1809
aI2777
aI2608
aI3158
aI2093
aI1285
aI1644
aI2137
aa(lp1387
I1746
aI1175
aI3020
aI1930
aI641
aI3020
aI1767
aI2715
aI2111
aa(lp1388
I2816
aI2156
aI1523
aI3022
aI573
aI647
aI1060
aI2537
aI230
aa(lp1389
I1281
aI2107
aI2144
aI134
aI1166
aI2144
aI2782
aI1029
aI1141
aa(lp1390
I1644
aI528
aI1513
aI1166
aI2801
aI1161
aI230
aI1619
aI611
aI1856
aa(lp1391
I2423
aI2144
aI611
aI781
aI1509
aI2296
aI2161
aI1653
aa(lp1392
I2587
aI611
aI1498
aI1644
aI1489
aI1920
aI381
aI2616
aa(lp1393
I1386
aI750
aI134
aI1185
aI2194
aI2274
aa(lp1394
I579
aI2787
aI1784
aI1600
aI1029
aI346
aI365
aa(lp1395
I2505
aI1644
aI624
aI3157
aI1166
aI558
aI611
aI1312
aI3134
aa(lp1396
I1185
aI1161
aI611
aI1583
aI2139
aI3041
aI1185
aI1192
aa(lp1397
I2415
aI94
aI134
aI157
aI952
aI2156
aI790
aI2513
aa(lp1398
I581
aI1600
aI2790
aI1203
aI2418
aI1760
aI1541
aa(lp1399
I581
aI1203
aI2315
aI1809
aI2169
aI1644
aI2647
aa(lp1400
I1185
aI589
aI2812
aI1754
aI734
aI961
aa(lp1401
I942
aI157
aI926
aI1387
aI1635
aI1176
aI1600
aI2033
aI548
aa(lp1402
I1029
aI2144
aI976
aI2582
aI2499
aI1185
aI1299
aI1495
aa(lp1403
I712
aI261
aI134
aI1689
aI2308
aI2315
aI611
aI3025
aa(lp1404
I691
aI611
aI2625
aI1513
aI2673
aI579
aI188
aI1612
aa(lp1405
I2139
aI2673
aI1185
aI188
aI1509
aI157
aI926
aI467
aa(lp1406
I1029
aI3043
aI2144
aI328
aI1185
aI3083
aI185
aa(lp1407
I589
aI183
aI134
aI2973
aI2144
aI1072
aI710
aI1196
aa(lp1408
I1399
aI1789
aI796
aI3022
aI1558
aI2582
aI3022
aI2880
aa(lp1409
I188
aI796
aI2549
aI784
aI2673
aI1644
aI191
aa(lp1410
I2816
aI469
aI572
aI469
aI581
aI83
aI2199
aa(lp1411
I2343
aI3160
aI1789
aI796
aI2568
aI2973
aI2144
aI2315
aI2773
aa(lp1412
I1756
aI1072
aI1030
aI1029
aI768
aI729
aI579
aI230
aa(lp1413
I1644
aI589
aI2093
aI539
aI2831
aI1809
aI2066
aI2612
aa(lp1414
I1185
aI1644
aI2315
aI852
aI1513
aI1997
aI641
aI1644
aI2315
aa(lp1415
I226
aI431
aI611
aI210
aI134
aI3020
aI1923
aI230
aI3106
aa(lp1416
I1644
aI589
aI2093
aI371
aI1141
aI2722
aI2976
aI3160
aI1107
aI1073
aa(lp1417
I157
aI926
aI572
aI2882
aI387
aI1746
aI493
aI579
aI1937
aa(lp1418
I3020
aI926
aI1072
aI2071
aI387
aI2071
aI624
aI1244
aI896
aa(lp1419
I1166
aI926
aI572
aI80
aI13
aI426
aI455
aa(lp1420
I624
aI2661
aI3125
aI558
aI1904
aI35
aI1281
aa(lp1421
I2686
aI926
aI741
aI75
aI1185
aI226
aI2816
aI579
aI624
aI2294
aa(lp1422
I1426
aI3020
aI741
aI1076
aI1644
aI197
aI573
aI1558
aI157
aI1312
aa(lp1423
I2976
aI2848
aI579
aI1446
aI2660
aI558
aI2505
aa(lp1424
I1185
aI1490
aI2713
aI2828
aI579
aI3092
aI1513
aI2979
aI298
aa(lp1425
I1072
aI1166
aI624
aI1423
aI572
aI2071
aI1918
aI1073
aa(lp1426
I1176
aI1426
aI2713
aI2190
aI1093
aI873
aI2375
aI624
aI674
aa(lp1427
I2816
aI1166
aI407
aI123
aI2509
aI35
aI2796
aa(lp1428
I1185
aI2657
aI582
aI2101
aI3077
aI2744
aI685
aI603
aa(lp1429
I124
aI3070
aI2713
aI3020
aI787
aI142
aI157
aI3125
aa(lp1430
I2343
aI3020
aI119
aI1072
aI2372
aI1597
aI1558
aI157
aI1653
aa(lp1431
I203
aI1689
aI2147
aI157
aI134
aI133
aI278
aa(lp1432
I1166
aI2432
aI2733
aI1809
aI950
aI1644
aI1244
aI2713
aI25
aa(lp1433
I624
aI1192
aI1619
aI2112
aI572
aI1513
aI1746
aI27
aa(lp1434
I1176
aI1426
aI573
aI4
aI157
aI2300
aI2568
aI592
aa(lp1435
I712
aI1315
aI145
aI1072
aI581
aI3020
aI796
aI1746
aI973
aI1003
aa(lp1436
I2193
aI579
aI1536
aI137
aI1185
aI1541
aI914
aI1809
aI790
aa(lp1437
I1166
aI1766
aI157
aI1214
aI1679
aI1112
aa(lp1438
I391
aI157
aI2618
aI1185
aI2679
aI145
aI779
aa(lp1439
I1183
aI573
aI1072
aI782
aI226
aI143
aI1644
aI428
aa(lp1440
I1644
aI1010
aI624
aI470
aI1166
aI220
aI741
aI3023
aa(lp1441
I691
aI1644
aI796
aI3051
aI1681
aI157
aI635
aI2903
aa(lp1442
I1176
aI1513
aI1536
aI46
aI1185
aI1536
aI1601
aI1644
aI127
aa(lp1443
I1185
aI1746
aI539
aI1746
aI1176
aI579
aI157
aI1448
aI973
aI2594
aa(lp1444
I1536
aI3128
aI137
aI1107
aI1597
aI1426
aI1597
aI2193
aI579
aI573
aa(lp1445
I1644
aI145
aI463
aI351
aI1597
aI83
aI973
aI2315
aI678
aa(lp1446
I691
aI2976
aI1597
aI1183
aI1426
aI1134
aI1536
aI1736
aI3020
aI1172
aa(lp1447
I2733
aI1445
aI1536
aI188
aI1045
aI535
aI1231
aI1044
aa(lp1448
I2790
aI2537
aI624
aI3196
aI923
aI535
aI1447
aI25
aa(lp1449
I535
aI2075
aI524
aI1644
aI2
aI1988
aI1191
aa(lp1450
I579
aI2579
aI1513
aI624
aI2031
aI2790
aI3020
aI2209
aa(lp1451
I535
aI2928
aI1197
aI579
aI535
aI181
aI122
aI878
aa(lp1452
I1903
aI1134
aI3020
aI2488
aI1597
aI2430
aI2801
aI641
aI2113
aI1213
aa(lp1453
I1573
aI641
aI558
aI188
aI3070
aI1809
aI389
aI602
aa(lp1454
I457
aI2537
aI2582
aI983
aI1185
aI796
aI2196
aI870
aa(lp1455
I1029
aI1536
aI2156
aI360
aI2801
aI3211
aI1045
aI558
aI1519
aa(lp1456
I4
aI1124
aI1185
aI364
aI1736
aI1013
aI2315
aI283
aa(lp1457
I691
aI891
aI1513
aI2801
aI756
aI2565
aI2144
aI2425
aI2043
aa(lp1458
I154
aI1597
aI1183
aI684
aI741
aI784
aI1423
aI683
aa(lp1459
I2501
aI1072
aI157
aI926
aI2315
aI2384
aI842
aa(lp1460
I1075
aI157
aI652
aI2976
aI1578
aI546
aI1244
aa(lp1461
I1903
aI1619
aI2001
aI157
aI832
aI1185
aI846
aI2315
aa(lp1462
I1644
aI237
aI1513
aI237
aI1045
aI2733
aI1185
aI77
aI1029
aa(lp1463
I1978
aI572
aI157
aI926
aI823
aI576
aI1978
aa(lp1464
I1045
aI2388
aI579
aI1809
aI28
aI877
aa(lp1465
I124
aI157
aI1448
aI1644
aI397
aI1465
aa(lp1466
I237
aI1125
aI1493
aI97
aI2690
aI1664
aa(lp1467
I463
aI1978
aI1185
aI762
aI572
aI1619
aI157
aI1192
aa(lp1468
I463
aI1978
aI1185
aI762
aI834
aI1644
aI3051
aI2866
aa(lp1469
I1185
aI579
aI2565
aI915
aI572
aI157
aI1679
aI365
aa(lp1470
I535
aI2651
aI579
aI237
aI2801
aI28
aI950
aI1149
aa(lp1471
I463
aI1978
aI1185
aI762
aI2790
aI2292
aI2179
aI913
aa(lp1472
I2801
aI535
aI1004
aI1073
aI83
aI610
aI2743
aI579
aI237
aa(lp1473
I1426
aI579
aI624
aI2036
aI1513
aI2060
aI1600
aa(lp1474
I3020
aI2111
aI2776
aI1513
aI624
aI2749
aI179
aa(lp1475
I1185
aI188
aI975
aI1775
aI678
aI2461
aa(lp1476
I579
aI2568
aI1513
aI1398
aI683
aI1185
aI544
aI354
aa(lp1477
I226
aI579
aI624
aI1165
aI1513
aI2156
aI784
aI469
aa(lp1478
I1513
aI602
aI1513
aI1873
aI1513
aI2015
aI1513
aI1736
aI1513
aI1382
aa(lp1479
I3020
aI2111
aI2744
aI676
aI1583
aI119
aI2790
aI2489
aa(lp1480
I60
aI2733
aI1809
aI188
aI2976
aI1597
aI327
aI1073
aa(lp1481
I1029
aI1619
aI2744
aI846
aI2113
aI2816
aI3153
aa(lp1482
I1513
aI2565
aI2686
aI1600
aI1619
aI1597
aI2756
aa(lp1483
I1185
aI691
aI235
aI794
aI2816
aI1558
aI700
aI1163
aa(lp1484
I235
aI647
aI1072
aI3041
aI1550
aI1536
aI27
aI1644
aI2505
aa(lp1485
I691
aI488
aI2801
aI1073
aI3203
aI1372
aI1645
aI298
aa(lp1486
I2790
aI1163
aI1644
aI1295
aI2816
aI1624
aI1995
aI1644
aI2568
aa(lp1487
I1072
aI364
aI3128
aI2403
aI1075
aI624
aI3147
aI969
aa(lp1488
I1513
aI624
aI1178
aI1466
aI1534
aI1509
aI588
aI1644
aI1320
aa(lp1489
I973
aI641
aI624
aI1966
aI1513
aI157
aI762
aI926
aI2574
aa(lp1490
I1991
aI2976
aI1039
aI1644
aI1809
aI1465
aI1762
aa(lp1491
I624
aI2721
aI1491
aI4
aI2713
aI151
aI1379
aa(lp1492
I1185
aI624
aI1194
aI2100
aI2408
aI2744
aI3128
aI1309
aa(lp1493
I1594
aI1073
aI748
aI2543
aI280
aa(lp1494
I1185
aI2402
aI466
aI1502
aI1513
aI2871
aI2425
aa(lp1495
I1073
aI1558
aI624
aI2571
aI1513
aI2565
aI2026
aI2310
aI1600
aa(lp1496
I157
aI926
aI2637
aI2430
aI1185
aI2137
aI1644
aI145
aI1351
aa(lp1497
I1903
aI421
aI1513
aI2093
aI1673
aI946
aI579
aI2565
aI1599
aI2461
aa(lp1498
I2197
aI3160
aI3112
aI2764
aI2372
aI1185
aI1868
aI2288
aa(lp1499
I1185
aI2144
aI579
aI2565
aI396
aI2063
aI611
aI3175
aa(lp1500
I1426
aI1390
aI1685
aI1185
aI2437
aI1513
aI1604
aI2113
aI365
aa(lp1501
I3204
aI579
aI624
aI2874
aI1166
aI3185
aI1013
aI339
aa(lp1502
I2801
aI4
aI1072
aI2921
aI1644
aI230
aI157
aI762
aI441
aa(lp1503
I3204
aI75
aI1644
aI528
aI1689
aI1073
aI1644
aI1814
aa(lp1504
I1166
aI1013
aI2082
aI157
aI926
aI1523
aI611
aI685
aI1246
aa(lp1505
I2030
aI2156
aI917
aI2816
aI641
aI3070
aI1293
aI1484
aa(lp1506
I3020
aI144
aI247
aI2664
aI1196
aI2764
aI624
aI1654
aI1393
aa(lp1507
I2591
aI796
aI678
aI1125
aI678
aI2144
aI364
aI3020
aI1126
aa(lp1508
I60
aI2976
aI1426
aI1134
aI3020
aI1959
aI611
aI463
aI1078
aa(lp1509
I1029
aI1166
aI284
aI926
aI579
aI952
aI2430
aI1368
aa(lp1510
I1889
aI1072
aI624
aI3014
aI1185
aI1745
aI1513
aI2425
aa(lp1511
I1075
aI1161
aI1644
aI2278
aI2330
aI1127
aa(lp1512
I2816
aI2516
aI1942
aI691
aI2938
aI2582
aI3081
aa(lp1513
I2016
aI624
aI1134
aI2510
aI1513
aI926
aI1541
aI2824
aa(lp1514
I1281
aI1600
aI1185
aI2117
aI746
aI119
aI1244
aI573
aI683
aa(lp1515
I712
aI83
aI1196
aI1166
aI3020
aI741
aI2781
aI1513
aI979
aa(lp1516
I387
aI1851
aI2444
aI157
aI350
aI1644
aI1919
aa(lp1517
I2976
aI550
aI1856
aI3020
aI2537
aI157
aI2012
aI1727
aa(lp1518
I2976
aI2537
aI157
aI969
aI2801
aI579
aI611
aI2087
aI558
aI2227
aa(lp1519
I1166
aI572
aI157
aI3093
aI1513
aI926
aI581
aI3020
aI2790
aI1706
aa(lp1520
I3070
aI2093
aI1166
aI1900
aI3020
aI1386
aI1587
aa(lp1521
I629
aI1644
aI624
aI1600
aI1072
aI1558
aI624
aI1600
aI449
aa(lp1522
I1029
aI1166
aI157
aI2012
aI2839
aI911
aI691
aI157
aI1265
aa(lp1523
I83
aI1975
aI387
aI579
aI157
aI492
aI2734
aa(lp1524
I1619
aI2643
aI1166
aI2413
aI1619
aI2936
aI1513
aI1805
aa(lp1525
I1166
aI573
aI2715
aI1029
aI2854
aI2315
aI925
aa(lp1526
I1644
aI876
aI691
aI2030
aI1619
aI611
aI1695
aI1513
aI1861
aa(lp1527
I691
aI2030
aI2565
aI1178
aI2325
aI3020
aI740
aa(lp1528
I656
aI2144
aI157
aI1444
aI579
aI573
aI2144
aI2107
aI157
aI1619
aa(lp1529
I1171
aI1269
aI762
aI3020
aI2790
aI1568
aI84
aI1185
aI1541
aa(lp1530
I1185
aI3162
aI157
aI2012
aI1809
aI109
aI1644
aI624
aI2881
aa(lp1531
I439
aI364
aI3128
aI608
aI2134
aI1245
aI1689
aI572
aI2026
aI685
aa(lp1532
I3162
aI678
aI2027
aI1513
aI2663
aI75
aa(lp1533
I2026
aI762
aI573
aI572
aI1166
aI3020
aI2790
aI794
aI1509
aI2673
aa(lp1534
I353
aI1185
aI733
aI2816
aI2326
aI1619
aI72
aa(lp1535
I1372
aI432
aI657
aI157
aI979
aI319
aI1987
aa(lp1536
I1185
aI170
aI1963
aI1341
aI230
aI157
aI469
aI1513
aI926
aa(lp1537
I1073
aI1619
aI572
aI1946
aI2790
aI1689
aI2308
aI2790
aI796
aI1019
aa(lp1538
I364
aI9
aI3020
aI83
aI1746
aI2978
aI2242
aa(lp1539
I1509
aI2368
aI2515
aI1644
aI2470
aI1578
aI2236
aI351
aa(lp1540
I1809
aI269
aI579
aI926
aI1644
aI2172
aI3020
aI1576
aI1465
aa(lp1541
I226
aI942
aI145
aI813
aI2540
aI157
aI1666
aI624
aI469
aa(lp1542
I60
aI1644
aI611
aI1932
aI1185
aI2026
aI2026
aI951
aI2087
aa(lp1543
I712
aI691
aI157
aI939
aI431
aI1597
aI1558
aI1470
aI2353
aa(lp1544
I624
aI73
aI504
aI1513
aI157
aI2813
aI1845
aa(lp1545
I1166
aI873
aI1072
aI221
aI691
aI157
aI548
aI174
aa(lp1546
I1176
aI1702
aI2862
aI2801
aI1702
aI2158
aI978
aa(lp1547
I2925
aI2590
aI573
aI1166
aI157
aI1078
aI511
aI1809
aI3149
aa(lp1548
I1185
aI2984
aI2925
aI157
aI492
aI572
aI1511
aa(lp1549
I1644
aI1689
aI573
aI3079
aI579
aI3070
aI624
aI1553
aI602
aa(lp1550
I502
aI145
aI226
aI1185
aI3167
aI3020
aI1183
aI408
aa(lp1551
I2633
aI3070
aI1809
aI2652
aI890
aI3020
aI2978
aI3008
aa(lp1552
I305
aI1513
aI2048
aI1630
aI157
aI1715
aI2556
aa(lp1553
I796
aI345
aI1166
aI3020
aI2978
aI330
aI1132
aa(lp1554
I1075
aI1982
aI460
aI1644
aI1106
aI1189
aa(lp1555
I502
aI145
aI226
aI685
aI351
aI1185
aI3020
aI55
aI1866
aa(lp1556
I60
aI1166
aI1536
aI502
aI572
aI1550
aI1644
aI625
aI145
aa(lp1557
I1536
aI926
aI1185
aI502
aI558
aI594
aI2833
aI1586
aa(lp1558
I2801
aI2742
aI2531
aI2627
aI3009
aI157
aI1382
aa(lp1559
I691
aI1689
aI1116
aI3020
aI2809
aI1609
aI145
aI3023
aI1523
aI508
aa(lp1560
I1029
aI1597
aI1505
aI157
aI2697
aI157
aI1861
aI2621
aa(lp1561
I1597
aI2113
aI157
aI1619
aI624
aI1466
aI1185
aI3020
aI144
aI2666
aa(lp1562
I1644
aI3064
aI157
aI3006
aI1185
aI846
aI2537
aI1536
aI3125
aa(lp1563
I1767
aI2187
aI1644
aI145
aI1075
aI3020
aI1644
aI1767
aI3089
aa(lp1564
I1166
aI157
aI401
aI985
aI1523
aI2892
aI677
aI1523
aI190
aa(lp1565
I579
aI1029
aI2667
aI1598
aI3020
aI1451
aI1619
aI1116
aa(lp1566
I1513
aI658
aI936
aI1166
aI157
aI1795
aI985
aa(lp1567
I1644
aI988
aI1185
aI1644
aI1228
aI1885
aI2113
aa(lp1568
I1349
aI3106
aI1558
aI157
aI2625
aI3020
aI431
aI30
aa(lp1569
I1597
aI2113
aI1029
aI1567
aI579
aI157
aI2232
aI2824
aa(lp1570
I1166
aI1619
aI624
aI1466
aI1769
aI3211
aI2113
aI683
aa(lp1571
I1903
aI3020
aI627
aI1597
aI364
aI1736
aI572
aI579
aI157
aI363
aa(lp1572
I1185
aI1166
aI2801
aI2362
aI145
aI1644
aI2442
aI3115
aa(lp1573
I558
aI1973
aI2582
aI3146
aI1185
aI572
aI2180
aI1135
aa(lp1574
I1445
aI820
aI2816
aI92
aI572
aI2690
aa(lp1575
I691
aI573
aI796
aI746
aI3156
aI1644
aI624
aI979
aa(lp1576
I1513
aI2492
aI1513
aI1602
aI1523
aI2254
aI2801
aI573
aI558
aI777
aa(lp1577
I1513
aI2582
aI879
aI2500
aI4
aI624
aI363
aI796
aI1973
aa(lp1578
I1075
aI2582
aI3128
aI2073
aI2596
aI1689
aI573
aI558
aI557
aa(lp1579
I691
aI581
aI573
aI2111
aI624
aI195
aI1523
aI2124
aI2301
aa(lp1580
I624
aI2026
aI2156
aI899
aI1523
aI2438
aI1800
aa(lp1581
I624
aI2007
aI1523
aI624
aI2114
aI624
aI2664
aI1523
aI674
aa(lp1582
I624
aI2477
aI1523
aI2741
aI573
aI2286
aI227
aI1644
aI1536
aI178
aa(lp1583
I621
aI1513
aI1746
aI1808
aI1558
aI1597
aa(lp1584
I157
aI2026
aI762
aI363
aI2986
aI636
aI364
aI2884
aa(lp1585
I1523
aI3166
aI558
aI157
aI363
aI1425
aI292
aI1558
aI1597
aa(lp1586
I3008
aI1285
aI624
aI1283
aI3154
aI2565
aI2067
aa(lp1587
I1523
aI3166
aI2308
aI3020
aI1196
aI364
aI1736
aI331
aI762
aa(lp1588
I1185
aI1166
aI1536
aI926
aI257
aI573
aI2565
aI650
aa(lp1589
I1644
aI589
aI1513
aI1807
aI1185
aI588
aI892
aa(lp1590
I2733
aI1738
aI2976
aI1536
aI2156
aI2012
aI1812
aa(lp1591
I2133
aI35
aI2697
aI1809
aI2641
aI469
aa(lp1592
I2976
aI1539
aI2976
aI2500
aI1644
aI2582
aI2600
aI1506
aa(lp1593
I712
aI1269
aI624
aI1134
aI1269
aI2067
aI579
aI157
aI820
aa(lp1594
I1185
aI157
aI2508
aI363
aI2026
aI1863
aI2017
aI573
aI1285
aa(lp1595
I364
aI1736
aI3023
aI1750
aI1689
aI1558
aI2582
aI2875
aI572
aI314
aa(lp1596
I1185
aI1644
aI2582
aI1230
aI558
aI1540
aI624
aI2261
aa(lp1597
I581
aI573
aI2315
aI2103
aI1269
aI624
aI564
aI2603
aa(lp1598
I1166
aI364
aI1736
aI2771
aI573
aI1185
aI558
aI1134
aI1217
aa(lp1599
I1367
aI2618
aI1166
aI3020
aI220
aI2790
aI2620
aI431
aI2227
aa(lp1600
I60
aI1367
aI1166
aI471
aI3020
aI2715
aI1072
aI926
aI1597
aI645
aa(lp1601
I641
aI226
aI157
aI3015
aI1222
aI796
aI1720
aI2819
aa(lp1602
I157
aI2026
aI1705
aI350
aI2852
aI1438
aI699
aI1223
aa(lp1603
I2816
aI3044
aI1600
aI13
aI326
aI3230
aa(lp1604
I689
aI579
aI2182
aI2901
aI1185
aI915
aI2484
aI1513
aI1482
aa(lp1605
I3217
aI1798
aI188
aI1214
aI624
aI2346
aI1569
aa(lp1606
I2802
aI1715
aI2927
aI1644
aI624
aI1042
aI1513
aI2476
aI588
aa(lp1607
I1171
aI2819
aI883
aI1513
aI2812
aI2957
aa(lp1608
I1856
aI3020
aI1072
aI226
aI1196
aI2458
aI3020
aI926
aI1597
aI469
aI2692
aa(lp1609
I1426
aI3020
aI741
aI2953
aI2764
aI541
aa(lp1610
I312
aI624
aI1645
aI2861
aI1513
aI624
aI1429
aa(lp1611
I926
aI572
aI1809
aI2550
aI226
aI1856
aI3020
aI1072
aI1196
aI1029
aa(lp1612
I1644
aI942
aI1705
aI3092
aI1644
aI1166
aI2801
aI1045
aI558
aI1022
aa(lp1613
I2501
aI145
aI1072
aI1644
aI624
aI2856
aI1513
aI762
aI2927
aa(lp1614
I2929
aI2401
aI926
aI572
aI1072
aI926
aa(lp1615
I2801
aI2138
aI1426
aI573
aI2682
aI2150
aa(lp1616
I1523
aI1891
aI1558
aI624
aI1225
aI1644
aI2099
aa(lp1617
I712
aI796
aI573
aI572
aI1578
aI1591
aI1349
aa(lp1618
I1166
aI2637
aI1509
aI501
aI1185
aI572
aI83
aI706
aa(lp1619
I573
aI572
aI624
aI3207
aI1644
aI35
aI1596
aI2116
aa(lp1620
I13
aI2611
aI303
aI3108
aI2582
aI521
aI2315
aI1744
aa(lp1621
I952
aI1072
aI2812
aI1380
aI387
aI2177
aI2299
aI1185
aI2547
aa(lp1622
I2339
aI2582
aI2058
aI2595
aI2089
aI1320
aa(lp1623
I926
aI2138
aI1072
aI1558
aI2582
aI1696
aI1710
aI1185
aI1649
aa(lp1624
I2816
aI300
aI573
aI2690
aI60
aI1644
aI624
aI2245
aI1513
aI1762
aa(lp1625
I581
aI2565
aI2315
aI2897
aI1185
aI3009
aI145
aI1341
aa(lp1626
I3020
aI83
aI2620
aI1075
aI796
aI1023
aI77
aI2761
aa(lp1627
I2465
aI145
aI2986
aI1166
aI3020
aI2790
aI2464
aI1619
aa(lp1628
I2220
aI3020
aI2852
aI1536
aI2508
aI2069
aI1613
aa(lp1629
I258
aI3009
aI1536
aI2635
aI926
aI1644
aI740
aa(lp1630
I2354
aI1619
aI2469
aI431
aI804
aI145
aI2664
aI2326
aI2664
aa(lp1631
I1166
aI3020
aI2790
aI1133
aI536
aI1558
aI303
aI2927
aa(lp1632
I1185
aI285
aI1644
aI1600
aI1536
aI3128
aI1415
aI677
aa(lp1633
I1166
aI3020
aI2790
aI3148
aI475
aI1644
aI1619
aI624
aI1678
aa(lp1634
I2801
aI2852
aI3094
aI145
aI2886
aI2537
aI1536
aI2301
aa(lp1635
I3199
aI2139
aI157
aI2434
aI1185
aI392
aI728
aa(lp1636
I1185
aI1509
aI629
aI2515
aI2397
aI2237
aa(lp1637
I2839
aI145
aI2339
aI624
aI872
aI1513
aI1536
aI1457
aa(lp1638
I2816
aI34
aI1072
aI2981
aI145
aI579
aI1536
aI1638
aI11
aa(lp1639
I1903
aI157
aI904
aI882
aI3020
aI873
aI2666
aI1644
aI938
aa(lp1640
I624
aI397
aI1185
aI962
aI1513
aI1536
aI926
aa(lp1641
I3070
aI2976
aI1644
aI589
aI2686
aI9
aI1746
aI2718
aa(lp1642
I1558
aI532
aI1298
aI488
aI2686
aI1230
aI1216
aa(lp1643
I2976
aI1644
aI880
aI2686
aI553
aI3065
aa(lp1644
I488
aI1931
aI1644
aI1701
aI1402
aI1426
aI488
aI970
aa(lp1645
I60
aI1029
aI1425
aI1705
aI1513
aI1536
aI3135
aI613
aa(lp1646
I1644
aI330
aI2304
aI873
aI3020
aI2888
aI157
aI14
aa(lp1647
I1185
aI3201
aI1513
aI1632
aI1887
aI1809
aI1978
aI1513
aI1556
aa(lp1648
I1644
aI2315
aI234
aI154
aI1166
aI1541
aI741
aI762
aI246
aa(lp1649
I2986
aI1059
aI579
aI926
aI1671
aI1983
aa(lp1650
I624
aI2681
aI1166
aI1183
aI1072
aI1979
aI1644
aI1316
aI280
aa(lp1651
I1185
aI668
aI1644
aI1659
aI1809
aI2364
aI2904
aa(lp1652
I2801
aI315
aI1513
aI3184
aI119
aI2326
aI508
aI2315
aI2712
aa(lp1653
I2816
aI2925
aI3020
aI1772
aI1185
aI2063
aI624
aI2345
aI762
aa(lp1654
I552
aI413
aI2093
aI1166
aI1029
aI1515
aI3201
aI1513
aI1597
aa(lp1655
I1689
aI305
aI2790
aI3020
aI2010
aI1513
aI1016
aI1261
aa(lp1656
I1396
aI2537
aI1270
aI36
aI2976
aI1835
aI2339
aa(lp1657
I1561
aI2403
aI1644
aI2370
aI1185
aI2370
aI1644
aI2403
aa(lp1658
I1045
aI702
aI1426
aI3020
aI2488
aI157
aI2012
aI1644
aI2524
aa(lp1659
I1689
aI1748
aI392
aI4
aI157
aI979
aI1284
aa(lp1660
I2633
aI573
aI4
aI3024
aI573
aI2012
aI1029
aI1531
aI83
aa(lp1661
I3106
aI2790
aI364
aI1163
aI2690
aI1513
aI2744
aI922
aI536
aI405
aa(lp1662
I579
aI624
aI2094
aI1513
aI2565
aI477
aI1089
aa(lp1663
I712
aI1473
aI1513
aI508
aI1073
aI3020
aI2063
aI762
aa(lp1664
I1166
aI221
aI572
aI2326
aI291
aI1045
aI3162
aI221
aa(lp1665
I1185
aI1292
aI926
aI1426
aI573
aI572
aI2009
aI774
aa(lp1666
I596
aI2212
aI1176
aI2981
aI1134
aI1746
aI1715
aI180
aI2655
aa(lp1667
I1029
aI3020
aI1386
aI2463
aI1644
aI157
aI272
aa(lp1668
I1185
aI3155
aI2326
aI2681
aI545
aI1746
aI1176
aI3020
aI2790
aI365
aa(lp1669
I1166
aI1597
aI1183
aI2433
aI1254
aI1684
aI145
aI1073
aa(lp1670
I1185
aI691
aI1166
aI2914
aI2801
aI3020
aI226
aI873
aI1940
aa(lp1671
I1789
aI144
aI3020
aI22
aI157
aI2769
aI921
aa(lp1672
I2806
aI157
aI3078
aI1183
aI1604
aI1523
aI2539
aI2760
aa(lp1673
I691
aI581
aI1597
aI1183
aI2326
aI157
aI1226
aI706
aa(lp1674
I2976
aI3020
aI2326
aI626
aI2055
aI1962
aI1809
aI1835
aI1513
aI1600
aa(lp1675
I1185
aI3020
aI1809
aI2638
aI2790
aI796
aI437
aI1744
aa(lp1676
I1644
aI2416
aI3106
aI2433
aI3020
aI853
aI579
aI1536
aI1260
aa(lp1677
I712
aI1166
aI2686
aI674
aI1513
aI2126
aI1856
aI2790
aI2317
aa(lp1678
I157
aI763
aI985
aI3106
aI1894
aI762
aI2914
aI2920
aa(lp1679
I1185
aI1829
aI1644
aI1597
aI2976
aI1597
aI1644
aI145
aI226
aI1729
aa(lp1680
I624
aI615
aI2253
aI2801
aI2829
aI593
aI2610
aa(lp1681
I2816
aI1166
aI1536
aI1247
aI1073
aI2406
aI1809
aI2323
aa(lp1682
I364
aI1424
aI626
aI1185
aI626
aI144
aI2991
aI145
aa(lp1683
I1269
aI221
aI1644
aI2315
aI15
aI1176
aI15
aI2222
aa(lp1684
I1426
aI1072
aI1644
aI2315
aI511
aI1924
aI1513
aI1425
aa(lp1685
I1185
aI624
aI629
aI1820
aI3071
aI2801
aI572
aI1029
aI79
aa(lp1686
I1072
aI2326
aI2686
aI2140
aI2816
aI2326
aI658
aI820
aa(lp1687
I691
aI2819
aI2852
aI658
aI2781
aI2171
aI1163
aa(lp1688
I942
aI1291
aI1644
aI157
aI2065
aI1805
aa(lp1689
I1523
aI1509
aI157
aI2643
aI2819
aI2113
aI711
aI90
aa(lp1690
I2801
aI579
aI2744
aI2951
aI3161
aI2697
aI1689
aI3020
aI1132
aI1861
aa(lp1691
I796
aI3020
aI1576
aI1166
aI3020
aI1576
aI1185
aI235
aI1166
aI872
aa(lp1692
I2981
aI157
aI1566
aI2022
aI1285
aI2744
aI3128
aa(lp1693
I3020
aI1013
aI2315
aI2194
aI387
aI235
aI2543
aI2315
aI2238
aa(lp1694
I2326
aI2744
aI315
aI608
aI157
aI1845
aI144
aI1072
aI2315
aI1095
aa(lp1695
I2806
aI2565
aI2959
aI291
aI235
aI200
aa(lp1696
I1619
aI489
aI2113
aI2697
aI1185
aI579
aI2744
aI2748
aI817
aa(lp1697
I611
aI670
aI611
aI2259
aI2113
aI2339
aI157
aI2874
aa(lp1698
I1705
aI1442
aI1558
aI3007
aI949
aa(lp1699
I2801
aI2308
aI72
aI1166
aI348
aI315
aI1770
aa(lp1700
I1898
aI1619
aI1018
aI60
aI1644
aI807
aa(lp1701
I1523
aI2981
aI624
aI1958
aI1029
aI1141
aI2976
aI2874
aI1185
aI979
aa(lp1702
I2790
aI1401
aI2326
aI492
aI1644
aI788
aa(lp1703
I1004
aI247
aI1644
aI53
aI2309
aI1277
aI2582
aI1973
aa(lp1704
I1513
aI230
aI611
aI2899
aI83
aI973
aI2315
aI1902
aa(lp1705
I1166
aI1599
aI844
aI2715
aI1072
aI1029
aI539
aI142
aa(lp1706
I1075
aI2792
aI3020
aI1221
aI611
aI685
aI926
aI1644
aI480
aa(lp1707
I124
aI1644
aI942
aI227
aI2537
aI145
aI741
aI3020
aI698
aa(lp1708
I1644
aI526
aI1367
aI2259
aI1166
aI2189
aI230
aI1746
aa(lp1709
I1644
aI2716
aI1578
aI2800
aI1644
aI1025
aI230
aa(lp1710
I1183
aI1644
aI1307
aI1503
aI579
aI145
aa(lp1711
I796
aI1600
aI2144
aI396
aI1072
aI918
aI1166
aI3020
aI431
aI915
aa(lp1712
I611
aI811
aI2009
aI1285
aI1558
aI2368
aI1856
aa(lp1713
I1644
aI145
aI2113
aI2030
aI2970
aI2030
aI1852
aa(lp1714
I235
aI2113
aI2816
aI2912
aI1513
aI1809
aI1642
aI2301
aa(lp1715
I2686
aI1322
aI2113
aI1696
aI1185
aI124
aI488
aI2195
aa(lp1716
I1689
aI2144
aI3043
aI166
aI3009
aI2379
aI1166
aI572
aI678
aa(lp1717
I1185
aI1028
aI589
aI227
aI684
aI1644
aI2686
aI667
aa(lp1718
I1176
aI1132
aI1166
aI488
aI220
aI2790
aI987
aI227
aI78
aa(lp1719
I611
aI2061
aI1185
aI230
aI3020
aI2139
aI1404
aa(lp1720
I1072
aI461
aI2981
aI624
aI1645
aI1075
aI624
aI1677
aa(lp1721
I691
aI611
aI1070
aI1185
aI1689
aI488
aI2111
aI558
aI2227
aa(lp1722
I3162
aI1746
aI1523
aI2071
aI2326
aI611
aI840
aI201
aa(lp1723
I2565
aI3020
aI431
aI2206
aI1185
aI2565
aI2308
aI77
aI2315
aa(lp1724
I3020
aI2978
aI2315
aI762
aI442
aI611
aI2499
aI1185
aI230
aa(lp1725
I581
aI157
aI685
aI926
aI1183
aI2816
aI624
aI556
aI1513
aI2904
aa(lp1726
I573
aI1856
aI691
aI1286
aI2795
aI2315
aI772
aa(lp1727
I2976
aI470
aI1644
aI2812
aI926
aI1523
aI1644
aI2812
aI11
aa(lp1728
I1872
aI1330
aI1872
aI1523
aI1175
aI1558
aI1175
aI2496
aa(lp1729
I796
aI573
aI741
aI2039
aI180
aI2537
aI505
aa(lp1730
I573
aI1557
aI1072
aI579
aI1836
aI1164
aI1075
aI2593
aa(lp1731
I22
aI624
aI1439
aI1513
aI2519
aI2435
aa(lp1732
I2354
aI594
aI2282
aI1600
aI2686
aI358
aI1609
aa(lp1733
I573
aI2403
aI1072
aI1059
aI1166
aI2872
aa(lp1734
I2801
aI3079
aI1509
aI2868
aI1513
aI682
aI1710
aa(lp1735
I2816
aI1619
aI913
aI2035
aI1614
aI105
aa(lp1736
I1166
aI573
aI1075
aI596
aI1558
aI755
aI1075
aI2023
aI1558
aI2002
aa(lp1737
I1644
aI2565
aI3020
aI3200
aI740
aI624
aI3067
aI1513
aI1600
aa(lp1738
I2801
aI874
aI691
aI3184
aI2809
aI2790
aI2179
aI691
aI1260
aa(lp1739
I2753
aI2763
aI1644
aI145
aI3020
aI687
aI624
aI2934
aa(lp1740
I1558
aI157
aI1409
aI624
aI2117
aI519
aa(lp1741
I1523
aI273
aI2508
aI2853
aI691
aI807
aa(lp1742
I2801
aI1376
aI1746
aI1811
aI1176
aI2955
aI1523
aI1854
aa(lp1743
I2790
aI3020
aI1072
aI2209
aI1326
aI1509
aI746
aI1185
aI899
aa(lp1744
I3077
aI1619
aI1185
aI1746
aI2326
aI1650
aI328
aI539
aI2322
aa(lp1745
I691
aI1427
aI2156
aI1492
aI3049
aI225
aa(lp1746
I655
aI3205
aI579
aI2744
aI2674
aI365
aa(lp1747
I796
aI2501
aI145
aI2315
aI2842
aI579
aI611
aI979
aa(lp1748
I1185
aI1211
aI2144
aI157
aI1658
aI1599
aI2816
aI286
aa(lp1749
I2801
aI572
aI1072
aI1521
aI1558
aI1499
aI1750
aI796
aI2107
aa(lp1750
I2816
aI3191
aI1841
aI943
aI145
aI691
aI230
aa(lp1751
I2722
aI2144
aI3139
aI1354
aI1809
aI762
aI969
aa(lp1752
I1426
aI2026
aI1921
aI2035
aI1958
aI579
aI611
aI2574
aa(lp1753
I712
aI2144
aI157
aI544
aI917
aI2809
aI579
aI611
aI1498
aa(lp1754
I3043
aI142
aI2812
aI1355
aI137
aI2582
aI1355
aI1768
aa(lp1755
I2809
aI1713
aI2326
aI2044
aI582
aI1185
aI3083
aI889
aa(lp1756
I611
aI1901
aI2705
aI2976
aI611
aI2156
aI2012
aI2577
aa(lp1757
I581
aI492
aI736
aI293
aI212
aI2291
aa(lp1758
I2976
aI2144
aI1120
aI1725
aI1045
aI2978
aI1314
aI230
aI752
aa(lp1759
I2878
aI202
aI230
aI1644
aI2565
aI2232
aI1166
aI2713
aI3041
aa(lp1760
I1013
aI1600
aI779
aI1185
aI1748
aI3176
aI2102
aa(lp1761
I641
aI891
aI2713
aI712
aI2144
aI1960
aI1513
aI2713
aI1820
aa(lp1762
I2878
aI1013
aI3197
aI2816
aI1072
aI1045
aI2716
aI2713
aI1257
aa(lp1763
I2713
aI3017
aI387
aI1554
aI850
aI144
aI2315
aa(lp1764
I1185
aI2713
aI3213
aI572
aI1644
aI1841
aI230
aa(lp1765
I579
aI624
aI678
aI2425
aI1263
aI741
aI1072
aI648
aI463
aa(lp1766
I1523
aI581
aI573
aI1183
aI573
aI687
aI1072
aI784
aI1078
aa(lp1767
I2816
aI1073
aI572
aI1263
aI784
aI1289
aI2554
aa(lp1768
I1185
aI188
aI841
aI1558
aI1809
aI2795
aI575
aa(lp1769
I691
aI1903
aI247
aI602
aI4
aI1922
aI1509
aI1897
aI1498
aa(lp1770
I2307
aI624
aI36
aI1558
aI2019
aI2781
aI430
aI790
aa(lp1771
I2156
aI188
aI4
aI796
aI1078
aI796
aI131
aI1974
aa(lp1772
I2816
aI572
aI213
aI581
aI1072
aI2188
aI579
aI779
aa(lp1773
I124
aI157
aI1876
aI1163
aI2113
aI3054
aI1263
aa(lp1774
I2713
aI1163
aI1029
aI1603
aI1185
aI235
aI1207
aI371
aa(lp1775
I2981
aI2733
aI2809
aI1072
aI684
aI463
aI796
aI188
aI1624
aa(lp1776
I2355
aI2295
aI1558
aI1809
aI2781
aI3134
aa(lp1777
I641
aI1029
aI235
aI863
aI749
aI1513
aI2744
aI2126
aa(lp1778
I1166
aI35
aI3125
aI882
aI188
aI2852
aI2193
aI1029
aa(lp1779
I3106
aI3026
aI1426
aI2144
aI157
aI123
aI123
aI1058
aa(lp1780
I3009
aI1166
aI1531
aI947
aI13
aI1124
aI1146
aa(lp1781
I1558
aI611
aI2156
aI67
aI1426
aI2144
aI2785
aI3227
aa(lp1782
I624
aI2909
aI255
aI1166
aI364
aI3157
aI848
aa(lp1783
I431
aI3020
aI2845
aI1367
aI1204
aI1166
aI2498
aI3099
aa(lp1784
I1644
aI3034
aI624
aI1672
aI1844
aI1513
aI611
aI602
aa(lp1785
I2633
aI157
aI1599
aI2299
aI2801
aI2852
aI1166
aI2560
aI1467
aa(lp1786
I2981
aI624
aI2174
aI1913
aI2326
aI230
aI825
aI1519
aa(lp1787
I1644
aI2315
aI1029
aI2654
aI235
aI119
aI915
aI2744
aI2904
aa(lp1788
I1185
aI1378
aI1558
aI1367
aI2011
aI1053
aa(lp1789
I2764
aI2172
aI611
aI67
aI2944
aI1558
aI2787
aI3152
aa(lp1790
I975
aI683
aI947
aI1746
aI1500
aI1176
aI1094
aI2299
aa(lp1791
I1903
aI1838
aI1204
aI1029
aI743
aI2113
aI579
aI2565
aa(lp1792
I942
aI227
aI611
aI67
aI145
aI611
aI2299
aI1644
aI3034
aa(lp1793
I594
aI514
aI1513
aI441
aI579
aI1809
aI2955
aI1513
aI575
aa(lp1794
I572
aI2815
aI579
aI1722
aI1185
aI1004
aI1722
aI2815
aa(lp1795
I572
aI1818
aI3116
aI929
aI1705
aI1513
aI1315
aa(lp1796
I1682
aI2507
aI1802
aI3172
aI1072
aI1644
aI526
aa(lp1797
I416
aI796
aI1068
aI2816
aI734
aI2194
aa(lp1798
I1677
aI1720
aI1874
aI1185
aI796
aI1068
aI647
aa(lp1799
I1677
aI1720
aI2262
aI2976
aI1809
aI933
aI409
aa(lp1800
I1509
aI2232
aI273
aI1644
aI589
aI624
aI703
aI1017
aa(lp1801
I1017
aI579
aI88
aI1185
aI579
aI2548
aI1029
aa(lp1802
I647
aI2432
aI1185
aI579
aI2275
aI1644
aI2790
aI2507
aa(lp1803
I1809
aI424
aI579
aI2515
aI1185
aI1341
aI1809
aI1654
aI2126
aa(lp1804
I220
aI1809
aI2913
aI420
aI1303
aI1809
aI1823
aa(lp1805
I1619
aI2565
aI624
aI1466
aI3023
aI1750
aI641
aI1767
aI1750
aI3023
aa(lp1806
I1644
aI1701
aI624
aI1666
aI1166
aI839
aI489
aI1644
aI2565
aI1835
aa(lp1807
I157
aI1876
aI1163
aI2113
aI2030
aI3070
aI624
aI1694
aa(lp1808
I709
aI572
aI180
aI1746
aI2701
aI1176
aI2713
aI2299
aI2701
aa(lp1809
I581
aI378
aI2315
aI1158
aI2819
aI226
aI2713
aI2414
aI2113
aI3118
aa(lp1810
I581
aI3124
aI2315
aI1400
aI1263
aI1400
aI1022
aI1509
aI2713
aI744
aa(lp1811
I3020
aI2790
aI2209
aI1595
aI2665
aI2701
aI1185
aI1158
aa(lp1812
I2816
aI796
aI2733
aI1595
aI2111
aI3020
aI579
aI2713
aI2547
aa(lp1813
I1185
aI579
aI2296
aI1197
aI572
aI1541
aI1746
aI603
aa(lp1814
I1176
aI579
aI624
aI1350
aI1166
aI2537
aI157
aI293
aI628
aa(lp1815
I3020
aI926
aI1644
aI756
aI2713
aI528
aI641
aI3023
aI3020
aI3064
aa(lp1816
I1166
aI123
aI4
aI1809
aI180
aI1746
aI2452
aI379
aa(lp1817
I3020
aI2215
aI3020
aI83
aI2488
aI1809
aI504
aI2442
aa(lp1818
I157
aI293
aI1426
aI2878
aI19
aI2676
aI1509
aI624
aI1251
aa(lp1819
I1185
aI641
aI2326
aI1666
aI3020
aI1132
aI157
aI926
aI2976
aI3117
aa(lp1820
I2976
aI1203
aI2878
aI1914
aI1558
aI2781
aI1776
aa(lp1821
I2144
aI2107
aI2976
aI1403
aI1029
aI2976
aI2144
aI2107
aa(lp1822
I2976
aI1367
aI13
aI2626
aI1588
aI589
aI227
aI3172
aa(lp1823
I691
aI3023
aI2144
aI1925
aI1644
aI157
aI685
aI452
aI979
aa(lp1824
I2144
aI2107
aI624
aI2749
aI1185
aI2026
aI2917
aI3224
aa(lp1825
I641
aI579
aI1861
aI2328
aI2296
aI1196
aI1166
aI230
aI3203
aa(lp1826
I611
aI790
aI4
aI1072
aI624
aI1498
aI1644
aI589
aI926
aI1549
aa(lp1827
I1644
aI1196
aI235
aI148
aI3020
aI1468
aI1072
aI2315
aI1029
aI698
aa(lp1828
I3108
aI3020
aI2599
aI573
aI1644
aI157
aI2012
aI913
aa(lp1829
I1185
aI1644
aI2315
aI1218
aI1166
aI572
aI1072
aI2781
aI3020
aI2599
aa(lp1830
I1809
aI1358
aI515
aI2816
aI1443
aI1509
aI611
aI790
aa(lp1831
I237
aI1509
aI1086
aI377
aI431
aI3200
aI2864
aa(lp1832
I611
aI1263
aI572
aI2749
aI579
aI157
aI1589
aI1127
aa(lp1833
I579
aI2030
aI2107
aI2144
aI1263
aI656
aI579
aI611
aI1845
aa(lp1834
I1185
aI2925
aI2565
aI2382
aI2976
aI3020
aI1132
aI2995
aa(lp1835
I1126
aI1163
aI3020
aI926
aI1185
aI235
aI2976
aI2677
aI145
aa(lp1836
I2132
aI611
aI979
aI2789
aI145
aI1558
aI506
aa(lp1837
I2790
aI1922
aI1509
aI1263
aI1185
aI951
aI1207
aI2315
aa(lp1838
I1102
aI1558
aI2551
aI2223
aI3009
aI157
aI1219
aa(lp1839
I1185
aI1271
aI1072
aI624
aI1278
aI1694
aI1513
aI1666
aa(lp1840
I221
aI2406
aI624
aI1985
aI2547
aI1513
aI624
aI562
aa(lp1841
I1075
aI1166
aI1705
aI3207
aI1166
aI2578
aI579
aI624
aI60
aa(lp1842
I558
aI1071
aI1166
aI3165
aI1644
aI624
aI320
aI1347
aa(lp1843
I2976
aI1367
aI1740
aI287
aI1163
aI1954
aI611
aI790
aa(lp1844
I712
aI2501
aI573
aI226
aI2976
aI3023
aI450
aI611
aI979
aa(lp1845
I1644
aI863
aI691
aI145
aI1903
aI287
aI558
aI230
aI1976
aa(lp1846
I1185
aI2356
aI611
aI502
aI3070
aI579
aI35
aI1973
aa(lp1847
I226
aI2978
aI3020
aI2599
aI188
aI422
aI572
aI1263
aa(lp1848
I1185
aI1619
aI235
aI36
aI1166
aI611
aI1305
aI1624
aa(lp1849
I3126
aI1166
aI979
aI1166
aI2516
aI157
aI979
aI1644
aI1549
aa(lp1850
I691
aI1166
aI1577
aI590
aI573
aI1161
aI157
aI351
aI1185
aI145
aa(lp1851
I2204
aI1072
aI1550
aI1644
aI2457
aI145
aI913
aa(lp1852
I2816
aI3004
aI1644
aI242
aI157
aI87
aI351
aI144
aI2315
aa(lp1853
I145
aI2537
aI157
aI2012
aI611
aI3172
aI1736
aI4
aI1744
aa(lp1854
I1185
aI157
aI2540
aI2012
aI2144
aI3121
aI1713
aI2219
aa(lp1855
I1513
aI2093
aI157
aI2012
aI1185
aI230
aI3020
aI1576
aI2602
aa(lp1856
I1809
aI2789
aI545
aI2977
aI2986
aI1644
aI2315
aI2567
aa(lp1857
I653
aI157
aI979
aI579
aI611
aI2760
aI693
aI141
aa(lp1858
I2816
aI226
aI157
aI6
aI979
aI2501
aI157
aI1599
aI979
aI415
aa(lp1859
I2525
aI202
aI145
aI2501
aI157
aI979
aI2315
aI2582
aI3132
aa(lp1860
I2144
aI2290
aI1072
aI226
aI2535
aI2198
aI579
aI157
aI96
aa(lp1861
I1185
aI641
aI2144
aI2973
aI691
aI3020
aI1425
aI1840
aI579
aI230
aa(lp1862
I2754
aI1576
aI1126
aI1185
aI1619
aI1166
aI572
aI579
aI145
aa(lp1863
I1029
aI1073
aI3020
aI2790
aI1190
aI1166
aI3160
aI572
aI1126
aa(lp1864
I1185
aI3020
aI157
aI2012
aI1576
aI1984
aI1644
aI611
aI2978
aa(lp1865
I157
aI2012
aI1673
aI1039
aI1029
aI1166
aI3051
aI364
aa(lp1866
I2144
aI2973
aI3031
aI1644
aI2315
aI157
aI1793
aI1045
aa(lp1867
I2816
aI2144
aI2973
aI1072
aI1075
aI3160
aI2978
aI1072
aI2315
aI286
aa(lp1868
I691
aI2144
aI2107
aI2225
aI1185
aI3160
aI572
aI1978
aa(lp1869
I3160
aI758
aI2816
aI2972
aI1644
aI1003
aI691
aI145
aa(lp1870
I22
aI1166
aI1453
aI1166
aI2093
aI2976
aI1571
aI558
aI2389
aa(lp1871
I624
aI747
aI1513
aI611
aI188
aI2144
aI2973
aI1211
aa(lp1872
I2144
aI323
aI1166
aI1528
aI278
aI1619
aI1644
aI2535
aa(lp1873
I1185
aI299
aI1809
aI351
aI2429
aI2969
aI691
aI157
aI939
aa(lp1874
I1029
aI2093
aI3020
aI3077
aI1833
aI157
aI1254
aI2609
aa(lp1875
I2093
aI2790
aI3020
aI3071
aI2144
aI1713
aI2139
aI2093
aI1185
aI145
aa(lp1876
I3160
aI724
aI624
aI3021
aI1185
aI641
aI1576
aI3020
aI1072
aI286
aa(lp1877
I833
aI4
aI2713
aI3167
aI2144
aI1713
aI611
aI2978
aa(lp1878
I1185
aI256
aI1644
aI3195
aI1185
aI256
aI579
aI525
aa(lp1879
I1746
aI1176
aI1550
aI1576
aI3020
aI1166
aI849
aI230
aI1045
aa(lp1880
I1644
aI611
aI2156
aI2978
aI975
aI2950
aI2986
aa(lp1881
I2973
aI2144
aI13
aI2978
aI572
aI265
aI1185
aI660
aa(lp1882
I1072
aI2433
aI1665
aI1644
aI63
aI157
aI2978
aI579
aI1126
aa(lp1883
I2308
aI2978
aI579
aI2503
aI371
aI677
aI560
aa(lp1884
I1185
aI579
aI157
aI2978
aI796
aI463
aI2168
aI2327
aa(lp1885
I624
aI2114
aI1619
aI911
aI641
aI511
aI601
aI1045
aa(lp1886
I1185
aI579
aI856
aI854
aI1644
aI2582
aI1965
aa(lp1887
I1029
aI2144
aI1425
aI426
aI579
aI2978
aI3050
aI1644
aI611
aI2978
aa(lp1888
I237
aI2978
aI1513
aI364
aI1644
aI589
aI611
aI265
aI2978
aI1746
aa(lp1889
I2501
aI796
aI1254
aI796
aI463
aI3075
aI2102
aa(lp1890
I1132
aI1619
aI2816
aI237
aI1185
aI145
aI579
aI1166
aI237
aI1655
aI2692
aa(lp1891
I581
aI611
aI969
aI1394
aI230
aI1166
aI3020
aI1320
aI1029
aI566
aa(lp1892
I2599
aI1644
aI611
aI1135
aI969
aI1166
aI3020
aI741
aI611
aI256
aa(lp1893
I1185
aI2978
aI611
aI969
aI1750
aI572
aI3074
aI1541
aa(lp1894
I2986
aI180
aI691
aI926
aI157
aI1707
aI2156
aI1480
aa(lp1895
I256
aI2978
aI1480
aI624
aI1257
aI1513
aI611
aI926
aa(lp1896
I1584
aI1586
aI573
aI1705
aI1558
aI2951
aI1185
aI157
aI2978
aI237
aa(lp1897
I579
aI588
aI1513
aI2508
aI1087
aI1558
aI1368
aI488
aI938
aa(lp1898
I1330
aI1809
aI1941
aI237
aI572
aI2448
aI1767
aa(lp1899
I226
aI579
aI624
aI1941
aI2501
aI145
aI1681
aI1250
aa(lp1900
I387
aI579
aI611
aI2932
aI2563
aI3020
aI237
aI144
aI2315
aa(lp1901
I691
aI2030
aI142
aI145
aI1029
aI573
aI2120
aI230
aI142
aa(lp1902
I1166
aI2030
aI145
aI1809
aI2583
aI2156
aI1644
aI230
aa(lp1903
I589
aI2816
aI157
aI1078
aI611
aI926
aI1185
aI926
aI1166
aI1045
aa(lp1904
I1185
aI226
aI2144
aI798
aI145
aI691
aI157
aI1078
aI572
aI2978
aa(lp1905
I2144
aI1135
aI1380
aI926
aI1689
aI3043
aI2144
aI1644
aI364
aI1163
aa(lp1906
I1166
aI235
aI3203
aI1185
aI2111
aI1072
aI1689
aI235
aI2111
aa(lp1907
I235
aI3064
aI1689
aI188
aI572
aI2111
aI1281
aI573
aI729
aa(lp1908
I641
aI1689
aI624
aI469
aI572
aI1211
aI624
aI1660
aI1644
aI2315
aa(lp1909
I581
aI1163
aI468
aI2326
aI2454
aI2637
aa(lp1910
I2315
aI2656
aI579
aI624
aI2687
aI1281
aI1619
aI489
aI2566
aa(lp1911
I2819
aI1513
aI3170
aI1481
aI1713
aI2144
aI1631
aI2915
aa(lp1912
I2354
aI624
aI3015
aI1513
aI157
aI979
aI572
aI304
aa(lp1913
I2819
aI2852
aI157
aI979
aI1132
aI1166
aI1809
aI595
aI117
aa(lp1914
I2801
aI157
aI979
aI1750
aI624
aI1178
aI121
aI2101
aI1127
aa(lp1915
I1523
aI364
aI1163
aI820
aI2565
aI1196
aI2565
aI572
aI1072
aa(lp1916
I1644
aI1922
aI463
aI2673
aI3009
aI1029
aI36
aI1809
aI790
aa(lp1917
I579
aI588
aI677
aI762
aI157
aI979
aI1185
aI1163
aI2790
aI551
aa(lp1918
I1185
aI1644
aI2565
aI2781
aI3154
aI2113
aI235
aI1073
aI1182
aa(lp1919
I1426
aI157
aI926
aI638
aI1166
aI2878
aI572
aI3162
aI1513
aI2673
aa(lp1920
I3020
aI431
aI1975
aI2713
aI387
aI3020
aI3064
aI2878
aI729
aa(lp1921
I1166
aI2878
aI1856
aI1132
aI145
aI2296
aI310
aI1987
aa(lp1922
I1749
aI579
aI624
aI121
aI2781
aI161
aa(lp1923
I2986
aI2632
aI1443
aI1166
aI2878
aI1485
aI145
aI2449
aa(lp1924
I3108
aI2878
aI1750
aI157
aI298
aI2113
aI1677
aI624
aI469
aa(lp1925
I1721
aI3020
aI99
aI2713
aI2467
aI3125
aa(lp1926
I1509
aI2139
aI1543
aI2986
aI572
aI3049
aI2673
aI1449
aa(lp1927
I2816
aI887
aI882
aI2878
aI1072
aI2878
aI572
aI164
aa(lp1928
I1185
aI887
aI1196
aI1072
aI3020
aI1166
aI3020
aI1576
aI678
aa(lp1929
I712
aI952
aI469
aI464
aI572
aI579
aI1937
aI526
aa(lp1930
I1185
aI2425
aI579
aI926
aI2771
aI1072
aI1644
aI2790
aI1041
aI78
aa(lp1931
I124
aI3020
aI2227
aI1558
aI2713
aI1185
aI2878
aI1558
aI145
aa(lp1932
I1185
aI579
aI2686
aI1316
aI2326
aI729
aI488
aI1215
aI2315
aa(lp1933
I712
aI740
aI1072
aI145
aI1644
aI390
aI624
aI190
aa(lp1934
I1166
aI611
aI1226
aI1312
aI3009
aI157
aI979
aa(lp1935
I590
aI145
aI1072
aI1558
aI1126
aI1736
aI2816
aI1558
aI611
aI3125
aa(lp1936
I2535
aI1498
aI1558
aI1498
aI1185
aI1188
aI145
aI1072
aI2326
aI2107
aa(lp1937
I127
aI145
aI2144
aI798
aI2361
aI2816
aI579
aI157
aI2301
aa(lp1938
I685
aI979
aI1859
aI1644
aI115
aI1126
aI1736
aI1208
aa(lp1939
I1689
aI2555
aI2144
aI590
aI1558
aI1764
aI1426
aI611
aI1856
aa(lp1940
I572
aI1746
aI1176
aI157
aI3036
aI1690
aI973
aI776
aa(lp1941
I2501
aI145
aI1756
aI230
aI1573
aI157
aI926
aI3023
aI1750
aa(lp1942
I2713
aI2551
aI2637
aI2790
aI536
aI364
aI690
aa(lp1943
I1185
aI124
aI2537
aI157
aI790
aI2878
aI1886
aI157
aI503
aa(lp1944
I1166
aI235
aI2361
aI1856
aI1462
aI2744
aI2256
aa(lp1945
I641
aI431
aI1072
aI1029
aI2816
aI1903
aI3020
aI1576
aI566
aI1338
aa(lp1946
I2102
aI145
aI2281
aI1558
aI2637
aI1185
aI2210
aI157
aI1219
aa(lp1947
I2315
aI3163
aI2976
aI2144
aI2107
aI3172
aI431
aI1072
aI3066
aa(lp1948
I157
aI1297
aI112
aI1558
aI328
aI539
aI506
aa(lp1949
I3030
aI2914
aI1489
aI145
aI2866
aI1185
aI2866
aI2082
aa(lp1950
I624
aI366
aI1513
aI157
aI2485
aI1219
aa(lp1951
I581
aI3020
aI1856
aI1923
aI230
aI2529
aI221
aI573
aI1183
aa(lp1952
I387
aI1072
aI1644
aI926
aI641
aI926
aI1644
aI127
aI145
aI1029
aa(lp1953
I2976
aI3057
aI3201
aI489
aI1426
aI2744
aI3179
aI2315
aI566
aa(lp1954
I796
aI499
aI2816
aI1906
aI2537
aI2744
aI2983
aI3064
aa(lp1955
I691
aI581
aI3020
aI2852
aI714
aI3020
aI2852
aI1022
aI1017
aa(lp1956
I1185
aI579
aI157
aI1332
aI1856
aI528
aI508
aI1513
aI230
aa(lp1957
I1073
aI2565
aI1699
aI1466
aI572
aI582
aI1029
aI2697
aa(lp1958
I1017
aI1957
aI2326
aI1017
aI2723
aI40
aI2315
aa(lp1959
I1166
aI3020
aI1013
aI1072
aI2315
aI1029
aI1075
aI2144
aI1914
aa(lp1960
I2864
aI1126
aI1163
aI2194
aI387
aI611
aI1233
aI979
aI2442
aI1178
aa(lp1961
I579
aI2328
aI3020
aI431
aI1072
aI926
aI230
aI1558
aI364
aI1163
aa(lp1962
I691
aI235
aI579
aI230
aI1809
aI1358
aI392
aI1209
aa(lp1963
I2816
aI1269
aI157
aI979
aI1166
aI2771
aI1689
aI235
aI2052
aa(lp1964
I2809
aI579
aI442
aI1513
aI2881
aI572
aI900
aI1644
aI555
aa(lp1965
I1075
aI2113
aI364
aI1110
aI1558
aI611
aI2267
aI1860
aI1069
aa(lp1966
I1075
aI1672
aI2140
aI1644
aI1920
aI418
aI523
aa(lp1967
I1075
aI1572
aI1075
aI806
aI667
aI1644
aI2315
aI2924
aa(lp1968
I1644
aI1203
aI2005
aI2669
aI1558
aI230
aI913
aa(lp1969
I2816
aI157
aI3063
aI2797
aI1075
aI157
aI3063
aI2808
aI973
aa(lp1970
I2504
aI237
aI2289
aI979
aI2537
aI1036
aI230
aa(lp1971
I2809
aI97
aI2024
aI624
aI1878
aI1513
aI1809
aI1023
aa(lp1972
I611
aI1233
aI1797
aI3004
aI1185
aI3228
aI1210
aI1644
aI2315
aa(lp1973
I943
aI157
aI3154
aI2986
aI180
aI3020
aI3161
aI157
aI3155
aa(lp1974
I1166
aI2878
aI1166
aI2516
aI145
aI2603
aI1327
aI145
aI1219
aa(lp1975
I926
aI572
aI157
aI2603
aI1185
aI611
aI685
aI962
aI11
aa(lp1976
I11
aI1513
aI157
aI2603
aI2142
aI1509
aI782
aI951
aa(lp1977
I712
aI2816
aI1558
aI364
aI1776
aI2144
aI1126
aI3128
aI2904
aa(lp1978
I1185
aI2144
aI396
aI2063
aI573
aI2891
aI1072
aI1174
aa(lp1979
I1523
aI581
aI573
aI431
aI1072
aI2537
aI1367
aI2299
aI1513
aI1126
aa(lp1980
I1166
aI2790
aI213
aI2744
aI1371
aI780
aa(lp1981
I1185
aI1731
aI2781
aI2469
aI1513
aI926
aI2976
aI3026
aI2976
aI364
aa(lp1982
I1357
aI658
aI2811
aI156
aI1513
aI2744
aI1950
aa(lp1983
I2315
aI573
aI3136
aI3020
aI926
aI230
aI2976
aI2144
aI798
aI1367
aa(lp1984
I2172
aI1126
aI1163
aI2850
aI2976
aI364
aI1627
aI230
aa(lp1985
I919
aI502
aI579
aI611
aI979
aI1166
aI1426
aI573
aI596
aa(lp1986
I611
aI502
aI1013
aI1590
aI1644
aI2727
aI2315
aa(lp1987
I581
aI2144
aI3043
aI372
aI1644
aI2790
aI1689
aI2144
aI3043
aI63
aa(lp1988
I2326
aI3220
aI1136
aI2144
aI2315
aI697
aa(lp1989
I2648
aI2976
aI1809
aI1365
aI786
aI446
aI1644
aI557
aa(lp1990
I237
aI1513
aI2713
aI3032
aI1686
aI1759
aI474
aa(lp1991
I3027
aI728
aI2713
aI2550
aI1185
aI2516
aI1619
aI2919
aI1337
aa(lp1992
I579
aI88
aI1513
aI624
aI1125
aI2878
aI119
aI2790
aI3210
aa(lp1993
I2633
aI2713
aI957
aI556
aI2596
aI2713
aI579
aI2213
aa(lp1994
I3039
aI1644
aI557
aI2713
aI13
aI1220
aI1116
aI572
aI1880
aa(lp1995
I1644
aI1633
aI1166
aI2801
aI2152
aI220
aI2713
aI790
aa(lp1996
I1072
aI279
aI2713
aI1599
aI3053
aI2435
aa(lp1997
I1029
aI271
aI2144
aI189
aI1166
aI2801
aI2152
aI2537
aI230
aa(lp1998
I2633
aI3020
aI611
aI2550
aI2213
aI230
aI1994
aI1303
aa(lp1999
I2816
aI581
aI2144
aI557
aI611
aI2858
aI2793
aI752
aI1644
aI145
aa(lp2000
I1185
aI2297
aI624
aI344
aI1973
aI3034
aI145
aI2315
aI1978
aa(lp2001
I1029
aI2978
aI3020
aI1843
aI1166
aI2144
aI1136
aI2790
aI611
aI2978
aa(lp2002
I581
aI2144
aI2793
aI752
aI1185
aI157
aI306
aI2265
aI1045
aa(lp2003
I1740
aI2771
aI3020
aI2790
aI1513
aI1793
aI1185
aI714
aa(lp2004
I2801
aI3070
aI1740
aI2118
aI431
aI517
aI145
aI1045
aa(lp2005
I624
aI221
aI1187
aI572
aI1809
aI1023
aI677
aI463
aa(lp2006
I624
aI70
aI441
aI1809
aI1651
aI1657
aI508
aa(lp2007
I1644
aI2524
aI145
aI1829
aI1644
aI1835
aI157
aI2678
aI291
aa(lp2008
I928
aI157
aI221
aI1187
aI2537
aI157
aI251
aa(lp2009
I1185
aI119
aI468
aI157
aI1970
aI1644
aI2315
aI1809
aI2162
aa(lp2010
I583
aI2582
aI989
aI1558
aI2713
aI36
aI25
aa(lp2011
I1185
aI3166
aI1166
aI157
aI1187
aI2315
aI1191
aI2076
aa(lp2012
I901
aI3020
aI1013
aI641
aI1072
aI1142
aI127
aa(lp2013
I2816
aI1425
aI2139
aI2537
aI145
aI2139
aI1644
aI247
aI351
aa(lp2014
I3020
aI688
aI237
aI1187
aI579
aI1086
aI1835
aa(lp2015
I641
aI2565
aI2308
aI3020
aI64
aI3064
aI2816
aI946
aI579
aI2542
aa(lp2016
I1004
aI157
aI2697
aI1187
aI2183
aI157
aI1861
aI237
aI2690
aa(lp2017
I1367
aI2299
aI1166
aI952
aI3128
aI602
aI873
aI589
aa(lp2018
I403
aI278
aI624
aI379
aI1166
aI471
aI434
aI2284
aa(lp2019
I1644
aI145
aI1166
aI2462
aI691
aI2713
aI939
aa(lp2020
I2816
aI1426
aI2878
aI2488
aI157
aI1755
aI2904
aa(lp2021
I2194
aI579
aI2713
aI979
aI873
aI2080
aI1320
aa(lp2022
I2847
aI1166
aI3125
aI1166
aI77
aI2156
aa(lp2023
I741
aI2226
aI579
aI2487
aI2787
aI1762
aa(lp2024
I1185
aI257
aI573
aI2986
aI774
aI1644
aI197
aa(lp2025
I434
aI2284
aI2878
aI686
aI1558
aI1578
aI1019
aa(lp2026
I1166
aI1096
aI573
aI2976
aI2787
aI2664
aa(lp2027
I558
aI1633
aI674
aI2809
aI3070
aI1809
aI2076
aa(lp2028
I2537
aI1666
aI1644
aI1835
aI572
aI2230
aI474
aa(lp2029
I434
aI2284
aI2537
aI11
aI474
aI2878
aI547
aa(lp2030
I1185
aI1656
aI157
aI548
aI1249
aI2459
aI1551
aa(lp2031
I1599
aI969
aI624
aI2807
aI1513
aI157
aI782
aI414
aa(lp2032
I157
aI782
aI414
aI1372
aI1113
aI356
aI262
aa(lp2033
I2819
aI3043
aI2144
aI903
aI2339
aI1185
aI1837
aI3182
aa(lp2034
I2830
aI611
aI2117
aI1869
aI1029
aI114
aI2181
aa(lp2035
I2819
aI1029
aI265
aI888
aI2432
aI1029
aI1811
aI1809
aI1966
aa(lp2036
I3043
aI2144
aI3009
aI611
aI2004
aI8
aI2249
aa(lp2037
I2308
aI1626
aI71
aI1513
aI2565
aI1712
aa(lp2038
I3158
aI1285
aI611
aI851
aI572
aI2565
aI611
aI2770
aI1019
aa(lp2039
I226
aI969
aI946
aI2144
aI3009
aI611
aI981
aI3068
aa(lp2040
I1185
aI2501
aI1166
aI903
aI1644
aI385
aI611
aI1965
aa(lp2041
I2788
aI490
aI1484
aI579
aI1968
aI1710
aI1513
aI1348
aa(lp2042
I2339
aI2315
aI1014
aI1419
aI2315
aI426
aI796
aI1746
aa(lp2043
I1029
aI2308
aI2144
aI1935
aI1509
aI2137
aI1166
aI1507
aI1509
aI489
aa(lp2044
I1185
aI2137
aI2433
aI683
aI20
aI796
aI1746
aI795
aI226
aa(lp2045
I157
aI926
aI572
aI2976
aI1809
aI1089
aI1971
aI1045
aa(lp2046
I691
aI1166
aI2801
aI824
aI1647
aI624
aI2826
aa(lp2047
I14
aI1509
aI1166
aI2801
aI558
aI486
aI624
aI508
aa(lp2048
I594
aI1080
aI214
aI9
aI1644
aI2120
aa(lp2049
I157
aI1720
aI624
aI561
aI1644
aI157
aI926
aa(lp2050
I941
aI1166
aI2582
aI907
aI2113
aI1072
aI610
aa(lp2051
I4
aI627
aI145
aI1185
aI3020
aI1186
aI1073
aI2149
aa(lp2052
I667
aI572
aI2137
aI2801
aI2613
aI873
aI2159
aa(lp2053
I1677
aI625
aI3020
aI1576
aI1073
aI1720
aI572
aI1677
aI1116
aa(lp2054
I1185
aI1363
aI1558
aI10
aI43
aa(lp2055
I157
aI608
aI1185
aI157
aI2221
aI2976
aI1017
aI1168
aI2113
aa(lp2056
I2981
aI1417
aI2537
aI624
aI2673
aI2632
aI2489
aa(lp2057
I691
aI3020
aI2790
aI1007
aI230
aI463
aI1185
aI3024
aI230
aI1248
aa(lp2058
I2809
aI2107
aI2976
aI1263
aI2976
aI1835
aI2976
aI605
aI2976
aI674
aa(lp2059
I712
aI145
aI1689
aI1163
aI4
aI926
aI1922
aI579
aI157
aI744
aa(lp2060
I2801
aI2790
aI796
aI1063
aI1558
aI762
aI2301
aa(lp2061
I1523
aI581
aI235
aI2790
aI1281
aI572
aI157
aI3015
aI3048
aa(lp2062
I1166
aI609
aI802
aI1689
aI235
aI2111
aI2255
aa(lp2063
I581
aI1166
aI2315
aI463
aI2645
aI157
aI2781
aI1163
aI555
aa(lp2064
I1689
aI2862
aI624
aI1466
aI1644
aI1196
aI573
aI572
aI1072
aI1029
aa(lp2065
I581
aI573
aI2315
aI1072
aI226
aI926
aI558
aI3023
aI3183
aa(lp2066
I952
aI1736
aI572
aI1072
aI1029
aI762
aI2976
aI1619
aI1168
aI796
aa(lp2067
I3106
aI973
aI573
aI712
aI3106
aI973
aI952
aI1736
aI2315
aI762
aa(lp2068
I1166
aI572
aI1029
aI518
aI1558
aI578
aI1185
aI1558
aI1261
aa(lp2069
I796
aI2431
aI226
aI387
aI3020
aI103
aI157
aI2881
aa(lp2070
I624
aI1694
aI573
aI2012
aI359
aI1072
aI1004
aI1666
aI1369
aa(lp2071
I712
aI1764
aI926
aI1558
aI1261
aI2144
aI1643
aI145
aI1135
aa(lp2072
I3030
aI1163
aI1783
aI611
aI36
aI1316
aI2852
aI2063
aa(lp2073
I2290
aI2144
aI712
aI3172
aI1196
aI3020
aI926
aI230
aI1072
aa(lp2074
I1426
aI3020
aI509
aI157
aI2012
aI1558
aI230
aI1264
aa(lp2075
I431
aI3020
aI1072
aI1132
aI1509
aI230
aI1426
aI3020
aI258
aa(lp2076
I1576
aI1513
aI157
aI2012
aI1012
aI691
aI611
aI939
aa(lp2077
I2809
aI1020
aI230
aI1166
aI3020
aI431
aI740
aI157
aI351
aa(lp2078
I1509
aI2172
aI2241
aI2144
aI1166
aI3020
aI431
aI0
aI3009
aa(lp2079
I2407
aI581
aI2144
aI1002
aI1509
aI145
aI431
aI3020
aI1072
aI2249
aa(lp2080
I1709
aI3009
aI157
aI2012
aI1558
aI1645
aI1951
aa(lp2081
I1689
aI1246
aI431
aI3020
aI579
aI157
aI2012
aI1716
aa(lp2082
I1166
aI572
aI1029
aI1233
aI611
aI1928
aI1644
aI2052
aa(lp2083
I1426
aI1619
aI157
aI469
aI558
aI2314
aI611
aI1998
aa(lp2084
I1765
aI2326
aI624
aI1124
aI1513
aI1126
aI1163
aa(lp2085
I2816
aI926
aI11
aI1509
aI691
aI1073
aI3020
aI3064
aI611
aI363
aa(lp2086
I1367
aI1166
aI973
aI2111
aI2144
aI798
aI1185
aI3020
aI1576
aI1135
aa(lp2087
I712
aI2537
aI1689
aI1498
aI1713
aI2144
aI2565
aI2729
aI1856
aa(lp2088
I1558
aI2557
aI157
aI979
aI1644
aI26
aa(lp2089
I1644
aI589
aI145
aI942
aI624
aI2227
aI1644
aI157
aI762
aI2301
aa(lp2090
I1185
aI2599
aI1166
aI241
aI558
aI1072
aI1976
aI624
aI2664
aa(lp2091
I1516
aI1713
aI2144
aI2565
aI749
aI1513
aI588
aI508
aa(lp2092
I1166
aI579
aI624
aI1654
aI1810
aI1513
aI611
aI1845
aa(lp2093
I1541
aI572
aI2733
aI376
aI1185
aI1478
aI1513
aI3041
aa(lp2094
I1166
aI579
aI157
aI363
aI611
aI1660
aI1619
aI469
aI513
aa(lp2095
I2809
aI257
aI230
aI3106
aI1644
aI589
aI145
aI926
aI230
aI1746
aa(lp2096
I624
aI1746
aI3020
aI756
aI1185
aI2111
aI629
aI2700
aI1513
aI11
aa(lp2097
I712
aI387
aI3020
aI926
aI1689
aI2503
aI431
aI2804
aa(lp2098
I1558
aI2503
aI2144
aI2068
aI1072
aI2804
aI157
aI2904
aa(lp2099
I581
aI611
aI2163
aI720
aI926
aI579
aI145
aa(lp2100
I1746
aI3109
aI3020
aI1644
aI2315
aI652
aI1513
aI230
aa(lp2101
I926
aI572
aI328
aI2449
aI1644
aI3064
aI1689
aI1687
aI572
aa(lp2102
I641
aI2809
aI1750
aI1072
aI1687
aI572
aI684
aI1513
aI926
aa(lp2103
I226
aI2787
aI827
aI1216
aI1072
aI157
aI367
aa(lp2104
I3030
aI73
aI1513
aI157
aI1316
aI611
aI2156
aI2012
aI938
aa(lp2105
I691
aI2144
aI931
aI145
aI3020
aI431
aI2074
aa(lp2106
I157
aI1360
aI1973
aI1644
aI157
aI1486
aI2770
aI1615
aa(lp2107
I157
aI969
aI558
aI127
aI157
aI2493
aI1166
aI3160
aI1013
aa(lp2108
I47
aI579
aI926
aI3005
aI1828
aI796
aI458
aI1720
aa(lp2109
I2816
aI1532
aI2981
aI611
aI1078
aI558
aI2154
aI2690
aI230
aa(lp2110
I2976
aI2582
aI3169
aI42
aI1233
aI1513
aI2565
aI25
aa(lp2111
I3160
aI572
aI1121
aI611
aI1599
aI860
aI1644
aI2315
aa(lp2112
I1644
aI1519
aI579
aI611
aI2125
aI1662
aI2326
aI611
aI251
aa(lp2113
I796
aI982
aI1513
aI1687
aI142
aI573
aI1166
aI3020
aI740
aa(lp2114
I2713
aI926
aI691
aI13
aI685
aI926
aI3020
aI2415
aI1185
aI1662
aa(lp2115
I579
aI951
aI230
aI2144
aI1925
aI3020
aI1576
aI433
aa(lp2116
I2816
aI2144
aI2107
aI453
aI433
aI1644
aI145
aI926
aI107
aa(lp2117
I579
aI1520
aI611
aI206
aI1759
aI1185
aI75
aI2328
aI2348
aa(lp2118
I579
aI2366
aI75
aI11
aI189
aI75
aI926
aI3177
aa(lp2119
I2816
aI2819
aI1513
aI1740
aI1538
aI1082
aI431
aI3020
aI2465
aI230
aa(lp2120
I1426
aI3020
aI232
aI1933
aI3020
aI1576
aI1818
aI2026
aa(lp2121
I691
aI1619
aI157
aI2901
aI2113
aI410
aI2816
aI1644
aI2552
aI230
aa(lp2122
I1185
aI1619
aI157
aI1123
aI2328
aI579
aI230
aI572
aI3071
aa(lp2123
I691
aI3020
aI2790
aI1007
aI1577
aI410
aI1513
aI611
aI1577
aI2662
aa(lp2124
I410
aI1513
aI611
aI926
aI611
aI2673
aI611
aI397
aa(lp2125
I1185
aI1644
aI485
aI230
aI657
aI1163
aI1644
aI760
aa(lp2126
I1523
aI3162
aI227
aI2599
aI509
aI624
aI1125
aI235
aI2111
aa(lp2127
I691
aI3020
aI2790
aI1007
aI230
aI463
aI1746
aI1818
aI3020
aa(lp2128
I1644
aI2599
aI509
aI624
aI2673
aI1029
aI36
aI1809
aI2315
aa(lp2129
I423
aI273
aI2326
aI2582
aI3149
aI1185
aI1517
aI1287
aa(lp2130
I1809
aI1056
aI1513
aI829
aI2565
aI859
aI1887
aa(lp2131
I1185
aI2582
aI3223
aI2183
aI873
aI3137
aI2775
aa(lp2132
I579
aI1809
aI1044
aI1454
aI1513
aI1166
aI1251
aa(lp2133
I2801
aI430
aI2537
aI2565
aI131
aI2183
aI1513
aI926
aa(lp2134
I1809
aI2911
aI1533
aI755
aI1045
aI1644
aI2131
aa(lp2135
I1185
aI1979
aI1809
aI1091
aI719
aI2801
aI641
aI489
aI938
aa(lp2136
I509
aI1852
aI553
aI1809
aI736
aI625
aa(lp2137
I2816
aI2981
aI157
aI1876
aI1736
aI952
aI3149
aI2000
aa(lp2138
I624
aI917
aI691
aI1779
aI1789
aI119
aI1435
aI157
aI2087
aa(lp2139
I3020
aI3201
aI930
aI624
aI1826
aI1513
aI719
aI2143
aa(lp2140
I1185
aI3042
aI2383
aI1809
aI1194
aI1529
aI1953
aa(lp2141
I2816
aI1887
aI796
aI625
aI624
aI719
aI691
aI157
aI1826
aI729
aa(lp2142
I1281
aI423
aI276
aI75
aI2183
aI157
aI1876
aI1163
aa(lp2143
I624
aI1152
aI3038
aI2049
aI2433
aI1287
aa(lp2144
I273
aI2326
aI2582
aI251
aI2582
aI274
aI3149
aa(lp2145
I2633
aI1323
aI1870
aI1166
aI1413
aI2520
aI548
aI1644
aI2716
aa(lp2146
I2429
aI2896
aI2326
aI2816
aI579
aI2713
aI386
aI602
aa(lp2147
I624
aI2749
aI862
aI335
aI1285
aI1166
aI2183
aa(lp2148
I2801
aI1323
aI2675
aI1513
aI762
aI623
aI647
aI2340
aa(lp2149
I1185
aI1029
aI624
aI2959
aI1513
aI181
aI667
aa(lp2150
I741
aI2895
aI2326
aI1809
aI738
aI602
aI394
aa(lp2151
I2565
aI3149
aI2878
aI2755
aI579
aI1809
aI868
aI3023
aI2326
aa(lp2152
I2801
aI2537
aI952
aI2183
aI335
aI755
aI3072
aa(lp2153
I974
aI1809
aI719
aI1185
aI2364
aI2085
aa(lp2154
I691
aI489
aI29
aI2816
aI3020
aI157
aI1876
aI2597
aa(lp2155
I2429
aI1541
aI691
aI625
aI1185
aI2565
aI2326
aI1166
aI3020
aI938
aa(lp2156
I952
aI2183
aI2428
aI911
aI911
aI586
aI1072
aI926
aa.