(dp1
S'fawn'
p2
(lp3
S'VBN'
p4
asS'PRP$'
p5
(lp6
S'my'
p7
asS'pardon'
p8
(lp9
S'VB'
p10
asS'yellow'
p11
(lp12
S'JJ'
p13
ag10
asS'four'
p14
(lp15
S'CD'
p16
asS'hath'
p17
(lp18
S'NN'
p19
ag19
ag19
ag19
ag19
ag19
ag19
ag10
ag19
ag19
ag19
aS'VBD'
p20
ag19
ag19
ag19
ag13
ag19
ag19
aS'VBZ'
p21
ag19
ag19
ag19
ag19
ag19
ag19
ag13
ag19
ag19
ag20
ag13
ag19
ag19
aS'VBP'
p22
ag10
ag20
ag19
ag19
ag19
ag19
ag19
ag21
ag19
ag19
asS'sleep'
p23
(lp24
g22
ag19
ag22
ag19
asS"friend's"
p25
(lp26
g19
ag13
asS'hanging'
p27
(lp28
S'VBG'
p29
asS'mansion'
p30
(lp31
g19
ag19
asS'appetite'
p32
(lp33
g13
ag19
ag19
ag19
asS'evermore'
p34
(lp35
g10
aS'RB'
p36
ag19
asS'hate'
p37
(lp38
g19
ag10
ag19
ag19
ag10
ag19
ag13
ag19
ag19
ag19
ag19
ag19
ag19
asS'forget'
p39
(lp40
g19
ag10
asS'whose'
p41
(lp42
S'WP$'
p43
ag43
ag43
ag43
ag43
ag43
ag43
ag43
ag43
ag43
ag43
ag43
ag43
ag43
ag43
ag43
ag43
ag43
ag43
asS'feeding'
p44
(lp45
g29
ag19
ag29
asS'vile'
p46
(lp47
g13
ag13
ag19
asS'granting'
p48
(lp49
g19
asS'sweetest'
p50
(lp51
S'JJS'
p52
ag13
ag22
ag52
ag13
asS'presents'
p53
(lp54
S'NNS'
p55
asS'walks'
p56
(lp57
g55
ag20
asS"there's"
p58
(lp59
g19
asS'whatsoever'
p60
(lp61
S'WRB'
p62
asS'under'
p63
(lp64
S'IN'
p65
ag65
ag65
ag65
ag65
ag65
asS'lord'
p66
(lp67
g19
asS'sorry'
p68
(lp69
g13
asS'pride'
p70
(lp71
g19
ag19
ag19
ag13
ag19
ag10
ag19
ag19
ag19
asS'sway'
p72
(lp73
g19
ag10
asS'worth'
p74
(lp75
g13
ag19
ag19
ag19
ag19
ag19
ag13
ag19
aS'IN'
p76
ag76
ag19
ag13
ag19
ag13
ag19
ag13
ag19
ag19
ag19
asS'wondrous'
p77
(lp78
g13
ag13
asS'discased'
p79
(lp80
g4
asS'dispense'
p81
(lp82
g19
asS'hadst'
p83
(lp84
g19
ag19
asS'inhearse'
p85
(lp86
g19
asS"women's"
p87
(lp88
g19
ag13
ag13
asS'shoot'
p89
(lp90
g13
asS'every'
p91
(lp92
S'DT'
p93
ag93
ag93
ag93
ag93
ag93
ag93
ag93
ag93
ag93
ag93
ag93
ag93
ag93
ag93
ag93
ag93
ag93
ag93
ag93
ag93
ag93
ag93
ag93
ag93
ag93
ag93
ag93
ag93
asS'foul'
p94
(lp95
g4
ag19
ag22
ag10
ag13
ag19
ag10
asS'nourished'
p96
(lp97
g4
asS"o'er-read"
p98
(lp99
g13
asS'special'
p100
(lp101
g13
asS'believed'
p102
(lp103
g20
asS'uttering'
p104
(lp105
g29
asS'prize'
p106
(lp107
g19
ag19
ag19
asS'unrest'
p108
(lp109
g13
asS'graced'
p110
(lp111
g20
asS'succession'
p112
(lp113
g19
asS'graces'
p114
(lp115
g55
ag55
ag55
ag55
ag55
asS'triumph'
p116
(lp117
g13
ag10
ag10
asS'enjoy'
p118
(lp119
g36
asS'charter'
p120
(lp121
g19
ag19
asS'force'
p122
(lp123
g19
ag19
asS'tired'
p124
(lp125
g4
ag13
ag4
ag4
asS'awake'
p126
(lp127
g22
asS'razed'
p128
(lp129
g4
ag4
asS'out-going'
p130
(lp131
g19
asS'assure'
p132
(lp133
g19
asS'tires'
p134
(lp135
g55
asS'crave'
p136
(lp137
g10
asS'persuade'
p138
(lp139
g10
asS'quill'
p140
(lp141
g19
ag19
asS'even'
p142
(lp143
g36
ag36
ag36
ag36
ag36
ag36
ag36
ag36
ag36
ag36
ag36
ag36
ag36
ag36
ag36
ag36
ag36
ag36
ag36
ag36
ag36
ag36
ag36
ag36
asS'beated'
p144
(lp145
g20
asS'captain'
p146
(lp147
g22
ag19
asS'hide'
p148
(lp149
g19
ag19
ag19
ag10
ag19
asS"ne'er"
p150
(lp151
g36
ag10
ag36
asS'solemn'
p152
(lp153
g13
asS'thunder'
p154
(lp155
g19
asS'fingers'
p156
(lp157
g55
ag55
ag55
asS'liberty'
p158
(lp159
g19
ag19
asS'children'
p160
(lp161
S'NNS'
p162
asS'worser'
p163
(lp164
g19
asS'inheritors'
p165
(lp166
g55
asS'above'
p167
(lp168
g76
ag76
ag76
ag10
asS'guilty'
p169
(lp170
S'JJ'
p171
ag171
asS'matcheth'
p172
(lp173
g19
asS'new'
p174
(lp175
S'JJ'
p176
ag176
ag176
ag176
ag176
ag176
ag176
ag176
ag176
ag176
ag176
ag176
ag176
ag176
ag176
ag176
ag176
ag176
ag176
ag176
ag176
ag176
asS'poorly'
p177
(lp178
g36
asS'ever'
p179
(lp180
S'RB'
p181
ag181
ag181
ag181
ag181
ag181
ag181
ag181
ag181
ag181
ag181
asS'told'
p182
(lp183
g20
ag4
ag20
ag4
asS'deemed'
p184
(lp185
g20
ag4
asS'merchandized'
p186
(lp187
g4
asS'sinks'
p188
(lp189
g55
asS'join'
p190
(lp191
g19
asS'never'
p192
(lp193
S'RB'
p194
ag194
ag194
ag194
ag194
ag194
ag194
ag194
ag194
ag194
ag194
ag194
ag194
ag194
ag194
asS'here'
p195
(lp196
S'RB'
p197
ag197
ag197
ag197
asS'herd'
p198
(lp199
g19
asS'beck'
p200
(lp201
g19
asS"sweet'st"
p202
(lp203
g13
asS'pursuit'
p204
(lp205
g19
ag19
asS'active'
p206
(lp207
S'JJ'
p208
asS'spies'
p209
(lp210
g55
asS'a-doting'
p211
(lp212
g13
asS'effectually'
p213
(lp214
g36
asS'dry'
p215
(lp216
g10
asS'resty'
p217
(lp218
g19
asS'substance'
p219
(lp220
g19
ag19
ag19
ag19
asS'gaol'
p221
(lp222
g19
asS'leaves'
p223
(lp224
g55
ag55
ag55
ag55
ag55
ag21
ag21
ag21
asS'climbed'
p225
(lp226
g20
asS'credit'
p227
(lp228
S'NN'
p229
asS'smoke'
p230
(lp231
g19
asS'permit'
p232
(lp233
g22
asS'bettered'
p234
(lp235
g4
asS'mistake'
p236
(lp237
g22
asS'settled'
p238
(lp239
g13
asS'fell'
p240
(lp241
S'VBD'
p242
ag242
ag242
ag242
asS'politic'
p243
(lp244
g13
asS'golden'
p245
(lp246
S'JJ'
p247
ag247
ag247
ag247
ag247
asS'swearing'
p248
(lp249
g29
asg29
(lp250
S'growing'
p251
asS'divide'
p252
(lp253
g10
asg20
(lp254
S'came'
p255
asS'motley'
p256
(lp257
g19
asS'blessed-fair'
p258
(lp259
g13
asg4
(lp260
g79
asS'sorrows'
p261
(lp262
g55
ag13
asS'patience'
p263
(lp264
g19
ag19
asg22
(lp265
S'prove'
p266
asS'stern'
p267
(lp268
g13
asg21
(lp269
S'cools'
p270
asS'glance'
p271
(lp272
g10
ag10
asS"light's"
p273
(lp274
g19
asS'plot'
p275
(lp276
g19
asS'budding'
p277
(lp278
g19
asS'would'
p279
(lp280
S'MD'
p281
ag281
ag281
ag281
ag281
ag281
ag281
ag281
ag281
ag281
ag281
ag281
ag281
ag281
ag281
ag281
ag281
ag281
ag281
ag281
ag281
asS'recured'
p282
(lp283
g4
asS"world's"
p284
(lp285
g19
ag19
ag19
ag19
ag19
asS'junes'
p286
(lp287
g55
asS'music'
p288
(lp289
S'NN'
p290
ag290
ag290
ag290
ag290
ag290
asS'therefore'
p291
(lp292
g36
ag19
ag22
ag36
ag19
ag36
ag36
ag10
ag36
ag19
ag36
ag76
ag36
ag36
ag76
ag36
ag36
asS'survive'
p293
(lp294
g13
ag22
asS'gilding'
p295
(lp296
g29
ag29
asS'tell'
p297
(lp298
g10
ag10
ag22
ag22
ag10
ag10
ag10
ag19
ag22
ag19
ag10
ag10
ag10
ag22
ag10
asS'breathe'
p299
(lp300
g10
ag19
asS'leese'
p301
(lp302
g13
asS'unbless'
p303
(lp304
g19
asS'holy'
p305
(lp306
g19
ag13
ag13
ag13
asS'wary'
p307
(lp308
g13
asS'brings'
p309
(lp310
g55
ag21
asS'muse'
p311
(lp312
g19
ag19
ag19
ag19
ag19
ag19
ag19
ag19
ag19
ag19
ag19
ag19
ag19
ag19
ag19
ag19
asS"is't"
p313
(lp314
g19
ag21
asS'grief'
p315
(lp316
g19
ag19
ag19
ag19
ag19
asS'glass'
p317
(lp318
g19
ag19
ag19
ag19
ag19
ag19
ag19
ag19
ag19
asS'warm'
p319
(lp320
g19
asS'excellent'
p321
(lp322
g13
asS'robbing'
p323
(lp324
g29
asS'ward'
p325
(lp326
g36
asS'hold'
p327
(lp328
g22
ag10
ag22
ag10
ag22
ag10
ag10
ag10
ag19
ag19
ag19
ag22
asS'striving'
p329
(lp330
g29
asS'must'
p331
(lp332
S'MD'
p333
ag333
ag333
ag333
ag333
ag333
ag333
ag333
ag333
ag333
ag333
ag333
ag333
ag333
ag333
ag333
ag333
ag333
ag333
ag333
asS'me'
p334
(lp335
S'PRP'
p336
ag336
ag336
ag336
ag336
ag336
ag336
ag336
ag336
ag336
ag336
ag336
ag336
ag336
ag336
ag336
ag336
ag336
ag336
ag336
ag336
ag336
ag336
ag336
ag336
ag336
ag336
ag336
ag336
ag336
ag336
ag336
ag336
ag336
ag336
ag336
ag336
ag336
ag336
ag336
ag336
ag336
ag336
ag336
ag336
ag336
ag336
ag336
ag336
ag336
ag336
ag336
ag336
ag336
ag336
ag336
ag336
ag336
ag336
ag336
ag336
ag336
ag336
ag336
ag336
ag336
ag336
ag336
ag336
ag336
ag336
ag336
ag336
ag336
ag336
ag336
ag336
ag336
ag336
ag336
ag336
ag336
ag336
ag336
ag336
ag336
ag336
ag336
ag336
ag336
ag336
ag336
ag336
ag336
ag336
ag336
ag336
ag336
ag336
ag336
ag336
ag336
ag336
ag336
ag336
ag336
ag336
ag336
ag336
ag336
ag336
ag336
ag336
ag336
ag336
ag336
ag336
ag336
ag336
ag336
ag336
ag336
ag336
ag336
ag336
ag336
ag336
ag336
ag336
ag336
ag336
ag336
ag336
ag336
ag336
ag336
ag336
ag336
ag336
ag336
ag336
ag336
ag336
ag336
ag336
ag336
ag336
ag336
ag336
ag336
ag336
ag336
ag336
ag336
ag336
ag336
ag336
ag336
ag336
ag336
ag336
ag336
ag336
ag336
asS'locked'
p337
(lp338
g4
asS'room'
p339
(lp340
S'NN'
p341
asS'err'
p342
(lp343
g22
asS'rights'
p344
(lp345
S'NNS'
p346
asS'work'
p347
(lp348
g19
ag10
ag19
asS'eclipse'
p349
(lp350
g19
asS'roof'
p351
(lp352
g19
asS'meadows'
p353
(lp354
g55
asS'ere'
p355
(lp356
S'EX'
p357
ag357
ag36
ag36
ag36
ag36
asS'leaped'
p358
(lp359
g4
asS'revenues'
p360
(lp361
g55
asS'my'
p362
(lp363
S'PRP$'
p364
ag364
ag364
ag364
ag364
ag364
ag364
ag364
ag364
ag364
ag364
ag364
ag364
ag364
ag364
ag364
ag364
ag364
ag364
ag364
ag364
ag364
ag364
ag364
ag364
ag364
ag364
ag364
ag364
ag364
ag364
ag364
ag364
ag364
ag364
ag364
ag364
ag364
ag364
ag364
ag364
ag364
ag364
ag364
ag364
ag364
ag364
ag364
ag364
ag364
ag364
ag364
ag364
ag364
ag364
ag364
ag364
ag364
ag364
ag364
ag364
ag364
ag364
ag364
ag364
ag364
ag364
ag364
ag364
ag364
ag364
ag364
ag364
ag364
ag364
ag364
ag364
ag364
ag364
ag364
ag364
ag364
ag364
ag364
ag364
ag364
ag364
ag364
ag364
ag364
ag364
ag364
ag364
ag364
ag364
ag364
ag364
ag364
ag364
ag364
ag364
ag364
ag364
ag364
ag364
ag364
ag364
ag364
ag364
ag364
ag364
ag364
ag364
ag364
ag364
ag364
ag364
ag364
ag364
ag364
ag364
ag364
ag364
ag364
ag364
ag364
ag364
ag364
ag364
ag364
ag364
ag364
ag364
ag364
ag364
ag364
ag364
ag364
ag364
ag364
ag364
ag364
ag364
ag364
ag364
ag364
ag364
ag364
ag364
ag364
ag364
ag364
ag364
ag364
ag364
ag364
ag364
ag364
ag364
ag364
ag364
ag364
ag364
ag364
ag364
ag364
ag364
ag364
ag364
ag364
ag364
ag364
ag364
ag364
ag364
ag364
ag364
ag364
ag364
ag364
ag364
ag364
ag364
ag364
ag364
ag364
ag364
ag364
ag364
ag364
ag364
ag364
ag364
ag364
ag364
ag364
ag364
ag364
ag364
ag364
ag364
ag364
ag364
ag364
ag364
ag364
ag364
ag364
ag364
ag364
ag364
ag364
ag364
ag364
ag364
ag364
ag364
ag364
ag364
ag364
ag364
ag364
ag364
ag364
ag364
ag364
ag364
ag364
ag364
ag364
ag364
ag364
ag364
ag364
ag364
ag364
ag364
ag364
ag364
ag364
ag364
ag364
ag364
ag364
ag364
ag364
ag364
ag364
ag364
ag364
ag364
ag364
ag364
ag364
ag364
ag364
ag364
ag364
ag364
ag364
ag364
ag364
ag364
ag364
ag364
ag364
ag364
ag364
ag364
ag364
ag364
ag364
ag364
ag364
ag364
ag364
ag364
ag364
ag364
ag364
ag364
ag364
ag364
ag364
ag364
ag364
ag364
ag364
ag364
ag364
ag364
ag364
ag364
ag364
ag364
ag364
ag364
ag364
ag364
ag364
ag364
ag364
ag364
ag364
ag364
ag364
ag364
ag364
ag364
ag364
ag364
ag364
ag364
ag364
ag364
ag364
ag364
ag364
ag364
ag364
ag364
ag364
ag364
ag364
ag364
ag364
ag364
ag364
ag364
ag364
ag364
ag364
ag364
ag364
ag364
ag364
ag364
ag364
ag364
ag364
ag364
ag364
ag364
ag364
ag364
ag364
ag364
ag364
ag364
ag364
ag364
ag364
ag364
ag364
ag364
ag364
ag364
ag364
ag364
ag364
ag364
ag364
ag364
ag364
ag364
ag364
ag364
ag364
ag364
ag364
ag364
ag364
ag364
ag364
ag364
ag364
ag364
ag364
ag364
ag364
ag364
ag364
ag364
ag364
ag364
ag364
ag364
ag364
ag364
ag364
ag364
asS'example'
p365
(lp366
S'NN'
p367
asS'lodged'
p368
(lp369
g4
asS'phrase'
p370
(lp371
g19
asS'subtleties'
p372
(lp373
g55
asS'fresher'
p374
(lp375
g19
asS'wane'
p376
(lp377
g19
asS'unjust'
p378
(lp379
g13
asS'honey'
p380
(lp381
g19
asS'foist'
p382
(lp383
g19
asS'kingdoms'
p384
(lp385
g55
asS'respose'
p386
(lp387
g19
asS'times'
p388
(lp389
g55
ag21
ag55
ag55
ag55
ag55
ag55
ag55
ag55
asS'worse'
p390
(lp391
S'WDT'
p392
aS'JJR'
p393
ag393
ag393
ag393
asS'ceremony'
p394
(lp395
g19
asS"consum'st"
p396
(lp397
g19
asS'gusts'
p398
(lp399
g55
asS'provide'
p400
(lp401
g36
asS'dignifies'
p402
(lp403
g55
asS'travel'
p404
(lp405
g19
ag13
asS'indirectly'
p406
(lp407
g36
asS'feature'
p408
(lp409
g19
asS'wights'
p410
(lp411
g55
asS'far'
p412
(lp413
S'RB'
p414
ag414
ag414
ag414
ag414
ag414
ag414
ag414
ag414
ag414
ag414
ag414
ag414
ag414
ag414
ag414
asS'hot'
p415
(lp416
g13
ag13
ag13
asS'writers'
p417
(lp418
g55
asS'answer'
p419
(lp420
g19
ag19
ag19
asS'gate'
p421
(lp422
g19
asS'dignified'
p423
(lp424
g20
asS"o'er-snowed"
p425
(lp426
g13
asS'blanks'
p427
(lp428
g55
asS'beauty'
p429
(lp430
g19
ag19
ag19
ag13
ag19
ag19
ag19
ag19
ag19
ag19
ag19
ag19
ag19
ag19
ag19
ag19
ag19
ag19
ag19
ag19
ag19
ag19
ag19
ag19
ag19
ag10
ag19
ag19
ag19
ag19
ag19
ag19
ag19
ag19
ag13
ag19
ag19
ag19
ag19
ag19
ag19
ag19
ag19
ag19
ag19
ag19
ag19
ag19
ag19
ag19
ag19
ag19
asS'after'
p431
(lp432
S'IN'
p433
ag433
ag433
ag433
ag433
ag433
ag433
ag433
ag433
ag433
asS'wrong'
p434
(lp435
g13
ag13
ag13
ag13
ag13
asS'lay'
p436
(lp437
g19
ag10
asS'lap'
p438
(lp439
g19
asS'wronk'
p440
(lp441
g10
asS'NNPS'
p442
(lp443
S'means'
p444
asS"rud'st"
p445
(lp446
g19
asS'revolt'
p447
(lp448
g19
asS'greet'
p449
(lp450
g10
ag10
ag10
asS'purging'
p451
(lp452
g19
asS'wink'
p453
(lp454
g22
ag22
asS'maintain'
p455
(lp456
g22
asS'haste'
p457
(lp458
g19
ag19
ag19
asS'keeps'
p459
(lp460
g55
ag21
ag21
ag21
asS'alack'
p461
(lp462
g36
ag19
aS'RP'
p463
asS'wouldst'
p464
(lp465
g19
ag19
ag19
asS'wind'
p466
(lp467
g19
ag19
asS'bed-vow'
p468
(lp469
g13
asS'determinate'
p470
(lp471
g19
asS'couplement'
p472
(lp473
g19
asS'after-loss'
p474
(lp475
g13
asS'office'
p476
(lp477
S'NN'
p478
asS'consent'
p479
(lp480
g19
asS'profaned'
p481
(lp482
g4
ag4
asS'sickly'
p483
(lp484
g13
asS'fortify'
p485
(lp486
g10
ag10
asS'ghastly'
p487
(lp488
g36
asS'strangle'
p489
(lp490
g19
asS"bestow'st"
p491
(lp492
g13
asS'wrought'
p493
(lp494
g20
ag19
asS'before'
p495
(lp496
g76
ag36
ag76
ag76
ag76
ag76
ag76
ag76
ag76
ag76
ag19
ag36
ag22
ag76
ag76
asS'better'
p497
(lp498
g393
aS'RBR'
p499
ag393
ag393
ag393
ag393
ag393
ag393
ag393
ag393
ag393
ag499
ag393
ag499
ag393
ag499
ag499
ag393
ag393
asS'PRP'
p500
(lp501
S'she'
p502
asS'fade'
p503
(lp504
g10
ag19
ag10
asS'carve'
p505
(lp506
g19
asS'hidden'
p507
(lp508
g19
asS'savour'
p509
(lp510
g13
asS'then'
p511
(lp512
S'RB'
p513
ag513
ag513
ag513
ag513
ag513
ag513
ag513
ag513
ag513
ag513
ag513
ag513
ag513
ag513
ag513
ag513
ag513
ag513
ag513
ag513
ag513
ag513
ag513
ag513
ag513
ag513
ag513
ag513
ag513
ag513
ag513
ag513
ag513
ag513
ag513
ag513
ag513
ag513
ag513
ag513
ag513
ag513
ag513
ag513
ag513
ag513
ag513
ag513
ag513
ag513
ag513
ag513
ag513
ag513
ag513
ag513
ag513
ag513
ag513
ag513
ag513
ag513
ag513
ag513
ag513
ag513
ag513
ag513
ag513
ag513
ag513
ag513
ag513
asS'them'
p514
(lp515
S'PRP'
p516
ag516
ag516
ag516
ag516
ag516
ag516
ag516
ag516
ag516
ag516
ag516
ag516
ag516
ag516
ag516
ag516
asS'blots'
p517
(lp518
g55
asS'enrich'
p519
(lp520
g19
asS'thee'
p521
(lp522
g19
ag19
ag13
ag55
ag19
ag19
ag19
ag19
ag19
ag13
ag19
ag10
ag55
ag19
ag19
ag19
ag19
ag19
ag13
ag19
ag19
ag10
ag22
ag19
ag19
ag19
ag19
ag19
ag19
ag19
ag10
ag19
ag10
ag19
ag19
ag55
ag55
ag13
ag10
ag19
ag19
ag10
ag19
ag19
ag10
ag55
ag19
ag10
ag19
ag19
ag19
ag10
ag19
ag13
ag19
ag19
ag13
ag10
ag19
ag19
ag10
ag19
ag19
ag19
ag13
ag76
ag19
ag19
ag22
ag10
ag19
ag13
ag13
ag19
ag19
ag55
ag13
ag10
ag19
ag19
ag10
ag13
ag19
ag19
ag22
ag19
ag19
ag19
ag36
ag13
ag10
ag13
ag13
ag19
ag13
ag19
ag19
ag4
ag19
ag76
ag10
ag10
ag19
ag19
ag19
ag19
ag10
ag19
ag19
ag76
ag19
ag76
ag19
ag10
ag10
ag13
ag19
ag36
ag55
ag19
ag19
ag19
ag19
ag19
ag13
ag19
ag13
ag19
ag76
ag13
ag10
ag13
ag19
ag19
ag19
ag19
ag13
ag19
ag19
ag13
ag19
ag19
ag13
ag55
ag19
ag55
ag19
ag19
ag10
ag36
ag19
ag19
ag13
ag19
ag19
ag19
ag13
ag13
asS"truth's"
p523
(lp524
g13
asS'break'
p525
(lp526
g19
ag19
ag10
ag22
asS"winter's"
p527
(lp528
g10
ag13
ag19
asS'diseased'
p529
(lp530
g4
asS'they'
p531
(lp532
S'PRP'
p533
ag533
ag533
ag533
ag533
ag533
ag533
ag533
ag533
ag533
ag533
ag533
ag533
ag533
ag533
ag533
ag533
ag533
ag533
ag533
ag533
ag533
ag533
ag533
ag533
ag533
ag533
ag533
ag533
ag533
ag533
ag533
ag533
ag533
ag533
ag533
ag533
ag533
ag533
ag533
ag533
ag533
ag533
ag533
ag533
ag533
ag533
ag533
ag533
ag533
ag533
ag533
asS'glazed'
p534
(lp535
g4
asS"lovers'"
p536
(lp537
g13
asS'silver'
p538
(lp539
g19
asS'shadows'
p540
(lp541
g21
ag55
ag55
asS'rhetoric'
p542
(lp543
g19
asS'brightness'
p544
(lp545
g19
asS'slavery'
p546
(lp547
g10
asS'rocks'
p548
(lp549
g55
asS'herald'
p550
(lp551
g19
asS'victories'
p552
(lp553
g55
asS'needing'
p554
(lp555
g13
asS'each'
p556
(lp557
S'DT'
p558
ag558
ag558
ag558
ag558
ag558
ag558
ag558
ag558
ag558
ag558
ag558
ag558
ag558
ag558
asS'wantonly'
p559
(lp560
g36
asS'dulness'
p561
(lp562
g19
asS'went'
p563
(lp564
S'VBD'
p565
asS'side'
p566
(lp567
g10
ag19
ag19
ag19
ag19
ag19
asS'luck'
p568
(lp569
g19
asS'true-telling'
p570
(lp571
g13
asS'woes'
p572
(lp573
g55
asS'concord'
p574
(lp575
g19
ag19
asS"'will'"
p576
(lp577
g10
ag10
aS'NNP'
p578
aS'POS'
p579
asS'taught'
p580
(lp581
g20
ag20
ag4
ag20
ag20
ag20
asS'forgot'
p582
(lp583
g19
ag4
ag4
ag20
asS'misprision'
p584
(lp585
g19
asS'whit'
p586
(lp587
g19
asS'truant'
p588
(lp589
g19
asS'array'
p590
(lp591
g22
asS'borne'
p592
(lp593
g22
ag13
asS'contend'
p594
(lp595
g10
asS'large'
p596
(lp597
S'JJ'
p598
ag598
ag598
ag598
ag598
asS'decree'
p599
(lp600
g10
asS'weakness'
p601
(lp602
S'NN'
p603
asS'sang'
p604
(lp605
g19
asS'god'
p606
(lp607
g21
ag19
asS'forty'
p608
(lp609
g19
asS"run'st"
p610
(lp611
g13
asS'content'
p612
(lp613
g19
ag19
asS'laid'
p614
(lp615
g4
ag4
ag4
ag19
asS'heart-inflaming'
p616
(lp617
g13
asS'heavenly'
p618
(lp619
g19
ag36
ag13
asS'got'
p620
(lp621
g20
ag20
ag20
asS'marigold'
p622
(lp623
g19
asS'forth'
p624
(lp625
g19
ag13
ag10
ag19
ag19
ag36
ag19
asS'prizing'
p626
(lp627
g29
asS'assured'
p628
(lp629
g4
ag20
ag13
ag13
asS'fadeth'
p630
(lp631
g19
asS'hang'
p632
(lp633
g22
ag19
ag36
asS'deceived'
p634
(lp635
g13
ag4
asS'eternal'
p636
(lp637
g13
ag13
ag13
ag13
ag13
ag13
asS'given'
p638
(lp639
S'VBN'
p640
ag640
ag640
ag640
asS'free'
p641
(lp642
g13
ag13
ag13
ag13
asS'mourning'
p643
(lp644
g29
ag29
asS'mistaking'
p645
(lp646
g29
asS'bestow'
p647
(lp648
g10
asS'whereupon'
p649
(lp650
g76
asS'rain'
p651
(lp652
g19
ag19
ag19
asS'crowned'
p653
(lp654
g4
ag4
ag4
ag4
asS'mistress'
p655
(lp656
g19
ag19
ag19
asS'knit'
p657
(lp658
g21
asS'wantonness'
p659
(lp660
g19
asS'saying'
p661
(lp662
g29
asS"receiv'st"
p663
(lp664
g21
ag19
asS'created'
p665
(lp666
g20
ag4
asS'days'
p667
(lp668
S'NNS'
p669
ag669
ag669
ag669
ag669
ag669
ag669
ag669
ag669
ag669
ag669
ag669
ag669
ag669
ag669
ag669
ag669
asS'sue'
p670
(lp671
g10
asS'bears'
p672
(lp673
g21
ag21
ag55
asS'renew'
p674
(lp675
g19
asS'tempting'
p676
(lp677
g29
asS'unknown'
p678
(lp679
g13
ag13
asS'tied'
p680
(lp681
g4
asS'potions'
p682
(lp683
g55
ag55
asS'loud'
p684
(lp685
g19
asS'ruinate'
p686
(lp687
g10
asS'user'
p688
(lp689
g19
asS'separable'
p690
(lp691
g13
asS'untutored'
p692
(lp693
g13
asS'already'
p694
(lp695
S'RB'
p696
asS'crowning'
p697
(lp698
g29
asS'hearsay'
p699
(lp700
g19
asS"'greeing"
p701
(lp702
g29
asS'rank'
p703
(lp704
g19
ag19
ag19
ag19
ag19
asS'hearing'
p705
(lp706
g29
asS'jealous'
p707
(lp708
g13
asS'featured'
p709
(lp710
g4
asS'another'
p711
(lp712
S'DT'
p713
ag713
ag713
ag713
ag713
ag713
ag713
ag713
asS'sober'
p714
(lp715
g19
asS'filching'
p716
(lp717
g19
asS'exchequer'
p718
(lp719
g19
asS'usurer'
p720
(lp721
g19
ag19
asS'top'
p722
(lp723
g19
asS'hawks'
p724
(lp725
g19
ag55
asS'millioned'
p726
(lp727
g13
asS'master'
p728
(lp729
g19
ag22
asS'too'
p730
(lp731
S'RB'
p732
ag732
ag732
ag732
ag732
ag732
ag732
ag732
ag732
ag732
ag732
ag732
ag732
ag732
ag732
ag732
ag732
asS'dwell'
p733
(lp734
g19
ag10
ag10
ag19
ag10
ag10
asS'bitter'
p735
(lp736
g10
ag10
asS'saith'
p737
(lp738
g19
asS'broils'
p739
(lp740
g55
asS'feathers'
p741
(lp742
g55
asS'griefs'
p743
(lp744
g55
asS'took'
p745
(lp746
S'VBD'
p747
ag747
ag747
ag747
ag747
asS'wisdom'
p748
(lp749
g13
asS'wardrobe'
p750
(lp751
g19
asS"youth's"
p752
(lp753
g36
asS'character'
p754
(lp755
g19
ag19
ag10
asS'begins'
p756
(lp757
g21
asS'distance'
p758
(lp759
g19
asS"here's"
p760
(lp761
S'PDT'
p762
asS'coward'
p763
(lp764
g13
asS"mother's"
p765
(lp766
g19
ag13
ag13
asS'bitterness'
p767
(lp768
g19
ag19
asS'idly'
p769
(lp770
g36
asS'matter'
p771
(lp772
g19
ag19
ag19
asS'idle'
p773
(lp774
g13
ag13
asS'invention'
p775
(lp776
g19
ag19
ag19
ag19
ag19
asS'flame'
p777
(lp778
g19
ag19
ag19
asS'friend'
p779
(lp780
g22
ag19
ag19
ag19
ag19
ag19
ag22
ag19
ag19
ag19
ag19
ag19
ag19
ag19
asS'deserving'
p781
(lp782
g29
asS'askance'
p783
(lp784
g19
asS'knights'
p785
(lp786
g55
asS'beard'
p787
(lp788
g13
asS'powers'
p789
(lp790
g55
asS'swift-footed'
p791
(lp792
g13
asS'fashion'
p793
(lp794
S'NN'
p795
ag795
asS'sees'
p796
(lp797
g21
asS'hue'
p798
(lp799
g19
ag19
ag19
ag19
ag19
asS"mind's"
p800
(lp801
g19
asS'modern'
p802
(lp803
g13
asS'mind'
p804
(lp805
g19
ag19
ag19
ag19
ag19
ag19
ag19
ag19
ag19
ag19
ag19
ag19
ag19
ag19
ag22
ag19
asS'mine'
p806
(lp807
g13
ag19
ag19
ag13
ag13
ag19
ag13
ag19
ag13
ag19
ag13
ag19
ag13
ag10
ag10
ag22
ag19
ag10
ag13
ag19
ag19
ag19
ag19
ag19
ag19
ag19
ag19
ag13
ag13
ag13
ag19
ag13
ag19
ag22
aS'PRP'
p808
ag19
ag13
ag19
ag13
ag19
ag19
ag13
ag19
ag13
ag19
ag22
ag13
ag19
ag19
ag13
ag4
ag19
ag13
ag19
ag19
ag10
ag10
ag13
ag13
ag13
ag13
ag13
ag19
asS'spent'
p809
(lp810
g4
ag13
ag20
ag4
ag4
ag4
asS'manner'
p811
(lp812
g19
asS'amiss'
p813
(lp814
g13
ag13
asS'bewailed'
p815
(lp816
g13
asS"deserv'st"
p817
(lp818
g19
asS'churl'
p819
(lp820
g19
ag22
asS'seem'
p821
(lp822
g22
ag19
ag22
ag10
ag19
ag10
ag22
ag10
ag10
ag10
ag22
ag22
asS'seek'
p823
(lp824
g22
ag13
ag10
ag19
asS'tells'
p825
(lp826
g21
ag21
asS'contents'
p827
(lp828
g55
asS'praising'
p829
(lp830
g29
ag29
asS'strength'
p831
(lp832
S'NN'
p833
ag833
ag833
ag833
ag833
asS'neck'
p834
(lp835
g19
asg579
(lp836
S"'tis"
p837
asS'sound'
p838
(lp839
g19
ag19
asS'chest'
p840
(lp841
g19
ag19
ag19
asS'subjects'
p842
(lp843
g55
ag55
asS'laughed'
p844
(lp845
g4
asS'pilgrimage'
p846
(lp847
g19
ag19
asS'rider'
p848
(lp849
g19
asS'aggravate'
p850
(lp851
g10
asS"men's"
p852
(lp853
g22
ag13
ag13
ag13
ag19
ag21
asS'maiden'
p854
(lp855
g19
ag13
ag13
asS'though'
p856
(lp857
g76
ag76
ag76
ag76
ag76
ag76
ag76
ag76
ag76
ag76
ag76
ag76
ag76
ag76
ag76
ag76
ag76
ag76
ag76
ag76
ag76
ag76
ag76
ag76
ag76
ag76
ag76
ag76
ag36
ag76
ag76
ag76
asS'object'
p858
(lp859
g19
asS'dial'
p860
(lp861
g13
ag13
asS'justify'
p862
(lp863
g10
asS'dulling'
p864
(lp865
g29
asS'errors'
p866
(lp867
g55
ag55
ag55
ag55
asS'ashes'
p868
(lp869
g55
asS'disarmed'
p870
(lp871
g20
asS'grave'
p872
(lp873
g19
ag19
ag19
asS'shalt'
p874
(lp875
g20
ag19
ag19
ag10
ag20
ag19
ag19
ag13
ag19
ag19
ag19
asS'constancy'
p876
(lp877
g19
ag19
ag19
asS'consumed'
p878
(lp879
g4
asS'flow'
p880
(lp881
g10
asS'breathes'
p882
(lp883
g55
asS'steeled'
p884
(lp885
g13
asS'points'
p886
(lp887
g55
asS'breathed'
p888
(lp889
g13
asS'wrecked'
p890
(lp891
g4
asS'fitted'
p892
(lp893
g4
asS'reserve'
p894
(lp895
g10
ag10
asS'wild'
p896
(lp897
g13
asS'renewed'
p898
(lp899
g4
asS'bait'
p900
(lp901
g19
asS'oaths'
p902
(lp903
g13
ag55
ag55
asS'enjoyer'
p904
(lp905
g19
asS'ending'
p906
(lp907
S'VBG'
p908
asS'poison'
p909
(lp910
g22
asS'earth'
p911
(lp912
g19
ag19
ag19
ag19
ag19
ag13
ag19
ag393
ag19
ag19
ag13
ag19
asS'bail'
p913
(lp914
g19
ag19
asS'enjoyed'
p915
(lp916
g4
asS'bearer'
p917
(lp918
g19
asS'touches'
p919
(lp920
g55
ag21
ag55
ag55
asS'copy'
p921
(lp922
g19
ag22
asS'proposed'
p923
(lp924
g4
asS'spite'
p925
(lp926
g19
ag13
ag19
ag19
ag19
asS'herself'
p927
(lp928
g808
asS'cupid'
p929
(lp930
g13
ag13
asS'bliss'
p931
(lp932
g19
asS'touched'
p933
(lp934
g20
asS'rich'
p935
(lp936
g13
ag13
ag13
ag13
ag13
ag13
ag13
ag13
ag13
ag13
asS'pursuing'
p937
(lp938
g29
asS'mend'
p939
(lp940
g10
ag22
ag10
asS"'thou"
p941
(lp942
S'CD'
p943
asS'borrowed'
p944
(lp945
g4
ag20
asS'do'
p946
(lp947
g10
ag22
ag22
ag22
ag22
ag22
ag22
ag22
ag22
ag22
ag10
ag22
ag22
ag22
ag22
ag22
ag22
ag22
ag10
ag22
ag22
ag22
ag22
ag22
ag22
ag22
ag10
ag22
ag22
ag10
ag22
ag10
ag22
ag10
ag22
ag10
ag22
ag10
ag22
ag22
ag22
ag10
ag22
ag22
ag10
ag22
ag22
ag22
ag22
ag10
ag22
ag22
ag10
ag10
ag22
ag10
ag22
ag10
ag22
ag22
ag22
ag10
ag22
ag22
ag22
ag22
ag22
ag22
ag22
ag22
ag22
ag22
ag22
ag22
ag22
ag22
ag22
ag22
ag22
ag22
ag22
ag22
ag22
ag22
asS'blenches'
p948
(lp949
g55
asS'forsworn'
p950
(lp951
g19
ag19
ag4
ag4
asS"'i"
p952
(lp953
S'MD'
p954
ag943
ag13
asS'stop'
p955
(lp956
g10
ag10
asS'perceive'
p957
(lp958
g22
asS'leisure'
p959
(lp960
g19
ag19
ag19
ag19
asS'raiment'
p961
(lp962
g19
asS'gored'
p963
(lp964
g20
asS'bootless'
p965
(lp966
g19
asS'spirit'
p967
(lp968
g19
ag19
ag19
ag19
ag19
ag19
ag19
ag19
ag19
ag19
asS'despite'
p969
(lp970
S'IN'
p971
ag971
ag971
ag971
ag971
ag971
asS'report'
p972
(lp973
g19
ag19
ag19
ag19
asS'saturn'
p974
(lp975
g19
asS'seemly'
p976
(lp977
g13
asS'runs'
p978
(lp979
g21
asS'increasing'
p980
(lp981
g29
asS'bar'
p982
(lp983
g10
asS'exchanged'
p984
(lp985
g20
asS'beseem'
p986
(lp987
g76
asS'thrusts'
p988
(lp989
g55
asS'doting'
p990
(lp991
g13
asS'twice'
p992
(lp993
g36
ag36
asS'eyelids'
p994
(lp995
g55
ag55
asS'esteeming'
p996
(lp997
g29
asS'maketh'
p998
(lp999
g36
asS'hasten'
p1000
(lp1001
g22
asS'steal'
p1002
(lp1003
g13
ag13
ag13
ag10
ag10
ag19
asS'thanks'
p1004
(lp1005
g55
asS'unprovident'
p1006
(lp1007
g13
asS'penance'
p1008
(lp1009
g19
asS"wond'ring"
p1010
(lp1011
g29
asS'unrespected'
p1012
(lp1013
g4
ag13
asS'fair'
p1014
(lp1015
g13
ag13
ag13
ag13
ag19
ag19
ag13
ag13
ag13
ag19
ag13
ag13
ag13
ag13
ag19
ag13
ag13
ag13
ag13
ag13
ag19
ag13
ag13
ag13
ag13
ag13
ag13
ag13
ag10
ag13
ag13
ag13
ag13
ag13
ag19
ag13
ag13
ag13
ag13
ag21
ag19
ag13
ag19
asS'habit'
p1016
(lp1017
g19
asS'imitate'
p1018
(lp1019
g10
asS'proclaims'
p1020
(lp1021
g22
asS'depends'
p1022
(lp1023
g21
ag21
asS'corrupt'
p1024
(lp1025
g4
ag10
asS'best'
p1026
(lp1027
g52
aS'RBS'
p1028
ag1028
ag52
ag52
ag52
ag52
ag52
ag52
ag52
ag1028
ag52
ag1028
ag52
ag52
ag52
ag1028
ag52
ag52
ag52
ag52
ag52
ag52
asS'subject'
p1029
(lp1030
g19
ag13
ag13
ag19
ag13
asS'said'
p1031
(lp1032
S'VBD'
p1033
ag1033
ag1033
ag1033
asS'temptation'
p1034
(lp1035
g19
ag10
asS"bett'ring"
p1036
(lp1037
g19
asS'away'
p1038
(lp1039
g36
ag463
ag36
ag36
ag36
ag36
ag36
ag463
ag36
ag463
ag36
ag36
ag36
ag463
ag36
ag36
ag36
ag36
asS'sail'
p1040
(lp1041
g19
ag19
ag19
asS'bier'
p1042
(lp1043
g19
asS'madding'
p1044
(lp1045
g19
asS'wilful-slow'
p1046
(lp1047
g13
asS'mud'
p1048
(lp1049
g22
asS'score'
p1050
(lp1051
g10
asS'finger'
p1052
(lp1053
g19
asS'pebbled'
p1054
(lp1055
g4
asS'scorn'
p1056
(lp1057
g22
ag13
asS'drawn'
p1058
(lp1059
g19
ag4
ag19
asS'enlighten'
p1060
(lp1061
g10
asS'preserve'
p1062
(lp1063
g22
asS'warrior'
p1064
(lp1065
g19
asS'we'
p1066
(lp1067
g500
ag500
ag500
ag500
ag500
ag500
ag500
ag500
ag500
ag500
ag500
ag500
ag500
ag500
ag500
asS'men'
p1068
(lp1069
S'NNS'
p1070
ag1070
ag1070
ag1070
ag1070
ag1070
ag1070
ag1070
ag1070
ag1070
ag1070
ag1070
ag1070
ag1070
ag1070
asS'terms'
p1071
(lp1072
S'NNS'
p1073
asS'parallels'
p1074
(lp1075
g55
asS'nature'
p1076
(lp1077
g19
ag22
ag19
ag13
ag19
ag19
ag19
ag19
ag19
asS'weak'
p1078
(lp1079
S'JJ'
p1080
ag1080
asS'ignorance'
p1081
(lp1082
g19
ag19
asS'authorizing'
p1083
(lp1084
g29
asS'disdaineth'
p1085
(lp1086
g21
asS'wear'
p1087
(lp1088
g22
ag19
ag22
asS'diest'
p1089
(lp1090
g52
asS'news'
p1091
(lp1092
S'NN'
p1093
asS'debt'
p1094
(lp1095
S'NN'
p1096
asS'tempests'
p1097
(lp1098
g55
asS'pity'
p1099
(lp1100
g19
ag19
ag19
ag19
ag19
ag19
ag19
ag19
asS'foes'
p1101
(lp1102
g55
ag55
ag55
asS'goddess'
p1103
(lp1104
g19
ag19
asS'accident'
p1105
(lp1106
g19
asS'disdain'
p1107
(lp1108
g19
ag19
asS'fault'
p1109
(lp1110
g19
ag19
ag19
asS'ill'
p1111
(lp1112
g13
ag13
ag22
ag19
ag10
ag19
ag19
ag13
ag19
ag13
ag10
ag19
ag19
ag19
ag19
ag19
ag22
asS'against'
p1113
(lp1114
S'IN'
p1115
ag1115
ag1115
ag1115
ag1115
ag1115
ag1115
ag1115
ag1115
ag1115
ag1115
ag1115
ag1115
ag1115
ag1115
ag1115
ag1115
ag1115
asS'brag'
p1116
(lp1117
g19
asS'receives'
p1118
(lp1119
g21
ag55
ag21
asS'faces'
p1120
(lp1121
S'VBZ'
p1122
ag1122
asS'exceeds'
p1123
(lp1124
g55
asS'drugs'
p1125
(lp1126
S'NNS'
p1127
asS'expense'
p1128
(lp1129
g19
ag19
ag19
asS'groans'
p1130
(lp1131
g55
asS'asked'
p1132
(lp1133
g4
asS'suggest'
p1134
(lp1135
g10
asS'vexed'
p1136
(lp1137
g13
asS'honouring'
p1138
(lp1139
g19
asS'burthen'
p1140
(lp1141
g19
ag19
asS'height'
p1142
(lp1143
g13
ag19
ag19
asS'hers'
p1144
(lp1145
g55
asS'prone'
p1146
(lp1147
g22
asS'springs'
p1148
(lp1149
g55
asS'over-plus'
p1150
(lp1151
g19
asS'trust'
p1152
(lp1153
g19
ag19
ag10
ag10
ag19
asS'heals'
p1154
(lp1155
g21
asS'speak'
p1156
(lp1157
g10
ag19
ag19
ag19
ag10
ag10
ag19
ag10
asS'yellowed'
p1158
(lp1159
g4
asS'unhappily'
p1160
(lp1161
g13
asS'puts'
p1162
(lp1163
g21
asS'eager'
p1164
(lp1165
g13
asS'time-bettering'
p1166
(lp1167
g13
asS'three'
p1168
(lp1169
S'CD'
p1170
ag1170
ag1170
ag1170
ag1170
ag1170
ag1170
asS'been'
p1171
(lp1172
S'VBN'
p1173
ag1173
ag1173
ag1173
ag1173
ag1173
asS'particulars'
p1174
(lp1175
g55
asS'twain'
p1176
(lp1177
g4
ag19
ag19
asS'much'
p1178
(lp1179
g36
ag36
ag36
ag13
ag13
ag13
ag36
ag13
ag36
ag13
ag13
ag13
ag36
ag36
ag13
ag13
ag13
asS'interest'
p1180
(lp1181
S'NN'
p1182
ag1182
asS'incertainty'
p1183
(lp1184
g19
asS'privilege'
p1185
(lp1186
g19
asS'vermilion'
p1187
(lp1188
g19
asS'lovely'
p1189
(lp1190
g13
ag36
ag36
ag36
ag36
ag13
ag13
asS'thrice'
p1191
(lp1192
g19
ag36
ag19
asS'idol'
p1193
(lp1194
g19
asS'threw'
p1195
(lp1196
g20
asS'life'
p1197
(lp1198
S'NN'
p1199
ag1199
ag1199
ag1199
ag1199
ag1199
ag1199
ag1199
ag1199
ag1199
ag1199
ag1199
ag1199
ag1199
ag1199
ag1199
ag1199
ag1199
ag1199
ag1199
ag1199
ag1199
ag1199
asS"brav'ry"
p1200
(lp1201
g19
asS'easy'
p1202
(lp1203
g13
asS'erred'
p1204
(lp1205
g4
asS'CC'
p1206
(lp1207
S'and'
p1208
asS'maladies'
p1209
(lp1210
g55
ag55
asg943
(lp1211
S'two'
p1212
asS'decrepit'
p1213
(lp1214
g19
asS'dote'
p1215
(lp1216
g10
ag22
asS'child'
p1217
(lp1218
g19
ag19
ag19
ag19
ag19
ag19
ag19
ag19
asS'catch'
p1219
(lp1220
g19
ag10
ag10
ag19
asS'doth'
p1221
(lp1222
S'CC'
p1223
ag19
ag22
ag19
ag19
ag19
ag13
ag21
ag36
ag22
ag22
ag499
ag10
ag19
ag13
ag22
ag13
aS'DT'
p1224
ag22
ag21
ag19
ag19
ag22
ag1224
ag19
ag19
ag19
ag1224
ag19
ag1224
ag13
ag499
ag21
ag21
ag1224
ag13
ag1224
ag13
ag1224
ag19
ag1224
ag55
ag36
ag21
ag19
ag1224
ag1223
ag55
ag21
ag19
ag19
ag55
ag19
ag1224
ag22
ag19
ag19
ag19
ag1224
ag19
ag1223
ag1223
ag19
ag21
ag1224
ag19
ag13
ag22
ag19
ag22
ag1224
ag21
ag21
ag13
ag19
ag10
ag22
ag13
ag21
ag1223
ag19
ag10
ag22
ag36
ag19
ag19
ag19
ag1224
asS'erst'
p1225
(lp1226
g22
asS'gracious'
p1227
(lp1228
g13
ag13
ag13
ag13
ag13
asS'physician'
p1229
(lp1230
g19
asS'east'
p1231
(lp1232
g13
asS'air'
p1233
(lp1234
g19
ag19
ag19
ag19
asS'lesser'
p1235
(lp1236
g393
asS'ugly'
p1237
(lp1238
g36
asS'near'
p1239
(lp1240
g13
ag76
ag76
ag76
ag76
asS'suppose'
p1241
(lp1242
g22
asS'aid'
p1243
(lp1244
g19
ag13
asS'voice'
p1245
(lp1246
g19
asS'weakens'
p1247
(lp1248
g21
asS'played'
p1249
(lp1250
g20
asS'is'
p1251
(lp1252
S'VBZ'
p1253
ag1253
ag1253
ag1253
ag1253
ag1253
ag1253
ag1253
ag1253
ag1253
ag1253
ag1253
ag1253
ag1253
ag1253
ag1253
ag1253
ag1253
ag1253
ag1253
ag1253
ag1253
ag1253
ag1253
ag1253
ag1253
ag1253
ag1253
ag1253
ag1253
ag1253
ag1253
ag1253
ag1253
ag1253
ag1253
ag1253
ag1253
ag1253
ag1253
ag1253
ag1253
ag1253
ag1253
ag1253
ag1253
ag1253
ag1253
ag1253
ag1253
ag1253
ag1253
ag1253
ag1253
ag1253
ag1253
ag1253
ag1253
ag1253
ag1253
ag1253
ag1253
ag1253
ag1253
ag1253
ag1253
ag1253
ag1253
ag1253
ag1253
ag1253
ag1253
ag1253
ag1253
ag1253
ag1253
ag1253
ag1253
ag1253
ag1253
ag1253
ag1253
ag1253
ag1253
ag1253
ag1253
ag1253
ag1253
ag1253
ag1253
ag1253
ag1253
ag1253
ag1253
ag1253
ag1253
ag1253
ag1253
ag1253
ag1253
ag1253
ag1253
ag1253
ag1253
ag1253
ag1253
ag1253
ag1253
ag1253
ag1253
ag1253
ag1253
ag1253
ag1253
ag1253
ag1253
ag1253
ag1253
ag1253
ag1253
ag1253
ag1253
ag1253
ag1253
ag1253
ag1253
ag1253
ag1253
ag1253
ag1253
ag1253
ag1253
ag1253
ag1253
ag1253
ag1253
ag1253
ag1253
ag1253
ag1253
ag1253
ag1253
ag1253
ag1253
ag1253
ag1253
ag1253
ag1253
ag1253
ag1253
ag1253
ag1253
ag1253
ag1253
ag1253
ag1253
ag1253
ag1253
ag1253
ag1253
ag1253
ag1253
ag1253
ag1253
ag1253
ag1253
ag1253
asS'it'
p1254
(lp1255
g808
ag808
ag808
ag808
ag808
ag808
ag808
ag808
ag808
ag808
ag808
ag808
ag808
ag808
ag808
ag808
ag808
ag808
ag808
ag808
ag808
ag808
ag808
ag808
ag808
ag808
ag808
ag808
ag808
ag808
ag808
ag808
ag808
ag808
ag808
ag808
ag808
ag808
ag808
ag808
ag808
ag808
ag808
ag808
ag808
ag808
ag808
ag808
ag808
ag808
ag808
ag808
ag808
ag808
ag808
ag808
ag808
ag808
ag808
ag808
ag808
ag808
ag808
ag808
ag808
ag808
ag808
ag808
ag808
ag808
ag808
ag808
ag808
ag808
ag808
ag808
ag808
ag808
ag808
ag808
ag808
ag808
ag808
ag808
ag808
ag808
ag808
ag808
ag808
ag808
ag808
ag808
ag808
ag808
ag808
ag808
ag808
ag808
ag808
ag808
ag808
ag808
ag808
ag808
ag808
ag808
ag808
ag808
ag808
ag808
asS'defeated'
p1256
(lp1257
g4
asS'shame'
p1258
(lp1259
g19
ag19
ag19
ag13
ag10
ag10
ag19
ag19
ag19
asS'to-morrow'
p1260
(lp1261
g13
ag13
ag19
asS'splendour'
p1262
(lp1263
g19
asS'watching'
p1264
(lp1265
g29
asS'in'
p1266
(lp1267
S'IN'
p1268
ag1268
ag1268
ag1268
ag1268
ag1268
ag1268
ag1268
ag1268
ag1268
ag1268
ag1268
ag1268
ag1268
ag1268
ag1268
ag1268
ag1268
ag1268
ag1268
ag1268
ag1268
ag1268
ag1268
ag1268
ag1268
ag1268
ag1268
ag1268
ag1268
ag1268
ag1268
ag1268
ag1268
ag1268
ag1268
ag1268
ag1268
ag1268
ag1268
ag1268
ag1268
ag1268
ag1268
ag1268
ag1268
ag1268
ag1268
ag1268
ag1268
ag1268
ag1268
ag1268
ag1268
ag1268
ag1268
ag1268
ag1268
ag1268
ag1268
ag1268
ag1268
ag1268
ag1268
ag1268
ag1268
ag1268
ag1268
ag1268
ag1268
ag1268
ag1268
ag1268
ag1268
ag1268
ag1268
ag1268
ag1268
ag1268
ag1268
ag1268
ag1268
ag1268
ag1268
ag1268
ag1268
ag1268
ag1268
ag1268
ag1268
ag1268
ag1268
ag1268
ag1268
ag1268
ag1268
ag1268
ag1268
ag1268
ag1268
ag1268
ag1268
ag1268
ag1268
ag1268
ag1268
ag1268
ag1268
ag1268
ag1268
ag1268
ag1268
ag1268
ag1268
ag1268
ag1268
ag1268
ag1268
ag1268
ag1268
ag1268
ag1268
ag1268
ag1268
ag1268
ag1268
ag1268
ag1268
ag1268
ag1268
ag1268
ag1268
ag1268
ag1268
ag1268
ag1268
ag1268
ag1268
ag1268
ag1268
ag1268
ag1268
ag1268
ag1268
ag1268
ag1268
ag1268
ag1268
ag1268
ag1268
ag1268
ag1268
ag1268
ag1268
ag1268
ag1268
ag1268
ag1268
ag1268
ag1268
ag1268
ag1268
ag1268
ag1268
ag1268
ag1268
ag1268
ag1268
ag1268
ag1268
ag1268
ag1268
ag1268
ag1268
ag1268
ag1268
ag1268
ag1268
ag1268
ag1268
ag1268
ag1268
ag1268
ag1268
ag1268
ag1268
ag1268
ag1268
ag1268
ag1268
ag1268
ag1268
ag1268
ag1268
ag1268
ag1268
ag1268
ag1268
ag1268
ag1268
ag1268
ag1268
ag1268
ag1268
ag1268
ag1268
ag1268
ag1268
ag1268
ag1268
ag1268
ag1268
ag1268
ag1268
ag1268
ag1268
ag1268
ag1268
ag1268
ag1268
ag1268
ag1268
ag1268
ag1268
ag1268
ag1268
ag1268
ag1268
ag1268
ag1268
ag1268
ag1268
ag1268
ag1268
ag1268
ag1268
ag1268
ag1268
ag1268
ag1268
ag1268
ag1268
ag1268
ag1268
ag1268
ag1268
ag1268
ag1268
ag1268
ag1268
ag1268
ag1268
ag1268
ag1268
ag1268
ag1268
ag1268
ag1268
ag1268
ag1268
ag1268
ag1268
ag1268
ag1268
ag1268
ag1268
ag1268
ag1268
ag1268
ag1268
ag1268
ag1268
ag1268
ag1268
ag1268
ag1268
ag1268
ag1268
ag1268
ag1268
ag1268
ag1268
ag1268
ag1268
ag1268
ag1268
ag1268
ag1268
ag1268
ag1268
ag1268
ag1268
ag1268
ag1268
ag1268
ag1268
ag1268
ag1268
ag1268
ag1268
ag1268
ag1268
ag1268
ag1268
ag1268
ag1268
ag1268
ag1268
ag1268
ag1268
ag1268
ag1268
ag1268
ag1268
ag1268
ag1268
ag1268
ag1268
ag1268
ag1268
asS'bounteous'
p1269
(lp1270
g13
ag13
asS'if'
p1271
(lp1272
S'IN'
p1273
ag1273
ag1273
ag1273
ag1273
ag1273
ag1273
ag1273
ag1273
ag1273
ag1273
ag1273
ag1273
ag1273
ag1273
ag1273
ag1273
ag1273
ag1273
ag1273
ag1273
ag1273
ag1273
ag1273
ag1273
ag1273
ag1273
ag1273
ag1273
ag1273
ag1273
ag1273
ag1273
ag1273
ag1273
ag1273
ag1273
ag1273
ag1273
ag1273
ag1273
ag1273
ag1273
ag1273
ag1273
ag1273
ag1273
ag1273
ag1273
ag1273
ag1273
ag1273
ag1273
ag1273
ag1273
ag1273
ag1273
ag1273
ag1273
ag1273
ag1273
ag1273
ag1273
ag1273
ag1273
ag1273
asS'grown'
p1274
(lp1275
g4
ag13
ag4
asS'wooing'
p1276
(lp1277
g29
asS'memorial'
p1278
(lp1279
g19
asS'awakes'
p1280
(lp1281
g55
asg270
(lp1282
g21
asS'patent'
p1283
(lp1284
g19
asS'things'
p1285
(lp1286
S'NNS'
p1287
ag1287
ag1287
ag1287
ag1287
ag1287
ag1287
ag1287
ag1287
ag1287
ag1287
ag1287
ag1287
ag1287
asS'make'
p1288
(lp1289
g10
ag10
ag10
ag22
ag10
ag22
ag10
ag22
ag10
ag10
ag19
ag10
ag22
ag10
ag22
ag22
ag10
ag10
ag10
ag22
ag22
ag10
ag10
ag10
ag22
ag19
ag22
ag10
ag10
ag10
ag10
ag10
ag10
ag10
ag10
ag10
ag22
ag10
ag10
ag19
ag10
ag10
ag10
asS'wound'
p1290
(lp1291
g19
ag19
ag76
ag19
asS"lords'"
p1292
(lp1293
g13
asS'beside'
p1294
(lp1295
g76
ag19
asS'bosoms'
p1296
(lp1297
g55
asS"th'"
p1298
(lp1299
g13
ag22
ag19
ag19
ag19
ag13
ag76
ag13
ag21
asS'several'
p1300
(lp1301
S'JJ'
p1302
asS'grows'
p1303
(lp1304
g21
ag55
ag21
ag21
asS'entitled'
p1305
(lp1306
g4
asS'lusty'
p1307
(lp1308
g13
ag13
asS'fairly'
p1309
(lp1310
S'RB'
p1311
asg10
(lp1312
S'love'
p1313
asS'tops'
p1314
(lp1315
g55
asS'evil'
p1316
(lp1317
g13
ag19
ag19
ag13
asS'hand'
p1318
(lp1319
S'NN'
p1320
ag1320
ag1320
ag1320
ag1320
ag1320
ag1320
ag1320
ag1320
ag1320
ag1320
ag1320
ag1320
ag1320
ag1320
ag1320
ag1320
asS'delight'
p1321
(lp1322
g19
ag19
ag13
ag19
ag19
ag13
ag4
ag19
asS'supposing'
p1323
(lp1324
g29
asS'dark'
p1325
(lp1326
g19
ag13
ag13
asS'bequest'
p1327
(lp1328
g52
asS'blamed'
p1329
(lp1330
g4
ag20
asS'thoughts'
p1331
(lp1332
g55
ag55
ag55
ag55
ag55
ag55
ag55
ag55
ag55
ag55
ag55
ag55
ag55
ag55
ag55
ag55
ag55
ag55
asS'censures'
p1333
(lp1334
g21
asS'kept'
p1335
(lp1336
g20
ag4
ag4
asS'thy'
p1337
(lp1338
g13
ag13
ag13
ag10
ag13
ag13
ag13
ag13
ag13
ag13
ag13
ag13
ag13
ag13
ag19
ag13
ag19
ag13
ag13
ag13
ag13
ag55
ag13
ag13
ag13
ag13
ag13
ag13
ag13
ag19
ag13
ag13
ag19
ag13
ag10
ag13
ag13
ag13
ag13
ag13
ag13
ag13
ag13
ag13
ag13
ag19
ag13
ag13
ag13
ag13
ag13
ag13
ag13
ag13
ag13
ag19
ag19
ag13
ag10
ag13
ag13
ag13
ag13
ag13
ag10
ag13
ag13
ag13
ag13
ag13
ag13
ag13
ag13
ag13
ag13
ag13
ag20
ag13
ag10
ag19
ag13
ag10
ag13
ag13
ag13
ag13
ag13
ag13
ag13
ag10
ag13
ag13
ag13
ag13
ag13
ag19
ag13
ag13
ag13
ag13
ag19
ag13
ag13
ag13
ag13
ag13
ag13
ag13
ag13
ag13
ag10
ag13
ag13
ag13
ag13
ag13
ag13
ag13
ag19
ag10
ag13
ag13
ag13
ag13
ag13
ag13
ag13
ag13
ag13
ag13
ag13
ag13
ag13
ag22
ag13
ag13
ag13
ag13
ag13
ag13
ag13
ag13
ag19
ag13
ag13
ag13
ag19
ag13
ag13
ag13
ag13
ag13
ag13
ag13
ag13
ag13
ag13
ag13
ag13
ag19
ag13
ag13
ag13
ag13
ag13
ag13
ag13
ag13
ag13
ag13
ag13
ag13
ag13
ag13
ag13
ag13
ag13
ag13
ag13
ag13
ag13
ag19
ag13
ag13
ag13
ag13
ag13
ag13
ag13
ag13
ag13
ag13
ag13
ag13
ag13
ag13
ag13
ag13
ag13
ag13
ag19
ag13
ag10
ag13
ag13
ag19
ag22
ag10
ag13
ag19
ag13
ag13
ag13
ag13
ag13
ag13
ag13
ag13
ag13
ag13
ag13
ag13
ag13
ag13
ag13
ag13
ag13
ag13
ag13
ag13
ag10
ag13
ag19
ag10
ag10
ag13
ag13
ag10
ag13
ag10
ag13
ag13
ag13
ag13
ag13
ag19
ag13
ag13
ag13
ag13
ag13
ag13
ag22
ag76
ag4
ag13
ag13
ag13
ag13
ag13
ag13
ag13
ag13
ag13
ag13
ag13
ag13
ag13
ag13
ag13
ag13
ag13
ag13
ag13
ag13
ag13
ag13
ag19
ag13
asS'singleness'
p1339
(lp1340
g19
asS'sweetness'
p1341
(lp1342
g19
ag19
asS'possessed'
p1343
(lp1344
g13
ag4
asS'humble'
p1345
(lp1346
g13
ag13
asS'inherit'
p1347
(lp1348
g10
asS'ocean'
p1349
(lp1350
g19
ag13
ag19
asS'ragged'
p1351
(lp1352
g13
asS'fulness'
p1353
(lp1354
g13
asS'greatest'
p1355
(lp1356
g52
asS'incapable'
p1357
(lp1358
g19
asS'mother'
p1359
(lp1360
g19
ag19
asS'hearts'
p1361
(lp1362
g55
ag55
ag55
ag55
asS'the'
p1363
(lp1364
S'DT'
p1365
ag1365
ag1365
ag1365
ag1365
ag1365
ag1365
ag1365
ag1365
ag1365
ag1365
ag1365
ag1365
ag1365
ag1365
ag1365
ag1365
ag1365
ag1365
ag1365
ag1365
ag1365
ag1365
ag1365
ag1365
ag1365
ag1365
ag1365
ag1365
ag1365
ag1365
ag1365
ag1365
ag1365
ag1365
ag1365
ag1365
ag1365
ag1365
ag1365
ag1365
ag1365
ag1365
ag1365
ag1365
ag1365
ag1365
ag1365
ag1365
ag1365
ag1365
ag1365
ag1365
ag1365
ag1365
ag1365
ag1365
ag1365
ag1365
ag1365
ag1365
ag1365
ag1365
ag1365
ag1365
ag1365
ag1365
ag1365
ag1365
ag1365
ag1365
ag1365
ag1365
ag1365
ag1365
ag1365
ag1365
ag1365
ag1365
ag1365
ag1365
ag1365
ag1365
ag1365
ag1365
ag1365
ag1365
ag1365
ag1365
ag1365
ag1365
ag1365
ag1365
ag1365
ag1365
ag1365
ag1365
ag1365
ag1365
ag1365
ag1365
ag1365
ag1365
ag1365
ag1365
ag1365
ag1365
ag1365
ag1365
ag1365
ag1365
ag1365
ag1365
ag1365
ag1365
ag1365
ag1365
ag1365
ag1365
ag1365
ag1365
ag1365
ag1365
ag1365
ag1365
ag1365
ag1365
ag1365
ag1365
ag1365
ag1365
ag1365
ag1365
ag1365
ag1365
ag1365
ag1365
ag1365
ag1365
ag1365
ag1365
ag1365
ag1365
ag1365
ag1365
ag1365
ag1365
ag1365
ag1365
ag1365
ag1365
ag1365
ag1365
ag1365
ag1365
ag1365
ag1365
ag1365
ag1365
ag1365
ag1365
ag1365
ag1365
ag1365
ag1365
ag1365
ag1365
ag1365
ag1365
ag1365
ag1365
ag1365
ag1365
ag1365
ag1365
ag1365
ag1365
ag1365
ag1365
ag1365
ag1365
ag1365
ag1365
ag1365
ag1365
ag1365
ag1365
ag1365
ag1365
ag1365
ag1365
ag1365
ag1365
ag1365
ag1365
ag1365
ag1365
ag1365
ag1365
ag1365
ag1365
ag1365
ag1365
ag1365
ag1365
ag1365
ag1365
ag1365
ag1365
ag1365
ag1365
ag1365
ag1365
ag1365
ag1365
ag1365
ag1365
ag1365
ag1365
ag1365
ag1365
ag1365
ag1365
ag1365
ag1365
ag1365
ag1365
ag1365
ag1365
ag1365
ag1365
ag1365
ag1365
ag1365
ag1365
ag1365
ag1365
ag1365
ag1365
ag1365
ag1365
ag1365
ag1365
ag1365
ag1365
ag1365
ag1365
ag1365
ag1365
ag1365
ag1365
ag1365
ag1365
ag1365
ag1365
ag1365
ag1365
ag1365
ag1365
ag1365
ag1365
ag1365
ag1365
ag1365
ag1365
ag1365
ag1365
ag1365
ag1365
ag1365
ag1365
ag1365
ag1365
ag1365
ag1365
ag1365
ag1365
ag1365
ag1365
ag1365
ag1365
ag1365
ag1365
ag1365
ag1365
ag1365
ag1365
ag1365
ag1365
ag1365
ag1365
ag1365
ag1365
ag1365
ag1365
ag1365
ag1365
ag1365
ag1365
ag1365
ag1365
ag1365
ag1365
ag1365
ag1365
ag1365
ag1365
ag1365
ag1365
ag1365
ag1365
ag1365
ag1365
ag1365
ag1365
ag1365
ag1365
ag1365
ag1365
ag1365
ag1365
ag1365
ag1365
ag1365
ag1365
ag1365
ag1365
ag1365
ag1365
ag1365
ag1365
ag1365
ag1365
ag1365
ag1365
ag1365
ag1365
ag1365
ag1365
ag1365
ag1365
ag1365
ag1365
ag1365
ag1365
ag1365
ag1365
ag1365
ag1365
ag1365
ag1365
ag1365
ag1365
ag1365
ag1365
ag1365
ag1365
ag1365
ag1365
ag1365
ag1365
ag1365
ag1365
ag1365
ag1365
ag1365
ag1365
ag1365
ag1365
ag1365
ag1365
ag1365
ag1365
ag1365
ag1365
ag1365
ag1365
ag1365
ag1365
ag1365
ag1365
ag1365
ag1365
ag1365
ag1365
ag1365
ag1365
ag1365
ag1365
ag1365
ag1365
ag1365
ag1365
ag1365
ag1365
ag1365
ag1365
ag1365
ag1365
ag1365
ag1365
ag1365
ag1365
ag1365
ag1365
ag1365
ag1365
ag1365
ag1365
ag1365
ag1365
ag1365
ag1365
ag1365
ag1365
ag1365
ag1365
ag1365
ag1365
ag1365
ag1365
ag1365
ag1365
ag1365
ag1365
ag1365
asS'cure'
p1366
(lp1367
g10
ag19
ag19
ag19
ag19
asS'yours'
p1368
(lp1369
g36
ag55
ag55
ag55
ag55
asS'left'
p1370
(lp1371
g20
ag20
ag20
ag20
ag20
asS'reeks'
p1372
(lp1373
g19
asS'just'
p1374
(lp1375
S'RB'
p1376
ag1376
ag1376
ag1376
asS'wasteful'
p1377
(lp1378
g13
ag13
asS'yea'
p1379
(lp1380
g55
asS"poet's"
p1381
(lp1382
g13
ag13
asS'unfair'
p1383
(lp1384
g13
asS'repose'
p1385
(lp1386
g13
asS'verses'
p1387
(lp1388
g55
asg392
(lp1389
S'which'
p1390
asS'farther'
p1391
(lp1392
g36
ag36
ag393
ag13
asS'swears'
p1393
(lp1394
g55
asS'prognosticate'
p1395
(lp1396
g19
asS'plight'
p1397
(lp1398
g19
asS'yet'
p1399
(lp1400
g36
ag36
ag36
ag36
ag36
ag36
ag36
ag36
ag36
ag36
ag36
ag36
ag36
ag36
ag36
ag36
ag36
ag36
ag36
ag36
ag36
ag36
ag36
ag36
ag36
ag36
ag36
ag36
ag36
ag36
ag36
ag36
ag36
ag36
ag36
ag36
ag36
ag36
ag36
ag36
ag36
ag36
ag1223
ag36
ag36
ag36
ag36
ag36
ag36
asS'succeeding'
p1401
(lp1402
g29
asS'vices'
p1403
(lp1404
g55
asS'adding'
p1405
(lp1406
S'VBG'
p1407
asS'dearer'
p1408
(lp1409
g19
ag393
asS'compeers'
p1410
(lp1411
g55
asS'had'
p1412
(lp1413
g20
ag20
ag20
ag20
ag20
ag20
ag20
ag20
ag20
ag20
ag20
asS'counted'
p1414
(lp1415
g4
asS'presagers'
p1416
(lp1417
g55
asS'alchemy'
p1418
(lp1419
g19
ag21
asS'belongs'
p1420
(lp1421
g55
ag55
asS'beloved'
p1422
(lp1423
g20
ag4
ag4
ag4
ag4
asS'prison'
p1424
(lp1425
g19
asS'hap'
p1426
(lp1427
g19
asS'pitiful'
p1428
(lp1429
g13
asS'save'
p1430
(lp1431
g10
ag10
ag19
ag19
ag13
ag10
ag19
ag19
asS'gave'
p1432
(lp1433
S'VBD'
p1434
ag1434
ag1434
ag1434
ag1434
asS"others'"
p1435
(lp1436
g19
ag13
ag13
ag10
ag13
asS'dignity'
p1437
(lp1438
g19
asS'spacious'
p1439
(lp1440
g13
asS'reviewest'
p1441
(lp1442
g22
asS'birth'
p1443
(lp1444
g19
ag19
ag19
ag19
ag19
asS'wanting'
p1445
(lp1446
g29
ag29
asS'shadow'
p1447
(lp1448
g19
ag13
ag19
ag10
ag19
ag19
ag19
asS'dreams'
p1449
(lp1450
g55
ag55
asS"picture's"
p1451
(lp1452
g19
asS'desire'
p1453
(lp1454
g22
ag19
ag19
ag19
ag19
ag19
ag19
ag19
ag19
ag19
ag19
asS'brought'
p1455
(lp1456
g4
ag4
ag20
asS"feed'st"
p1457
(lp1458
g22
asS'gift'
p1459
(lp1460
g19
ag19
ag19
ag19
ag19
asS'new-found'
p1461
(lp1462
g13
asS'vilest'
p1463
(lp1464
g19
asS'offices'
p1465
(lp1466
S'NNS'
p1467
asS'night'
p1468
(lp1469
S'NN'
p1470
ag1470
ag1470
ag1470
ag1470
ag1470
ag1470
ag1470
ag1470
ag1470
ag1470
ag1470
ag1470
ag1470
ag1470
ag1470
ag1470
ag1470
ag1470
ag1470
ag1470
ag1470
asS'hung'
p1471
(lp1472
g19
ag19
asS'antique'
p1473
(lp1474
g19
ag19
ag19
ag13
ag13
asS'right'
p1475
(lp1476
g13
ag36
ag13
ag19
ag13
ag36
ag19
ag36
ag36
ag36
asS'old'
p1477
(lp1478
S'JJ'
p1479
ag1479
ag1479
ag1479
ag1479
ag1479
ag1479
ag1479
ag1479
ag1479
ag1479
ag1479
ag1479
ag1479
ag1479
ag1479
ag1479
ag1479
ag1479
ag1479
ag1479
ag1479
asS'flatter'
p1480
(lp1481
g13
ag499
ag19
asS"war's"
p1482
(lp1483
g13
asS'deaf'
p1484
(lp1485
g55
asS'short-numbered'
p1486
(lp1487
g13
asS'dead'
p1488
(lp1489
g13
ag13
ag13
ag13
ag13
ag13
ag13
ag13
ag13
ag13
ag13
ag13
ag13
ag13
ag13
ag13
asS'born'
p1490
(lp1491
g4
ag4
ag19
ag4
ag4
ag4
ag4
asS'dear'
p1492
(lp1493
g13
ag19
ag13
ag13
ag22
ag13
ag13
ag13
ag19
ag13
ag13
ag13
ag13
ag13
ag22
ag13
ag13
ag13
ag13
ag19
ag13
asS'altered'
p1494
(lp1495
g13
ag20
asS'bore'
p1496
(lp1497
g22
ag76
asS'guess'
p1498
(lp1499
g19
ag22
asS'creep'
p1500
(lp1501
g22
asS'enemies'
p1502
(lp1503
g55
ag55
asS'for'
p1504
(lp1505
S'IN'
p1506
ag1506
ag1506
ag1506
ag1506
ag1506
ag1506
ag1506
ag1506
ag1506
ag1506
ag1506
ag1506
ag1506
ag1506
ag1506
ag1506
ag1506
ag1506
ag1506
ag1506
ag1506
ag1506
ag1506
ag1506
ag1506
ag1506
ag1506
ag1506
ag1506
ag1506
ag1506
ag1506
ag1506
ag1506
ag1506
ag1506
ag1506
ag1506
ag1506
ag1506
ag1506
ag1506
ag1506
ag1506
ag1506
ag1506
ag1506
ag1506
ag1506
ag1506
ag1506
ag1506
ag1506
ag1506
ag1506
ag1506
ag1506
ag1506
ag1506
ag1506
ag1506
ag1506
ag1506
ag1506
ag1506
ag1506
ag1506
ag1506
ag1506
ag1506
ag1506
ag1506
ag1506
ag1506
ag1506
ag1506
ag1506
ag1506
ag1506
ag1506
ag1506
ag1506
ag1506
ag1506
ag1506
ag1506
ag1506
ag1506
ag1506
ag1506
ag1506
ag1506
ag1506
ag1506
ag1506
ag1506
ag1506
ag1506
ag1506
ag1506
ag1506
ag1506
ag1506
ag1506
ag1506
ag1506
ag1506
ag1506
ag1506
ag1506
ag1506
ag1506
ag1506
ag1506
ag1506
ag1506
ag1506
ag1506
ag1506
ag1506
ag1506
ag1506
ag1506
ag1506
ag1506
ag1506
ag1506
ag1506
ag1506
ag1506
ag1506
ag1506
ag1506
ag1506
ag1506
ag1506
ag1506
ag1506
ag1506
ag1506
ag1506
ag1506
ag1506
ag1506
ag1506
ag1506
ag1506
ag1506
ag1506
ag1506
ag1506
ag1506
ag1506
ag1506
ag1506
ag1506
ag1506
ag1506
ag1506
ag1506
ag1506
ag1506
ag1506
ag1506
ag1506
ag1506
ag1506
asS"bosom's"
p1507
(lp1508
g19
ag55
asS'rehearse'
p1509
(lp1510
g19
ag10
ag19
ag10
asS'comments'
p1511
(lp1512
S'NNS'
p1513
ag1513
asS'foe'
p1514
(lp1515
g19
asS'denied'
p1516
(lp1517
g4
asS'bold'
p1518
(lp1519
g19
ag13
asS'burn'
p1520
(lp1521
g10
ag10
ag19
asS'divining'
p1522
(lp1523
g29
asS'shifting'
p1524
(lp1525
g29
asS'losing'
p1526
(lp1527
g29
ag29
ag29
asS'taker'
p1528
(lp1529
g19
asS'peep'
p1530
(lp1531
g10
asS'disdains'
p1532
(lp1533
g21
asS'shaken'
p1534
(lp1535
g4
ag4
asS'proceed'
p1536
(lp1537
g10
asS'theirs'
p1538
(lp1539
g808
ag55
asS'coral'
p1540
(lp1541
g19
asS'haply'
p1542
(lp1543
g19
ag10
ag10
asS'frailer'
p1544
(lp1545
g19
asS'o'
(lp1546
g19
ag19
ag19
ag19
ag13
ag19
ag10
ag19
ag22
ag13
ag21
ag13
ag21
ag10
ag19
ag19
ag13
ag21
ag76
ag22
ag10
ag22
ag76
ag13
ag13
ag19
ag76
ag22
ag19
ag20
ag19
ag19
ag13
ag19
ag13
ag36
ag22
ag19
ag954
ag19
ag4
ag19
ag76
ag10
ag76
ag19
ag13
ag76
asS'costs'
p1547
(lp1548
g55
asS'despair'
p1549
(lp1550
g10
ag19
asS'felt'
p1551
(lp1552
g20
asS'cherish'
p1553
(lp1554
g19
asS'commit'
p1555
(lp1556
g19
asS'lacked'
p1557
(lp1558
g4
ag20
asS'bath'
p1559
(lp1560
g19
ag19
ag19
ag19
asS'raised'
p1561
(lp1562
g4
asS'faint'
p1563
(lp1564
g19
asS'presence'
p1565
(lp1566
S'NN'
p1567
ag1567
asS'civil'
p1568
(lp1569
S'JJ'
p1570
asS'pays'
p1571
(lp1572
g21
ag21
asS'nought'
p1573
(lp1574
g19
ag4
ag19
asS'bound'
p1575
(lp1576
g19
ag19
asS'son'
p1577
(lp1578
g19
ag19
ag19
asS'down'
p1579
(lp1580
g463
ag463
ag463
ag463
asS'lies'
p1581
(lp1582
g21
ag21
ag21
ag55
ag21
ag21
ag21
ag55
ag21
ag21
ag55
ag21
asS'refined'
p1583
(lp1584
g4
asS"pour'st"
p1585
(lp1586
g21
asS'methods'
p1587
(lp1588
g55
asS'strangely'
p1589
(lp1590
g36
ag36
asS'despised'
p1591
(lp1592
g13
ag20
ag20
asS'jealousy'
p1593
(lp1594
g19
asS'sovereign'
p1595
(lp1596
g13
ag13
ag13
asS'fight'
p1597
(lp1598
g19
ag19
ag19
asS'virgin'
p1599
(lp1600
g13
asS'way'
p1601
(lp1602
S'NN'
p1603
ag1603
ag1603
ag1603
ag1603
ag1603
asS'call'
p1604
(lp1605
g19
ag19
ag10
ag10
ag22
ag10
ag10
ag19
ag10
ag22
asS'was'
p1606
(lp1607
g20
ag20
ag20
ag20
ag20
ag20
ag20
ag20
ag20
ag20
ag20
ag20
ag20
ag20
ag20
ag20
ag20
ag20
ag20
ag20
ag20
ag20
ag20
ag20
ag20
ag20
ag20
ag20
ag20
asS'war'
p1608
(lp1609
S'NN'
p1610
ag1610
ag1610
ag1610
ag1610
ag1610
asS'happy'
p1611
(lp1612
g13
ag13
ag13
ag13
ag13
ag13
ag13
ag13
ag13
ag13
ag13
asS'head'
p1613
(lp1614
g19
ag19
ag19
ag19
ag19
ag19
asS'faring'
p1615
(lp1616
g29
asS'form'
p1617
(lp1618
g10
ag19
ag19
ag19
ag19
ag19
ag19
ag19
ag19
ag19
ag19
asS'statute'
p1619
(lp1620
g19
asS'crown'
p1621
(lp1622
g22
asS'becoming'
p1623
(lp1624
S'VBG'
p1625
ag1625
asS'forgetful'
p1626
(lp1627
g13
asS'fore'
p1628
(lp1629
g22
asS'back'
p1630
(lp1631
g463
ag36
ag36
ag36
ag36
ag36
ag36
ag36
asS'heinous'
p1632
(lp1633
g13
asS'pricked'
p1634
(lp1635
g20
asS'heat'
p1636
(lp1637
g19
ag19
ag19
ag19
asS'hear'
p1638
(lp1639
g10
ag10
ag10
ag22
ag10
ag19
asS'odours'
p1640
(lp1641
g55
asS'learned'
p1642
(lp1643
g20
asS'astonished'
p1644
(lp1645
g20
asS'blindness'
p1646
(lp1647
g10
asS'removed'
p1648
(lp1649
g4
ag20
ag20
ag20
asS'true'
p1650
(lp1651
S'JJ'
p1652
ag1652
ag1652
ag1652
ag1652
ag1652
ag1652
ag1652
ag1652
ag1652
ag1652
ag1652
ag1652
ag1652
ag1652
ag1652
ag1652
ag1652
ag1652
ag1652
ag1652
ag1652
ag1652
ag1652
ag1652
ag1652
ag1652
ag1652
ag1652
ag1652
ag1652
ag1652
ag1652
ag1652
ag1652
ag1652
ag1652
asS'deepest'
p1653
(lp1654
g52
asS'absent'
p1655
(lp1656
g13
ag13
ag13
asS'lilies'
p1657
(lp1658
g55
asS'captive'
p1659
(lp1660
g13
asS'extremity'
p1661
(lp1662
g19
asS"for't"
p1663
(lp1664
g13
asS'bids'
p1665
(lp1666
g55
asS'until'
p1667
(lp1668
S'IN'
p1669
asS'crystal'
p1670
(lp1671
g13
asS'unfathered'
p1672
(lp1673
g13
ag4
asS'adore'
p1674
(lp1675
g76
asS'anew'
p1676
(lp1677
g36
ag13
ag20
asS'engraft'
p1678
(lp1679
g22
asS'bide'
p1680
(lp1681
g36
ag10
asS'latch'
p1682
(lp1683
g19
asS'trim'
p1684
(lp1685
g13
asS'disgrace'
p1686
(lp1687
g19
ag19
ag19
ag19
ag19
ag19
ag19
asS'ornaments'
p1688
(lp1689
g55
asS'fury'
p1690
(lp1691
g19
asS'sinful'
p1692
(lp1693
g13
ag13
ag13
ag13
asS'steep-up'
p1694
(lp1695
g13
asS"beauty's"
p1696
(lp1697
g20
ag13
ag19
ag19
ag19
ag13
ag13
ag13
ag19
ag19
ag19
ag13
ag19
ag21
ag13
ag13
ag13
ag19
asS'hungry'
p1698
(lp1699
g13
ag13
asS"''"
p1700
(lp1701
S"'"
asS'huswife'
p1702
(lp1703
g19
asS'sometime'
p1704
(lp1705
g36
ag13
ag36
ag36
ag36
ag36
asS'subsist'
p1706
(lp1707
g10
asS'shines'
p1708
(lp1709
g55
ag55
asS'face'
p1710
(lp1711
g19
ag19
ag19
ag19
ag19
ag19
ag19
ag19
ag19
ag19
ag19
ag19
ag19
ag19
ag19
ag19
ag19
ag19
ag19
asS'injurious'
p1712
(lp1713
g13
ag13
asS'posting'
p1714
(lp1715
g19
asS'willingly'
p1716
(lp1717
g10
asS'looked'
p1718
(lp1719
g20
ag4
asS'dying'
p1720
(lp1721
g13
asS'no'
p1722
(lp1723
g1224
ag1224
ag1224
ag36
ag1224
ag1224
ag1224
ag1224
ag1224
ag1224
ag1224
ag1224
ag36
ag1224
ag1224
ag1224
ag1224
ag1224
ag1224
ag1224
ag1224
ag1224
ag1224
ag1224
ag1224
ag1224
ag1224
ag1224
ag1224
ag1224
ag1224
ag1224
ag1224
ag1224
ag1224
ag1224
ag1224
ag36
ag36
ag1224
ag1224
ag1224
ag1224
ag1224
ag1224
ag1224
ag1224
ag1224
ag1224
ag1224
ag1224
ag1224
ag1224
ag1224
ag1224
ag1224
ag1224
ag1224
ag1224
ag1224
ag1224
ag1224
ag36
ag1224
ag1224
ag1224
ag1224
ag1224
ag1224
ag1224
ag1224
ag1224
ag1224
ag1224
ag1224
ag1224
ag1224
ag1224
ag1224
asS'when'
p1724
(lp1725
g62
ag62
ag62
ag62
ag62
ag62
ag62
ag62
ag62
ag62
ag62
ag62
ag62
ag62
ag62
ag62
ag62
ag62
ag62
ag62
ag62
ag62
ag62
ag62
ag62
ag62
ag62
ag62
ag62
ag62
ag62
ag62
ag62
ag62
ag62
ag62
ag62
ag62
ag62
ag62
ag62
ag62
ag62
ag62
ag62
ag62
ag62
ag62
ag62
ag62
ag62
ag62
ag62
ag62
ag62
ag62
ag62
ag62
ag62
ag62
ag62
ag62
ag62
ag62
ag62
ag62
ag62
ag62
ag62
ag62
ag62
ag62
ag62
ag62
ag62
ag62
ag62
ag62
ag62
ag62
ag62
ag62
ag62
ag62
ag62
ag62
ag62
ag62
ag62
ag62
ag62
ag62
ag62
ag62
ag62
ag62
ag62
ag62
ag62
ag62
ag62
ag62
ag62
ag62
ag62
ag62
asS"lov'st"
p1726
(lp1727
g19
ag19
ag393
ag19
ag22
ag19
asS'actor'
p1728
(lp1729
g19
asS'thriftless'
p1730
(lp1731
g19
asS'despising'
p1732
(lp1733
g29
asS'falsely'
p1734
(lp1735
g36
asS'papers'
p1736
(lp1737
g55
asS'tie'
p1738
(lp1739
g10
ag10
asS'vanished'
p1740
(lp1741
g13
ag4
asS'smell'
p1742
(lp1743
g19
ag22
ag19
ag22
asS'eternity'
p1744
(lp1745
g10
ag19
ag19
asS'picture'
p1746
(lp1747
g19
ag19
ag19
asS'intend'
p1748
(lp1749
g22
asS'phoenix'
p1750
(lp1751
g19
asS'pyramids'
p1752
(lp1753
g55
asS'dies'
p1754
(lp1755
g21
asS'welcome'
p1756
(lp1757
g13
ag13
asS'first-born'
p1758
(lp1759
g13
asS'present-absent'
p1760
(lp1761
g13
asS'journey'
p1762
(lp1763
g19
ag19
asS'reign'
p1764
(lp1765
g19
ag19
asS'rolling'
p1766
(lp1767
g29
asS'pierced'
p1768
(lp1769
g4
asS'seeing'
p1770
(lp1771
g29
ag29
ag19
ag29
ag29
asS'died'
p1772
(lp1773
g20
ag20
asS'wrackful'
p1774
(lp1775
g13
asS'afford'
p1776
(lp1777
g10
asS'to-day'
p1778
(lp1779
g13
ag13
ag13
asS'longer'
p1780
(lp1781
g499
ag499
ag499
ag393
ag499
ag393
asS'blushing'
p1782
(lp1783
g29
asS'daily'
p1784
(lp1785
g36
ag13
ag13
asS'cheater'
p1786
(lp1787
g19
asS'teeth'
p1788
(lp1789
g19
asS"dian's"
p1790
(lp1791
g19
asS'laws'
p1792
(lp1793
S'NNS'
p1794
asS'restored'
p1795
(lp1796
g4
asS'songs'
p1797
(lp1798
g55
asS'whoever'
p1799
(lp1800
S'WP'
p1801
asS'varying'
p1802
(lp1803
g19
asS"perceiv'st"
p1804
(lp1805
g19
asS'souls'
p1806
(lp1807
g55
ag55
asS'invent'
p1808
(lp1809
g19
ag19
asS'engrafted'
p1810
(lp1811
g20
asS'leads'
p1812
(lp1813
g21
ag21
asS'continual'
p1814
(lp1815
g13
asS'slandered'
p1816
(lp1817
g4
asS'idolatry'
p1818
(lp1819
g19
asS'abundant'
p1820
(lp1821
g13
asS'retention'
p1822
(lp1823
g19
asS'mounted'
p1824
(lp1825
g4
asS'praises'
p1826
(lp1827
g55
ag55
ag55
ag55
asS'father'
p1828
(lp1829
g13
ag19
asS'confounds'
p1830
(lp1831
g21
ag21
ag55
asS'vex'
p1832
(lp1833
g76
ag19
asS'charge'
p1834
(lp1835
g19
asS'praised'
p1836
(lp1837
g13
ag4
asS'suffered'
p1838
(lp1839
g20
asS'addeth'
p1840
(lp1841
g19
asS'furrows'
p1842
(lp1843
g21
asS'abundance'
p1844
(lp1845
g19
ag19
ag19
ag19
asS'strumpeted'
p1846
(lp1847
g20
asS'string'
p1848
(lp1849
g19
asS'advantage'
p1850
(lp1851
g19
ag19
ag19
asS'drudge'
p1852
(lp1853
g19
asS'fleece'
p1854
(lp1855
g19
asS'votary'
p1856
(lp1857
g19
asS'mourn'
p1858
(lp1859
g19
ag22
ag10
asS'advised'
p1860
(lp1861
g13
asS'word'
p1862
(lp1863
S'NN'
p1864
ag1864
asS'trouble'
p1865
(lp1866
S'NN'
p1867
asS'feeble'
p1868
(lp1869
g13
asS'cool'
p1870
(lp1871
g13
asS"soul's"
p1872
(lp1873
g19
ag19
asS'perceived'
p1874
(lp1875
g20
asS'clouds'
p1876
(lp1877
g55
ag19
ag10
ag55
asS'level'
p1878
(lp1879
g19
ag19
asS'did'
p1880
(lp1881
S'VBD'
p1882
ag1882
ag1882
ag1882
ag1882
ag1882
ag1882
ag1882
ag1882
ag1882
ag1882
ag1882
ag1882
ag1882
ag1882
ag1882
ag1882
ag1882
ag1882
ag1882
ag1882
ag1882
ag1882
ag1882
asS'die'
p1883
(lp1884
g10
ag13
ag10
ag19
ag10
ag76
ag19
ag10
ag10
ag10
ag13
ag19
asS'dig'
p1885
(lp1886
g13
asS'leave'
p1887
(lp1888
g22
ag22
ag10
ag10
ag10
ag22
ag10
ag10
ag10
ag10
asS'excellence'
p1889
(lp1890
g19
ag19
asS'burned'
p1891
(lp1892
g20
asS'quick'
p1893
(lp1894
g13
ag13
ag13
asS'prevent'
p1895
(lp1896
g10
asS'brave'
p1897
(lp1898
g13
ag10
ag19
asS'says'
p1899
(lp1900
S'VBZ'
p1901
ag1901
ag1901
ag1901
ag1901
asS'fearing'
p1902
(lp1903
g19
asS"offender's"
p1904
(lp1905
g13
asS'double-vantage'
p1906
(lp1907
g13
asS'sigh'
p1908
(lp1909
g22
asS'wherefore'
p1910
(lp1911
g36
ag19
ag20
ag55
asS'cost'
p1912
(lp1913
g19
ag19
asS'patient'
p1914
(lp1915
g19
asS'fear'
p1916
(lp1917
g19
ag19
ag19
ag19
ag19
ag10
ag19
asS'indigest'
p1918
(lp1919
g22
asS'hymn'
p1920
(lp1921
g19
asS"fleet'st"
p1922
(lp1923
g19
asS'curse'
p1924
(lp1925
g10
ag19
asS'appear'
p1926
(lp1927
g22
ag22
ag22
ag22
asS'assistance'
p1928
(lp1929
g19
asS'contracted'
p1930
(lp1931
g20
ag20
asS'favour'
p1932
(lp1933
g55
ag19
ag19
asS'pleased'
p1934
(lp1935
g4
asS'suspect'
p1936
(lp1937
g13
ag19
ag19
asS'goes'
p1938
(lp1939
S'VBZ'
p1940
asS'pine'
p1941
(lp1942
g19
ag19
ag10
asS'appeal'
p1943
(lp1944
g19
asS'filled'
p1945
(lp1946
g4
ag20
ag20
asS"april's"
p1947
(lp1948
g13
asS'prescriptions'
p1949
(lp1950
g55
asS'wail'
p1951
(lp1952
g10
ag13
asS'honour'
p1953
(lp1954
g19
ag19
ag22
ag13
aS'PRP$'
p1955
ag19
ag55
asS'clerk'
p1956
(lp1957
g19
asS'water'
p1958
(lp1959
S'NN'
p1960
ag1960
ag1960
ag1960
ag1960
asS'entertain'
p1961
(lp1962
g10
asS'alone'
p1963
(lp1964
g36
ag36
ag36
ag36
ag36
ag36
ag13
ag36
ag36
ag22
ag36
ag36
ag36
ag19
ag36
ag36
ag36
ag36
ag36
asS'appears'
p1965
(lp1966
S'VBZ'
p1967
asS'change'
p1968
(lp1969
g19
ag10
ag10
ag19
ag10
ag19
ag19
ag19
ag19
ag19
ag10
ag10
asS'blunter'
p1970
(lp1971
g36
asS'MD'
p1972
(lp1973
S'would'
p1974
asS'boast'
p1975
(lp1976
g76
ag10
ag19
ag22
ag76
asS'root'
p1977
(lp1978
g22
ag19
asS'wherever'
p1979
(lp1980
g19
asS'bow'
p1981
(lp1982
g19
ag19
asS'spheres'
p1983
(lp1984
g55
asS'shook'
p1985
(lp1986
g20
asS'recounting'
p1987
(lp1988
g29
asS'stained'
p1989
(lp1990
g4
asS'love'
p1991
(lp1992
g19
ag10
ag19
ag19
ag76
ag19
ag19
ag19
ag19
ag19
ag19
ag20
ag19
ag19
ag19
ag19
ag10
ag19
ag19
ag19
ag10
ag19
ag19
ag19
ag19
ag19
ag22
ag19
ag19
ag19
ag19
ag19
ag19
ag10
ag19
ag19
ag19
ag10
ag19
ag10
ag22
ag19
ag19
ag19
ag19
ag19
ag22
ag19
ag10
ag19
ag19
ag19
ag19
ag22
ag10
ag19
ag19
ag76
ag10
ag19
ag19
ag19
ag19
ag19
ag19
ag19
ag22
ag10
ag10
ag22
ag19
ag19
ag10
ag10
ag10
ag76
ag10
ag19
ag19
ag19
ag10
ag19
ag19
ag10
ag10
ag19
ag19
ag19
ag10
ag19
ag19
ag22
ag19
ag19
ag19
ag20
ag19
ag19
ag19
ag13
ag10
ag19
ag19
ag19
ag19
ag19
ag19
ag19
ag19
ag19
ag10
ag22
ag19
ag10
ag10
ag19
ag19
ag19
ag19
ag19
ag19
ag19
ag10
ag22
ag19
ag10
ag22
ag10
ag19
ag19
ag19
ag10
ag19
ag19
ag19
ag10
ag10
ag10
ag19
ag19
ag22
ag19
ag19
ag19
ag10
ag19
ag22
ag22
ag10
ag22
ag19
ag19
ag19
ag19
ag19
ag19
ag10
ag19
ag19
ag19
ag10
asS'humour'
p1993
(lp1994
g19
ag19
asS'tempteth'
p1995
(lp1996
g19
asS'bloody'
p1997
(lp1998
g19
ag13
ag13
asS'withal'
p1999
(lp2000
g762
asS'betraying'
p2001
(lp2002
g29
asS'surmount'
p2003
(lp2004
g19
asS'swallowed'
p2005
(lp2006
g13
asS"suff'ring"
p2007
(lp2008
g29
asS"o'erworn"
p2009
(lp2010
g20
asS'voices'
p2011
(lp2012
g55
asS'wealth'
p2013
(lp2014
g19
ag19
ag19
ag19
ag19
ag19
asS'prove'
p2015
(lp2016
g19
ag55
ag76
ag22
ag19
ag19
ag10
ag10
ag22
ag22
ag10
ag22
asS'sake'
p2017
(lp2018
g19
ag19
ag19
ag19
ag19
ag19
ag19
ag19
asS'confounded'
p2019
(lp2020
g20
asS'angry'
p2021
(lp2022
g19
asS'give'
p2023
(lp2024
g10
ag22
ag10
ag10
ag10
ag13
ag22
ag10
ag13
ag10
ag10
ag10
ag22
ag22
ag10
ag10
ag22
ag10
ag10
ag22
ag13
ag10
ag10
ag22
ag10
ag13
ag10
asS'only'
p2025
(lp2026
g36
ag36
ag36
ag36
ag36
ag36
asS"batt'ring"
p2027
(lp2028
g29
asS'wrongs'
p2029
(lp2030
g55
ag55
asS'live'
p2031
(lp2032
g22
ag13
ag10
ag22
ag10
ag10
ag10
ag22
ag13
ag13
ag13
ag13
ag22
ag22
ag22
ag10
ag10
ag10
ag10
ag13
ag22
ag10
ag10
ag13
ag10
ag13
ag13
ag22
ag13
asS'wood'
p2033
(lp2034
g19
ag19
asS'prey'
p2035
(lp2036
g19
ag19
asS'memory'
p2037
(lp2038
g19
ag19
ag19
ag19
ag19
ag19
ag19
ag19
asS'scope'
p2039
(lp2040
g19
ag19
ag19
ag19
ag19
asS'loving'
p2041
(lp2042
g19
ag29
ag13
ag13
ag29
ag13
ag13
ag29
ag29
asS"love's"
p2043
(lp2044
g13
ag19
ag13
ag19
ag19
ag10
ag19
ag22
ag13
ag13
ag13
ag13
ag13
ag13
ag13
ag13
ag13
ag19
ag22
ag393
ag10
ag13
ag19
ag19
asS'fierce'
p2045
(lp2046
g13
ag13
asS'riot'
p2047
(lp2048
g19
asS'sessions'
p2049
(lp2050
g55
asS'towers'
p2051
(lp2052
g55
asS'neglected'
p2053
(lp2054
g13
asS'acceptable'
p2055
(lp2056
g13
asS"strength's"
p2057
(lp2058
g13
asS'drown'
p2059
(lp2060
g463
asS'everywhere'
p2061
(lp2062
g36
ag36
asS'virtue'
p2063
(lp2064
g19
ag19
ag19
ag13
ag19
ag19
ag19
asS'robe'
p2065
(lp2066
g19
asS'epitaph'
p2067
(lp2068
g19
asS'fly'
p2069
(lp2070
g10
asS'impair'
p2071
(lp2072
g19
asS'sheds'
p2073
(lp2074
g55
asS'car'
p2075
(lp2076
S'NN'
p2077
asg52
(lp2078
S'fairest'
p2079
asg393
(lp2080
S'more'
p2081
asS'purge'
p2082
(lp2083
g22
asS'hardest'
p2084
(lp2085
g52
asS'sour'
p2086
(lp2087
g13
ag19
asS'can'
p2088
(lp2089
S'MD'
p2090
ag2090
ag2090
ag2090
ag2090
ag2090
ag2090
ag2090
ag2090
ag2090
ag2090
ag2090
ag2090
ag2090
ag2090
ag2090
ag2090
ag2090
ag2090
ag2090
ag2090
ag2090
ag2090
ag2090
ag2090
ag2090
ag2090
ag2090
ag2090
ag2090
ag2090
ag2090
ag2090
ag2090
ag2090
ag2090
ag2090
ag2090
ag2090
ag2090
ag2090
ag2090
ag2090
ag2090
asS'growing'
p2091
(lp2092
g29
ag29
ag29
asS'making'
p2093
(lp2094
g29
ag29
ag19
ag29
ag29
ag29
ag29
ag29
ag29
ag19
ag29
ag29
asS"prevent'st"
p2095
(lp2096
g76
asS'deceased'
p2097
(lp2098
g4
ag20
asS'breeds'
p2099
(lp2100
g55
asS'heart'
p2101
(lp2102
S'NN'
p2103
ag2103
ag2103
ag2103
ag2103
ag2103
ag2103
ag2103
ag2103
ag2103
ag2103
ag2103
ag2103
ag2103
ag2103
ag2103
ag2103
ag2103
ag2103
ag2103
ag2103
ag2103
ag2103
ag2103
ag2103
ag2103
ag2103
ag2103
ag2103
ag2103
ag2103
ag2103
ag2103
ag2103
ag2103
ag2103
ag2103
ag2103
ag2103
ag2103
ag2103
ag2103
ag2103
ag2103
ag2103
ag2103
ag2103
ag2103
ag2103
ag2103
asS'dedicated'
p2104
(lp2105
g13
asS"servant's"
p2106
(lp2107
g13
asS'want'
p2108
(lp2109
g22
ag22
ag22
ag19
asS'figure'
p2110
(lp2111
g19
asS'predict'
p2112
(lp2113
g19
asS'sense'
p2114
(lp2115
g19
ag19
ag19
ag19
asS'distillation'
p2116
(lp2117
g19
asS'heard'
p2118
(lp2119
g4
asS'critic'
p2120
(lp2121
g10
asS'purity'
p2122
(lp2123
g19
asS'hides'
p2124
(lp2125
g21
asS"mak'st"
p2126
(lp2127
g19
ag19
asS'provoke'
p2128
(lp2129
g20
asS'stole'
p2130
(lp2131
g20
asS'bereft'
p2132
(lp2133
g4
asS'churls'
p2134
(lp2135
g22
asS'winter'
p2136
(lp2137
g19
ag19
ag19
ag19
ag393
asS'dress'
p2138
(lp2139
g10
asS'divided'
p2140
(lp2141
g20
asS'undivided'
p2142
(lp2143
g13
asS'cloak'
p2144
(lp2145
g19
asS'trophies'
p2146
(lp2147
g55
asS"lour'st"
p2148
(lp2149
g19
asS'write'
p2150
(lp2151
g10
ag13
ag10
ag19
ag36
ag10
ag36
ag10
ag10
ag10
asS'till'
p2152
(lp2153
g13
ag10
ag19
ag19
ag13
ag19
ag10
ag22
ag10
ag19
ag10
ag10
ag10
ag10
asS'sword'
p2154
(lp2155
g19
asS'husbandry'
p2156
(lp2157
g19
ag19
asS'sworn'
p2158
(lp2159
g4
ag4
ag4
asS"eye's"
p2160
(lp2161
g19
ag19
ag10
asS'map'
p2162
(lp2163
g19
ag19
asS'mar'
p2164
(lp2165
g10
asS'where-through'
p2166
(lp2167
g76
asS'all-tyrant'
p2168
(lp2169
g13
asS'may'
p2170
(lp2171
S'MD'
p2172
ag2172
ag2172
ag2172
ag2172
ag2172
ag2172
ag2172
ag2172
ag2172
ag2172
ag2172
ag2172
ag2172
ag2172
ag2172
ag2172
ag2172
ag2172
ag2172
ag2172
ag2172
ag2172
ag2172
ag2172
ag2172
ag2172
asS'fed'
p2173
(lp2174
g4
asS'spot'
p2175
(lp2176
g20
asS'siren'
p2177
(lp2178
g13
asS'mad'
p2179
(lp2180
g19
ag19
ag19
ag13
ag13
ag13
asS'date'
p2181
(lp2182
S'NN'
p2183
ag2183
ag2183
ag2183
ag2183
asS'end'
p2184
(lp2185
g19
ag19
ag19
ag19
ag19
ag13
ag19
ag19
ag19
ag19
asS'hateth'
p2186
(lp2187
g21
asS'flourish'
p2188
(lp2189
g13
asS'grow'
p2190
(lp2191
g10
ag19
ag19
ag10
ag19
ag13
ag22
ag10
asS'man'
p2192
(lp2193
S'NN'
p2194
ag2194
ag2194
ag2194
ag2194
asS'temperate'
p2195
(lp2196
g13
asS'remember'
p2197
(lp2198
g10
ag10
asS'liquid'
p2199
(lp2200
g13
asS'candles'
p2201
(lp2202
g55
asS'rather'
p2203
(lp2204
S'RB'
p2205
asS'so'
p2206
(lp2207
g36
ag36
ag36
ag36
ag36
ag36
ag36
ag36
ag36
ag76
ag36
ag36
ag36
ag36
ag36
ag36
ag36
ag36
ag36
ag36
ag36
ag36
ag36
ag76
ag36
ag36
ag76
ag36
ag36
ag36
ag76
ag76
ag36
ag36
ag36
ag76
ag36
ag36
ag76
ag36
ag36
ag36
ag36
ag36
ag36
ag36
ag36
ag36
ag76
ag36
ag36
ag36
ag36
ag36
ag36
ag36
ag36
ag36
ag36
ag36
ag36
ag36
ag36
ag36
ag36
ag76
ag36
ag36
ag76
ag36
ag36
ag36
ag36
ag36
ag36
ag36
ag36
ag76
ag36
ag36
ag36
ag36
ag36
ag36
ag36
ag36
ag36
ag76
ag36
ag36
ag36
ag36
ag36
ag36
ag36
ag36
ag36
ag36
ag36
ag36
ag36
ag36
ag36
ag36
ag36
ag36
ag36
ag36
ag36
ag36
ag36
ag36
ag36
ag36
ag36
ag36
ag76
ag36
ag36
ag36
ag76
ag36
ag36
ag76
ag76
ag36
ag36
ag76
ag36
ag36
ag36
ag36
ag36
ag36
ag36
ag36
ag36
ag36
ag36
ag36
ag36
ag36
ag36
ag36
ag36
asS'silence'
p2208
(lp2209
g19
ag19
ag10
asS'deceive'
p2210
(lp2211
g13
ag13
asS'thorns'
p2212
(lp2213
g55
ag55
asS'tall'
p2214
(lp2215
g13
asS'increase'
p2216
(lp2217
g10
ag10
ag19
ag19
asS'forced'
p2218
(lp2219
g4
asS'serving'
p2220
(lp2221
g29
ag29
asS'receivest'
p2222
(lp2223
g19
asS'indeed'
p2224
(lp2225
S'RB'
p2226
asS'forfeit'
p2227
(lp2228
g19
ag19
asS'wishing'
p2229
(lp2230
g29
asS'years'
p2231
(lp2232
S'NNS'
p2233
ag2233
asS'course'
p2234
(lp2235
S'NN'
p2236
ag2236
ag2236
asS'pitch'
p2237
(lp2238
g19
ag19
asS'cold'
p2239
(lp2240
g13
ag13
ag19
ag13
ag19
ag22
ag13
asS'still'
p2241
(lp2242
S'RB'
p2243
ag2243
ag2243
ag2243
ag2243
ag2243
ag2243
ag2243
ag2243
ag2243
ag2243
ag2243
ag2243
ag2243
ag2243
ag2243
ag2243
ag2243
ag2243
ag2243
ag2243
ag2243
ag2243
ag2243
ag2243
ag2243
ag2243
ag2243
ag2243
ag2243
ag2243
ag2243
ag2243
ag2243
ag2243
ag2243
ag2243
ag2243
ag2243
asS'birds'
p2244
(lp2245
g55
ag55
ag55
asS'trifle'
p2246
(lp2247
g19
asS'limbs'
p2248
(lp2249
g55
ag55
asS'derive'
p2250
(lp2251
g22
asg463
(lp2252
S'up'
p2253
asS'thank'
p2254
(lp2255
g10
asS'acknowledge'
p2256
(lp2257
g19
asS'muses'
p2258
(lp2259
g55
asS'chips'
p2260
(lp2261
S'NNS'
p2262
asS'inferior'
p2263
(lp2264
g19
asS'curls'
p2265
(lp2266
g19
asS'maid'
p2267
(lp2268
g19
asS'tillage'
p2269
(lp2270
g19
asg194
(lp2271
S'not'
p2272
asS"play'st"
p2273
(lp2274
g19
asS'policy'
p2275
(lp2276
S'NN'
p2277
ag2277
asS"stol'n"
p2278
(lp2279
g19
ag4
asS'main'
p2280
(lp2281
S'JJ'
p2282
ag2282
ag2282
asS'into'
p2283
(lp2284
S'IN'
p2285
ag2285
ag2285
ag2285
ag2285
asS'correspondence'
p2286
(lp2287
g19
asS'closure'
p2288
(lp2289
g19
asS'truest'
p2290
(lp2291
g19
asS'equipage'
p2292
(lp2293
g19
asS'thereby'
p2294
(lp2295
g19
ag19
asS'sooner'
p2296
(lp2297
g19
ag19
asS'delighted'
p2298
(lp2299
g20
asS'records'
p2300
(lp2301
g55
asS'half'
p2302
(lp2303
g1224
ag762
ag19
asS'not'
p2304
(lp2305
S'RB'
p2306
ag2306
ag2306
ag2306
ag2306
ag2306
ag2306
ag2306
ag2306
ag2306
ag2306
ag2306
ag2306
ag2306
ag2306
ag2306
ag2306
ag2306
ag2306
ag2306
ag2306
ag2306
ag2306
ag2306
ag2306
ag2306
ag2306
ag2306
ag2306
ag2306
ag2306
ag2306
ag2306
ag2306
ag2306
ag2306
ag2306
ag2306
ag2306
ag2306
ag2306
ag2306
ag2306
ag2306
ag2306
ag2306
ag2306
ag2306
ag2306
ag2306
ag2306
ag2306
ag2306
ag2306
ag2306
ag2306
ag2306
ag2306
ag2306
ag2306
ag2306
ag2306
ag2306
ag2306
ag2306
ag2306
ag2306
ag2306
ag2306
ag2306
ag2306
ag2306
ag2306
ag2306
ag2306
ag2306
ag2306
ag2306
ag2306
ag2306
ag2306
ag2306
ag2306
ag2306
ag2306
ag2306
ag2306
ag2306
ag2306
ag2306
ag2306
ag2306
ag2306
ag2306
ag2306
ag2306
ag2306
ag2306
ag2306
ag2306
ag2306
ag2306
ag2306
ag2306
ag2306
ag2306
ag2306
ag2306
ag2306
ag2306
ag2306
ag2306
ag2306
ag2306
ag2306
ag2306
ag2306
ag2306
ag2306
ag2306
ag2306
ag2306
ag2306
ag2306
ag2306
ag2306
ag2306
ag2306
ag2306
ag2306
ag2306
ag2306
ag2306
ag2306
ag2306
ag2306
ag2306
ag2306
ag2306
ag2306
ag2306
ag2306
ag2306
ag2306
ag2306
ag2306
ag2306
ag2306
ag2306
ag2306
ag2306
ag2306
ag2306
ag2306
ag2306
ag2306
ag2306
ag2306
ag2306
ag2306
ag2306
ag2306
ag2306
ag2306
asS'now'
p2307
(lp2308
S'RB'
p2309
ag2309
ag2309
ag2309
ag2309
ag2309
ag2309
ag2309
ag2309
ag2309
ag2309
ag2309
ag2309
ag2309
ag2309
ag2309
ag2309
ag2309
ag2309
ag2309
ag2309
ag2309
ag2309
ag2309
ag2309
ag2309
ag2309
ag2309
ag2309
ag2309
ag2309
ag2309
ag2309
ag2309
ag2309
ag2309
ag2309
ag2309
ag2309
ag2309
ag2309
ag2309
ag2309
ag2309
ag2309
asS'twilight'
p2310
(lp2311
g19
asS'nor'
p2312
(lp2313
S'CC'
p2314
ag2314
ag2314
ag2314
ag2314
ag2314
ag2314
ag2314
ag2314
ag2314
ag2314
ag2314
ag2314
ag2314
ag2314
ag2314
ag2314
ag2314
ag2314
ag2314
ag2314
ag2314
ag2314
ag2314
ag2314
ag2314
ag2314
ag2314
ag2314
ag2314
ag2314
ag2314
ag2314
ag2314
ag2314
ag2314
ag2314
ag2314
ag2314
ag2314
ag2314
ag2314
ag2314
ag2314
ag2314
ag2314
ag2314
ag2314
ag2314
ag2314
asS'wont'
p2315
(lp2316
g13
asS'term'
p2317
(lp2318
S'NN'
p2319
asS'name'
p2320
(lp2321
g19
ag19
ag13
ag19
ag19
ag19
ag19
ag19
ag19
ag19
ag19
ag19
ag19
ag19
ag19
ag19
ag19
asS'servant'
p2322
(lp2323
g19
asS'uncertain'
p2324
(lp2325
g13
asS'drop'
p2326
(lp2327
g10
asS'breach'
p2328
(lp2329
g22
asS'veins'
p2330
(lp2331
g55
asS'orphans'
p2332
(lp2333
g55
asS'surfeit'
p2334
(lp2335
g13
asS"another's"
p2336
(lp2337
g19
ag19
ag19
asS'receipt'
p2338
(lp2339
g19
asS'richly'
p2340
(lp2341
g36
asS'fever'
p2342
(lp2343
g19
ag19
asS'farewell'
p2344
(lp2345
g19
asS'seeting'
p2346
(lp2347
g29
asS'year'
p2348
(lp2349
S'NN'
p2350
ag2350
ag2350
ag2350
ag2350
asS'hymns'
p2351
(lp2352
g22
ag19
asS'living'
p2353
(lp2354
g19
ag29
ag19
ag19
ag19
ag19
ag29
asS'shown'
p2355
(lp2356
S'VBN'
p2357
ag2357
asS'followed'
p2358
(lp2359
g20
asS'mouths'
p2360
(lp2361
g55
asS'space'
p2362
(lp2363
S'NN'
p2364
asS'profit'
p2365
(lp2366
g10
asS'confine'
p2367
(lp2368
g19
asS'abide'
p2369
(lp2370
g22
ag22
asS'looking'
p2371
(lp2372
S'VBG'
p2373
ag2373
ag2373
asS'boundless'
p2374
(lp2375
g13
asS'grecian'
p2376
(lp2377
g13
asS'receiving'
p2378
(lp2379
g29
asS'correct'
p2380
(lp2381
g10
asS'shows'
p2382
(lp2383
g21
ag21
ag55
ag21
ag21
ag55
asS'worthiness'
p2384
(lp2385
g13
asS'siege'
p2386
(lp2387
g19
asS'cars'
p2388
(lp2389
S'NNS'
p2390
asS'sweet-seasoned'
p2391
(lp2392
g13
asS'quite'
p2393
(lp2394
g36
ag36
ag19
ag36
ag36
asS'rebel'
p2395
(lp2396
g13
asS'plea'
p2397
(lp2398
g19
ag19
ag19
asS"feel'st"
p2399
(lp2400
g20
asS'care'
p2401
(lp2402
g10
ag19
ag19
ag19
ag19
ag19
asS'advance'
p2403
(lp2404
g19
asS"age's"
p2405
(lp2406
g10
ag13
asS'embassage'
p2407
(lp2408
g19
asS'contented'
p2409
(lp2410
g4
ag4
ag4
asS"wand'rest"
p2411
(lp2412
g52
asS'honest'
p2413
(lp2414
g52
asS'motion'
p2415
(lp2416
g19
ag19
ag19
ag19
ag19
asS'thing'
p2417
(lp2418
S'NN'
p2419
ag2419
ag2419
ag2419
ag2419
ag2419
ag2419
ag2419
ag2419
ag2419
ag2419
ag2419
asS'thine'
p2420
(lp2421
g10
ag13
ag13
ag19
ag13
ag13
ag19
ag10
ag19
ag19
ag19
ag19
ag19
ag13
ag13
ag19
ag21
ag13
ag19
ag19
ag13
ag19
ag13
ag13
ag19
ag19
ag13
ag76
ag10
ag13
ag19
ag19
ag22
ag13
ag19
ag13
ag19
ag13
ag19
ag13
ag19
ag19
ag13
ag13
asS'place'
p2422
(lp2423
g19
ag19
ag19
ag19
ag19
ag19
ag19
ag22
ag19
ag19
asS'recompense'
p2424
(lp2425
g19
asS'sufferance'
p2426
(lp2427
g10
asS'widow'
p2428
(lp2429
g19
ag19
asS'warning'
p2430
(lp2431
g19
asS'think'
p2432
(lp2433
g22
ag22
ag22
ag10
ag19
ag22
ag10
ag22
ag22
ag22
ag22
ag10
ag22
ag10
ag10
asS'frequent'
p2434
(lp2435
g4
asS'first'
p2436
(lp2437
g36
ag13
ag36
ag13
ag13
ag36
ag13
ag13
ag13
ag13
ag13
ag13
asS'blind'
p2438
(lp2439
g19
ag13
ag13
ag76
ag76
ag36
asS'mayst'
p2440
(lp2441
g19
ag19
ag19
ag19
ag19
ag19
ag19
ag19
ag55
ag19
ag19
ag55
asS'waves'
p2442
(lp2443
g55
asS'one'
p2444
(lp2445
g943
ag943
ag943
ag943
ag943
ag943
ag943
ag943
ag943
ag943
ag943
ag943
ag943
ag943
ag943
ag19
ag943
ag943
ag943
ag943
ag943
ag943
ag943
ag943
ag943
ag943
ag943
ag943
ag943
ag943
ag943
ag943
ag943
ag943
ag943
ag943
ag943
ag943
ag943
ag943
ag943
ag943
asS'nativity'
p2446
(lp2447
g19
asS'consecrate'
p2448
(lp2449
g19
asS'long'
p2450
(lp2451
g36
ag36
ag36
ag36
ag13
ag13
ag36
ag36
ag36
ag36
ag36
asS'directly'
p2452
(lp2453
S'RB'
p2454
asS'habitation'
p2455
(lp2456
g19
asS'carry'
p2457
(lp2458
g10
asS'ill-used'
p2459
(lp2460
g13
asS'sounds'
p2461
(lp2462
g55
ag21
asS'tame'
p2463
(lp2464
g19
asS'open'
p2465
(lp2466
g13
ag13
asS'affords'
p2467
(lp2468
g55
ag55
asS'millions'
p2469
(lp2470
S'NNS'
p2471
asS'interchange'
p2472
(lp2473
g19
asS'little'
p2474
(lp2475
g13
ag13
asS'checked'
p2476
(lp2477
g4
ag4
asS'silent'
p2478
(lp2479
g13
ag13
asS'breed'
p2480
(lp2481
g10
ag4
asS'fiery'
p2482
(lp2483
g19
asS'bounty'
p2484
(lp2485
g19
ag19
asS'white'
p2486
(lp2487
S'JJ'
p2488
ag2488
ag2488
ag2488
ag2488
asS"tiger's"
p2489
(lp2490
g19
asS'speaking'
p2491
(lp2492
g19
ag19
ag19
ag29
asS'gives'
p2493
(lp2494
S'VBZ'
p2495
ag2495
ag2495
ag2495
ag2495
ag2495
ag2495
ag2495
asS'gaudy'
p2496
(lp2497
g19
asS'eyes'
p2498
(lp2499
g55
ag55
ag55
ag55
ag55
ag55
ag55
ag55
ag55
ag55
ag55
ag55
ag55
ag55
ag10
ag55
ag10
ag55
ag55
ag55
ag55
ag55
ag55
ag55
ag55
ag55
ag55
ag21
ag55
ag55
ag55
ag55
ag55
ag55
ag55
ag55
ag55
ag55
ag55
ag55
ag55
ag55
ag55
ag55
ag55
ag55
ag21
ag55
ag55
ag55
ag55
ag55
asS'pomp'
p2500
(lp2501
g19
asS'blazon'
p2502
(lp2503
g19
asS'that'
p2504
(lp2505
g1224
ag76
ag392
ag392
ag76
ag76
ag392
ag392
ag392
ag392
ag76
ag1224
ag76
ag392
ag1224
ag392
ag76
ag76
ag76
ag1224
ag76
ag76
ag392
ag76
ag76
ag76
ag392
ag392
ag76
ag392
ag76
ag76
ag1224
ag1224
ag76
ag76
ag76
ag1224
ag76
ag1224
ag76
ag76
ag1224
ag392
ag76
ag392
ag1224
ag392
ag76
ag76
ag76
ag1224
ag1224
ag76
ag76
ag76
ag1224
ag76
ag1224
ag76
ag392
ag76
ag76
ag76
ag76
ag392
ag76
ag392
ag392
ag1224
ag1224
ag76
ag76
ag76
ag76
ag392
ag76
ag76
ag76
ag1224
ag76
ag76
ag1224
ag1224
ag1224
ag76
ag1224
ag1224
ag1224
ag1224
ag76
ag76
ag392
ag1224
ag1224
ag1224
ag1224
ag392
ag76
ag1224
ag1224
ag1224
ag76
ag76
ag392
ag1224
ag76
ag392
ag76
ag1224
ag76
ag76
ag1224
ag392
ag392
ag392
ag76
ag76
ag76
ag1224
ag1224
ag76
ag1224
ag76
ag76
ag76
ag392
ag392
ag76
ag392
ag76
ag392
ag76
ag392
ag76
ag76
ag392
ag1224
ag1224
ag392
ag392
ag1224
ag1224
ag1224
ag1224
ag76
ag1224
ag76
ag392
ag392
ag1224
ag76
ag1224
ag76
ag1224
ag76
ag392
ag76
ag1224
ag76
ag392
ag76
ag76
ag1224
ag76
ag76
ag76
ag392
ag1224
ag76
ag392
ag1224
ag76
ag1224
ag392
ag1224
ag1224
ag1224
ag76
ag1224
ag76
ag392
ag392
ag1224
ag76
ag76
ag392
ag76
ag392
ag76
ag392
ag392
ag76
ag1224
ag76
ag76
ag76
ag76
ag76
ag76
ag76
ag76
ag1224
ag76
ag76
ag392
ag76
ag76
ag392
ag76
ag76
ag392
ag76
ag76
ag76
ag76
ag76
ag76
ag76
ag76
ag76
ag392
ag76
ag1224
ag392
ag76
ag76
ag76
ag76
ag392
ag76
ag76
ag76
ag1224
ag392
ag76
ag76
ag1224
ag76
ag76
ag392
ag76
ag392
ag76
ag76
ag76
ag76
ag1224
ag392
ag392
ag76
ag392
ag76
ag76
ag76
ag392
ag76
ag392
ag392
ag76
ag76
ag392
ag1224
ag392
ag76
ag76
ag1224
ag392
ag392
ag76
ag1224
ag1224
ag76
ag76
ag392
ag76
ag76
ag76
ag76
ag76
ag76
ag76
ag76
ag76
ag392
ag76
ag392
ag392
ag76
ag1224
ag1224
ag76
ag1224
ag392
ag392
ag76
ag76
ag76
ag392
ag1224
ag392
ag1224
ag1224
ag76
ag76
ag1224
ag1224
ag76
ag76
ag392
ag392
ag76
ag76
ag76
ag76
ag76
ag1224
ag392
ag76
ag1224
asS'brains'
p2506
(lp2507
g55
asg762
(lp2508
g1999
asS'proving'
p2509
(lp2510
g29
asS'hurt'
p2511
(lp2512
g10
asS'alas'
p2513
(lp2514
g13
ag55
asS'eyed'
p2515
(lp2516
g20
asS'girded'
p2517
(lp2518
g20
asS'reproving'
p2519
(lp2520
g29
asS'flowers'
p2521
(lp2522
g55
ag55
ag55
ag55
ag55
ag55
ag55
asS'than'
p2523
(lp2524
S'IN'
p2525
ag2525
ag2525
ag2525
ag2525
ag2525
ag2525
ag2525
ag2525
ag2525
ag2525
ag2525
ag2525
ag2525
ag2525
ag2525
ag2525
ag2525
ag2525
ag2525
ag2525
ag2525
ag2525
ag2525
ag2525
ag2525
ag2525
ag2525
ag2525
ag2525
ag2525
ag2525
ag2525
ag2525
ag2525
ag2525
ag2525
ag2525
ag2525
ag2525
ag2525
ag2525
ag2525
ag2525
ag2525
ag2525
ag2525
ag2525
asS"stick'st"
p2526
(lp2527
g21
asS'wide'
p2528
(lp2529
S'JJ'
p2530
ag2530
ag2530
ag2530
ag2530
ag2530
ag2530
asS'wert'
p2531
(lp2532
g19
ag19
ag13
asS'require'
p2533
(lp2534
g22
asS'folly'
p2535
(lp2536
g36
ag36
asS'transferred'
p2537
(lp2538
g20
asS'were'
p2539
(lp2540
S'VBD'
p2541
ag2541
ag2541
ag2541
ag2541
ag2541
ag2541
ag2541
ag2541
ag2541
ag2541
ag2541
ag2541
ag2541
ag2541
ag2541
ag2541
ag2541
ag2541
ag2541
ag2541
ag2541
ag2541
ag2541
ag2541
ag2541
ag2541
ag2541
ag2541
asS'carcanet'
p2542
(lp2543
g19
asS'and'
p2544
(lp2545
S'CC'
p2546
ag2546
ag2546
ag2546
ag2546
ag2546
ag2546
ag2546
ag2546
ag2546
ag2546
ag2546
ag2546
ag2546
ag2546
ag2546
ag2546
ag2546
ag2546
ag2546
ag2546
ag2546
ag2546
ag2546
ag2546
ag2546
ag2546
ag2546
ag2546
ag2546
ag2546
ag2546
ag2546
ag2546
ag2546
ag2546
ag2546
ag2546
ag2546
ag2546
ag2546
ag2546
ag2546
ag2546
ag2546
ag2546
ag2546
ag2546
ag2546
ag2546
ag2546
ag2546
ag2546
ag2546
ag2546
ag2546
ag2546
ag2546
ag2546
ag2546
ag2546
ag2546
ag2546
ag2546
ag2546
ag2546
ag2546
ag2546
ag2546
ag2546
ag2546
ag2546
ag2546
ag2546
ag2546
ag2546
ag2546
ag2546
ag2546
ag2546
ag2546
ag2546
ag2546
ag2546
ag2546
ag2546
ag2546
ag2546
ag2546
ag2546
ag2546
ag2546
ag2546
ag2546
ag2546
ag2546
ag2546
ag2546
ag2546
ag2546
ag2546
ag2546
ag2546
ag2546
ag2546
ag2546
ag2546
ag2546
ag2546
ag2546
ag2546
ag2546
ag2546
ag2546
ag2546
ag2546
ag2546
ag2546
ag2546
ag2546
ag2546
ag2546
ag2546
ag2546
ag2546
ag2546
ag2546
ag2546
ag2546
ag2546
ag2546
ag2546
ag2546
ag2546
ag2546
ag2546
ag2546
ag2546
ag2546
ag2546
ag2546
ag2546
ag2546
ag2546
ag2546
ag2546
ag2546
ag2546
ag2546
ag2546
ag2546
ag2546
ag2546
ag2546
ag2546
ag2546
ag2546
ag2546
ag2546
ag2546
ag2546
ag2546
ag2546
ag2546
ag2546
ag2546
ag2546
ag2546
ag2546
ag2546
ag2546
ag2546
ag2546
ag2546
ag2546
ag2546
ag2546
ag2546
ag2546
ag2546
ag2546
ag2546
ag2546
ag2546
ag2546
ag2546
ag2546
ag2546
ag2546
ag2546
ag2546
ag2546
ag2546
ag2546
ag2546
ag2546
ag2546
ag2546
ag2546
ag2546
ag2546
ag2546
ag2546
ag2546
ag2546
ag2546
ag2546
ag2546
ag2546
ag2546
ag2546
ag2546
ag2546
ag2546
ag2546
ag2546
ag2546
ag2546
ag2546
ag2546
ag2546
ag2546
ag2546
ag2546
ag2546
ag2546
ag2546
ag2546
ag2546
ag2546
ag2546
ag2546
ag2546
ag2546
ag2546
ag2546
ag2546
ag2546
ag2546
ag2546
ag2546
ag2546
ag2546
ag2546
ag2546
ag2546
ag2546
ag2546
ag2546
ag2546
ag2546
ag2546
ag2546
ag2546
ag2546
ag2546
ag2546
ag2546
ag2546
ag2546
ag2546
ag2546
ag2546
ag2546
ag2546
ag2546
ag2546
ag2546
ag2546
ag2546
ag2546
ag2546
ag2546
ag2546
ag2546
ag2546
ag2546
ag2546
ag2546
ag2546
ag2546
ag2546
ag2546
ag2546
ag2546
ag2546
ag2546
ag2546
ag2546
ag2546
ag2546
ag2546
ag2546
ag2546
ag2546
ag2546
ag2546
ag2546
ag2546
ag2546
ag2546
ag2546
ag2546
ag2546
ag2546
ag2546
ag2546
ag2546
ag2546
ag2546
ag2546
ag2546
ag2546
ag2546
ag2546
ag2546
ag2546
ag2546
ag2546
ag2546
ag2546
ag2546
ag2546
ag2546
ag2546
ag2546
ag2546
ag2546
ag2546
ag2546
ag2546
ag2546
ag2546
ag2546
ag2546
ag2546
ag2546
ag2546
ag2546
ag2546
ag2546
ag2546
ag2546
ag2546
ag2546
ag2546
ag2546
ag2546
ag2546
ag2546
ag2546
ag2546
ag2546
ag2546
ag2546
ag2546
ag2546
ag2546
ag2546
ag2546
ag2546
ag2546
ag2546
ag2546
ag2546
ag2546
ag2546
ag2546
ag2546
ag2546
ag2546
ag2546
ag2546
ag2546
ag2546
ag2546
ag2546
ag2546
ag2546
ag2546
ag2546
ag2546
ag2546
ag2546
ag2546
ag2546
ag2546
ag2546
ag2546
ag2546
ag2546
ag2546
ag2546
ag2546
ag2546
ag2546
ag2546
ag2546
ag2546
ag2546
ag2546
ag2546
ag2546
ag2546
ag2546
ag2546
ag2546
ag2546
ag2546
ag2546
ag2546
ag2546
ag2546
ag2546
ag2546
ag2546
ag2546
ag2546
ag2546
ag2546
ag2546
ag2546
ag2546
ag2546
ag2546
ag2546
ag2546
ag2546
ag2546
ag2546
ag2546
ag2546
ag2546
ag2546
ag2546
ag2546
ag2546
ag2546
ag2546
ag2546
ag2546
ag2546
ag2546
ag2546
ag2546
ag2546
ag2546
ag2546
ag2546
ag2546
ag2546
ag2546
ag2546
ag2546
ag2546
ag2546
ag2546
ag2546
ag2546
ag2546
ag2546
ag2546
ag2546
ag2546
ag2546
ag2546
ag2546
ag2546
ag2546
ag2546
ag2546
ag2546
ag2546
ag2546
ag2546
ag2546
ag2546
ag2546
ag2546
ag2546
ag2546
ag2546
ag2546
ag2546
ag2546
asS'desperate'
p2547
(lp2548
g22
asS'angel'
p2549
(lp2550
g19
ag19
ag19
ag19
ag19
asS'slay'
p2551
(lp2552
g10
asS'correction'
p2553
(lp2554
g19
asS'confessed'
p2555
(lp2556
g4
asS'turned'
p2557
(lp2558
g4
ag4
asS'argument'
p2559
(lp2560
g19
ag19
ag13
ag19
ag19
ag19
asS'jewels'
p2561
(lp2562
g55
ag55
asS'sad'
p2563
(lp2564
g13
ag13
ag13
ag13
ag13
ag13
ag13
asS'entombed'
p2565
(lp2566
g22
asS'say'
p2567
(lp2568
g10
ag22
ag10
ag10
ag10
ag10
ag22
ag10
ag10
ag22
ag22
ag10
ag22
ag22
ag22
ag22
ag22
ag22
ag22
ag22
ag10
ag10
ag22
ag10
ag19
ag22
ag10
ag22
asS'perfumes'
p2569
(lp2570
g55
ag55
asS'buried'
p2571
(lp2572
g4
ag20
ag4
ag4
ag4
asS'foiled'
p2573
(lp2574
g4
asS'anger'
p2575
(lp2576
g13
asg1224
(lp2577
S'that'
p2578
asS'sap'
p2579
(lp2580
g21
ag19
asS'pry'
p2581
(lp2582
g10
asS'any'
p2583
(lp2584
S'DT'
p2585
ag2585
ag2585
ag2585
ag2585
ag2585
ag2585
ag2585
ag2585
ag2585
ag2585
asS'jacks'
p2586
(lp2587
g55
ag55
asS'sport'
p2588
(lp2589
g19
ag19
asS'defaced'
p2590
(lp2591
g20
asS'mourners'
p2592
(lp2593
g55
ag55
asS'aside'
p2594
(lp2595
g36
ag76
asS'note'
p2596
(lp2597
g19
ag22
asS'wretch'
p2598
(lp2599
g19
ag19
asS'take'
p2600
(lp2601
g22
ag19
ag10
ag10
ag10
ag22
ag10
ag22
ag10
ag10
ag10
ag22
ag10
asS'resembling'
p2602
(lp2603
g29
ag29
asS'green'
p2604
(lp2605
g13
ag13
ag13
ag13
ag13
asS'blunt'
p2606
(lp2607
g19
ag19
ag19
asS'flattered'
p2608
(lp2609
g20
asS'urge'
p2610
(lp2611
g19
ag19
asS'begin'
p2612
(lp2613
g10
asS'sure'
p2614
(lp2615
g13
ag19
ag13
asS'pain'
p2616
(lp2617
g19
ag19
ag19
ag19
ag22
asS'busy'
p2618
(lp2619
g13
asS'tallies'
p2620
(lp2621
g55
asS'knew'
p2622
(lp2623
g20
asS'clearer'
p2624
(lp2625
g19
ag19
asS'paid'
p2626
(lp2627
g4
asS'remover'
p2628
(lp2629
g19
asS'unkindness'
p2630
(lp2631
g13
ag13
asS'staineth'
p2632
(lp2633
g20
asS'flatterer'
p2634
(lp2635
g10
asS'tract'
p2636
(lp2637
g19
asS'palate'
p2638
(lp2639
g19
ag13
asS'winters'
p2640
(lp2641
g55
ag55
asS'garments'
p2642
(lp2643
g55
asS'proud'
p2644
(lp2645
g13
ag13
ag13
ag19
ag13
ag13
ag13
ag13
ag13
ag13
ag13
ag19
asS"travel's"
p2646
(lp2647
g13
asS'wing'
p2648
(lp2649
g19
asS"perfect'st"
p2650
(lp2651
g19
asS'sunset'
p2652
(lp2653
g19
asS'amis'
p2654
(lp2655
g76
asS'glutton'
p2656
(lp2657
g19
asS'perfumed'
p2658
(lp2659
g13
asS'sourest'
p2660
(lp2661
g4
asS'buriest'
p2662
(lp2663
g52
asS'shop'
p2664
(lp2665
g19
asS'show'
p2666
(lp2667
g22
ag10
ag10
ag10
ag10
ag19
ag10
ag22
ag19
ag10
ag10
ag10
ag22
ag19
ag10
ag19
ag10
ag19
ag10
ag19
ag10
ag19
ag10
asS'cheap'
p2668
(lp2669
g13
asS'merit'
p2670
(lp2671
g19
ag19
ag19
ag19
ag21
asS'trespass'
p2672
(lp2673
g19
ag19
asS'bright'
p2674
(lp2675
g13
ag13
ag13
ag19
ag19
ag4
ag13
ag13
ag13
ag36
ag19
asg1801
(lp2676
S'who'
p2677
asS'untold'
p2678
(lp2679
g13
asS'conquered'
p2680
(lp2681
g13
asS'ground'
p2682
(lp2683
g19
ag19
ag19
asS'slow'
p2684
(lp2685
g13
ag13
ag10
ag76
asS'woos'
p2686
(lp2687
g21
asS'unkind'
p2688
(lp2689
g13
ag13
ag13
asS'stormy'
p2690
(lp2691
g13
asS'title'
p2692
(lp2693
g19
ag19
asS'treasure'
p2694
(lp2695
g19
ag19
ag19
ag19
ag19
ag19
ag19
ag19
asS'robs'
p2696
(lp2697
g22
ag21
asS'written'
p2698
(lp2699
S'VBN'
p2700
asS'crime'
p2701
(lp2702
S'NN'
p2703
ag2703
ag2703
ag2703
asS'tears'
p2704
(lp2705
g55
ag55
ag55
ag55
ag55
asS'going'
p2706
(lp2707
S'VBG'
p2708
asS'black'
p2709
(lp2710
S'JJ'
p2711
ag2711
ag2711
ag2711
ag2711
ag2711
ag2711
ag2711
ag2711
ag2711
ag2711
ag2711
ag2711
asS'partake'
p2712
(lp2713
g22
asS'stain'
p2714
(lp2715
g10
ag22
ag19
asS'wilfully'
p2716
(lp2717
g36
asS'hindmost'
p2718
(lp2719
g19
asS'get'
p2720
(lp2721
g22
asS"'tis"
p2722
(lp2723
g579
ag954
ag943
ag943
ag13
ag1700
ag579
ag76
ag579
ag76
ag10
ag579
asS'limbecks'
p2724
(lp2725
g55
asS'truly'
p2726
(lp2727
g36
ag10
ag36
ag36
ag36
asS'cannot'
p2728
(lp2729
g21
ag22
ag19
ag22
ag19
ag19
ag55
ag19
ag22
ag19
asS'nearly'
p2730
(lp2731
S'RB'
p2732
asS'dye'
p2733
(lp2734
g19
asS'prime'
p2735
(lp2736
g13
ag13
ag13
ag13
asS'seldom'
p2737
(lp2738
g13
ag19
asS'yield'
p2739
(lp2740
g10
ag19
asS'morning'
p2741
(lp2742
S'NN'
p2743
ag2743
asS'naked'
p2744
(lp2745
g4
asS'miles'
p2746
(lp2747
S'NNS'
p2748
ag2748
asS'where'
p2749
(lp2750
S'WRB'
p2751
ag2751
ag2751
ag2751
ag2751
ag2751
ag2751
ag2751
ag2751
ag2751
ag2751
ag2751
ag2751
ag2751
ag2751
ag2751
ag2751
ag2751
ag2751
ag2751
ag2751
ag2751
ag2751
ag2751
ag2751
ag2751
ag2751
ag2751
ag2751
ag2751
ag2751
ag2751
ag2751
ag2751
ag2751
ag2751
ag2751
ag2751
ag2751
ag2751
asS'husband'
p2752
(lp2753
g19
ag19
ag19
asS"monarch's"
p2754
(lp2755
g19
asS'committed'
p2756
(lp2757
g20
asS'up'
p2758
(lp2759
g463
ag463
ag463
ag463
ag463
ag463
ag463
ag463
ag463
ag463
ag463
ag463
ag463
ag463
asS"fortune's"
p2760
(lp2761
g13
ag19
ag10
asS'asleep'
p2762
(lp2763
g36
ag13
asS'expiate'
p2764
(lp2765
g10
asS'successive'
p2766
(lp2767
g13
asS'seal'
p2768
(lp2769
g19
asS'salutation'
p2770
(lp2771
g19
asS'ruined'
p2772
(lp2773
g4
ag4
asS'prayers'
p2774
(lp2775
g55
asS'purest'
p2776
(lp2777
g19
asS'wonder'
p2778
(lp2779
g19
ag19
ag10
asS'invoked'
p2780
(lp2781
g4
asS'tongue-tied'
p2782
(lp2783
g13
ag13
ag13
ag13
asS'compounds'
p2784
(lp2785
g55
ag55
asS'crooked'
p2786
(lp2787
g13
ag13
asS'review'
p2788
(lp2789
g22
asS'amen'
p2790
(lp2791
g55
asS'ornament'
p2792
(lp2793
g19
ag19
ag19
ag19
ag19
asS'behind'
p2794
(lp2795
g463
ag76
ag76
ag76
asS'departest'
p2796
(lp2797
g19
asS'complexion'
p2798
(lp2799
g19
ag19
asS'sable'
p2800
(lp2801
g13
asS'import'
p2802
(lp2803
g10
asS'enjoys'
p2804
(lp2805
g21
asS'presage'
p2806
(lp2807
g19
asS'untainted'
p2808
(lp2809
g13
asS'forsake'
p2810
(lp2811
g10
ag10
asS'lays'
p2812
(lp2813
g55
ag55
ag55
ag55
asS'discloses'
p2814
(lp2815
g55
asS'pluck'
p2816
(lp2817
g19
ag20
ag20
asS'blame'
p2818
(lp2819
g10
ag10
ag10
ag13
asS'faults'
p2820
(lp2821
g55
ag55
ag55
ag55
ag10
ag55
ag55
ag55
asS'countenance'
p2822
(lp2823
g19
asS'reigns'
p2824
(lp2825
g55
asS'profitless'
p2826
(lp2827
g19
asS'come'
p2828
(lp2829
g10
ag10
ag22
ag19
ag10
ag13
ag10
ag22
ag22
ag10
ag22
ag10
ag4
ag22
ag10
asS'grieved'
p2830
(lp2831
g4
asS'dates'
p2832
(lp2833
g55
asS'many'
p2834
(lp2835
S'JJ'
p2836
ag2836
ag2836
ag2836
ag2836
ag2836
ag2836
ag2836
ag2836
ag2836
ag2836
ag2836
ag2836
asS'region'
p2837
(lp2838
S'NN'
p2839
asS'quiet'
p2840
(lp2841
g13
asS'dwellers'
p2842
(lp2843
g55
asS'awards'
p2844
(lp2845
g55
asS"sea's"
p2846
(lp2847
g19
asS'duty'
p2848
(lp2849
g19
ag19
ag19
asS'among'
p2850
(lp2851
S'IN'
p2852
ag2852
ag2852
asS'unthrifts'
p2853
(lp2854
g13
asS'madness'
p2855
(lp2856
g19
asS'spoil'
p2857
(lp2858
g19
asS'unthrifty'
p2859
(lp2860
g13
asS'lace'
p2861
(lp2862
g10
asS'swerving'
p2863
(lp2864
g29
asS'dispatch'
p2865
(lp2866
g19
asS'slain'
p2867
(lp2868
g13
ag19
asS'stretched'
p2869
(lp2870
g20
asS'learning'
p2871
(lp2872
g13
ag29
asS'proved'
p2873
(lp2874
g20
ag20
ag20
asS'hounds'
p2875
(lp2876
g21
asS'boat'
p2877
(lp2878
g19
asS'doctor-like'
p2879
(lp2880
g13
asS'arts'
p2881
(lp2882
g55
asS'self-doing'
p2883
(lp2884
g13
asS'west'
p2885
(lp2886
g10
ag19
ag19
asS'dross'
p2887
(lp2888
g19
asS'mark'
p2889
(lp2890
g19
ag19
ag13
ag19
asS'breath'
p2891
(lp2892
g22
ag19
ag19
ag19
ag19
asS'subscribes'
p2893
(lp2894
g10
asS"self's"
p2895
(lp2896
g19
asS'mars'
p2897
(lp2898
g55
asS'informer'
p2899
(lp2900
g393
asS'straying'
p2901
(lp2902
g29
asS'robbed'
p2903
(lp2904
g4
asS'thousand'
p2905
(lp2906
g13
ag13
ag13
asS'blessing'
p2907
(lp2908
g19
asS'nobler'
p2909
(lp2910
g13
asS'wake'
p2911
(lp2912
g19
asS'external'
p2913
(lp2914
g13
asS'frantic-mad'
p2915
(lp2916
g13
asS'masonry'
p2917
(lp2918
g55
asS'careful'
p2919
(lp2920
g19
ag13
asS'deceivest'
p2921
(lp2922
g19
asS'those'
p2923
(lp2924
S'DT'
p2925
ag2925
ag2925
ag2925
ag2925
ag2925
ag2925
ag2925
ag2925
ag2925
ag2925
ag2925
ag2925
ag2925
ag2925
ag2925
ag2925
ag2925
ag2925
ag2925
ag2925
ag2925
ag2925
ag2925
ag2925
ag2925
ag2925
ag2925
ag2925
ag2925
ag2925
ag2925
ag2925
asS'case'
p2926
(lp2927
S'NN'
p2928
ag2928
ag2928
asS'clears'
p2929
(lp2930
g55
asS'profane'
p2931
(lp2932
g19
asS'scarlet'
p2933
(lp2934
g19
asS'these'
p2935
(lp2936
S'DT'
p2937
ag2937
ag2937
ag2937
ag2937
ag2937
ag2937
ag2937
ag2937
ag2937
ag2937
ag2937
ag2937
ag2937
ag2937
ag2937
ag2937
ag2937
ag2937
ag2937
ag2937
ag2937
asS'sheaves'
p2938
(lp2939
g55
asS'compile'
p2940
(lp2941
g22
asS'cast'
p2942
(lp2943
g20
ag4
asS'proves'
p2944
(lp2945
g55
ag21
asS'cancelled'
p2946
(lp2947
g4
asS'situation'
p2948
(lp2949
S'NN'
p2950
asS'endured'
p2951
(lp2952
g20
asS'fool'
p2953
(lp2954
g19
ag19
ag13
asS'endowed'
p2955
(lp2956
g20
asS'brow'
p2957
(lp2958
g19
ag19
ag19
ag19
ag19
ag19
ag19
ag19
asS'gluttoning'
p2959
(lp2960
g29
asS'middle'
p2961
(lp2962
g13
asS'limping'
p2963
(lp2964
g29
asS'return'
p2965
(lp2966
g19
ag19
ag19
ag22
ag22
ag22
asS'fame'
p2967
(lp2968
g19
ag10
ag19
asS'different'
p2969
(lp2970
S'JJ'
p2971
asS'harsh'
p2972
(lp2973
g19
asS"tyrants'"
p2974
(lp2975
g19
asS'strains'
p2976
(lp2977
g55
asS'pay'
p2978
(lp2979
g22
ag19
ag19
asS'same'
p2980
(lp2981
S'JJ'
p2982
ag2982
ag2982
ag2982
ag2982
ag2982
asS'check'
p2983
(lp2984
g19
ag19
asS'shifts'
p2985
(lp2986
g55
asS'distilled'
p2987
(lp2988
g20
ag4
ag4
asS'figures'
p2989
(lp2990
g55
asS'ladies'
p2991
(lp2992
g55
asS"'truth"
p2993
(lp2994
g943
asS'wires'
p2995
(lp2996
g55
ag55
asS'faculty'
p2997
(lp2998
g4
asS'sickness'
p2999
(lp3000
g19
asS'tyrannous'
p3001
(lp3002
g13
asS'defy'
p3003
(lp3004
g19
asS'weed'
p3005
(lp3006
g19
ag19
ag19
asS'fruit'
p3007
(lp3008
g19
asS'scorned'
p3009
(lp3010
g4
asS'IN'
p3011
(lp3012
S'by'
p3013
asS'extern'
p3014
(lp3015
g13
asS'changing'
p3016
(lp3017
g29
ag29
asS'weep'
p3018
(lp3019
g10
ag13
ag10
asS"slander's"
p3020
(lp3021
g13
asS'vowed'
p3022
(lp3023
g20
asS'vantage'
p3024
(lp3025
g19
asS'dear-purchased'
p3026
(lp3027
g13
asS'throned'
p3028
(lp3029
g13
asS'random'
p3030
(lp3031
g19
asS'vacant'
p3032
(lp3033
g13
asS'without'
p3034
(lp3035
S'IN'
p3036
ag3036
ag3036
ag3036
ag3036
ag3036
ag3036
ag3036
asS'relief'
p3037
(lp3038
g19
asS'charged'
p3039
(lp3040
g4
asS'distills'
p3041
(lp3042
g21
asS'summer'
p3043
(lp3044
S'NN'
p3045
ag3045
ag3045
ag3045
ag3045
ag3045
ag3045
ag3045
asS'ransoms'
p3046
(lp3047
g19
asS'being'
p3048
(lp3049
S'VBG'
p3050
ag3050
ag3050
ag3050
ag3050
ag3050
ag3050
ag3050
ag3050
ag3050
ag3050
ag3050
ag3050
ag3050
ag3050
ag3050
ag3050
ag3050
ag3050
ag3050
ag3050
ag3050
ag3050
ag3050
ag3050
ag3050
ag3050
ag3050
ag3050
ag3050
ag3050
ag3050
asS'excel'
p3051
(lp3052
g55
asS'compound'
p3053
(lp3054
g19
asS'shamefully'
p3055
(lp3056
g36
asS'rest'
p3057
(lp3058
g19
ag19
ag19
ag19
ag19
ag19
asS'imprint'
p3059
(lp3060
g19
asS'bareness'
p3061
(lp3062
g19
ag19
asS'cease'
p3063
(lp3064
g10
asS'disperse'
p3065
(lp3066
g19
asS'aspect'
p3067
(lp3068
g19
asS'touch'
p3069
(lp3070
g10
asS'speed'
p3071
(lp3072
g4
ag22
ag19
asS'guides'
p3073
(lp3074
g21
asS'afterwards'
p3075
(lp3076
g10
asS'blow'
p3077
(lp3078
g19
asS'blot'
p3079
(lp3080
g10
ag19
ag19
asS'unwooed'
p3081
(lp3082
g13
asS'charactered'
p3083
(lp3084
g4
asS'thinking'
p3085
(lp3086
g19
ag29
ag29
asS'rose'
p3087
(lp3088
S'VBD'
p3089
ag3089
ag3089
ag3089
ag3089
ag3089
asS'seems'
p3090
(lp3091
S'VBZ'
p3092
ag3092
asS"summer's"
p3093
(lp3094
g13
ag19
ag13
ag10
ag13
ag36
ag10
ag19
ag13
ag13
ag13
asS"summers'"
p3095
(lp3096
g19
asS'verse'
p3097
(lp3098
g19
ag13
ag19
ag13
ag19
ag13
ag19
ag19
ag19
ag19
ag19
ag19
ag19
ag19
ag19
asS'suppressed'
p3099
(lp3100
g20
asS'worthier'
p3101
(lp3102
g19
asS'throw'
p3103
(lp3104
g22
asS'dully'
p3105
(lp3106
g36
asS'bond'
p3107
(lp3108
S'NN'
p3109
asS'valley-fountain'
p3110
(lp3111
g19
asS'struck'
p3112
(lp3113
g20
asS'kingdom'
p3114
(lp3115
g19
asS'frown'
p3116
(lp3117
g19
ag4
ag13
asS'kills'
p3118
(lp3119
g55
asS'read'
p3120
(lp3121
g22
ag10
ag20
ag22
ag22
asS'offence'
p3122
(lp3123
g19
ag19
asS'sums'
p3124
(lp3125
g55
asS'dart'
p3126
(lp3127
g10
asS'basest'
p3128
(lp3129
g52
ag52
ag52
asS'traffic'
p3130
(lp3131
S'NN'
p3132
asS'confined'
p3133
(lp3134
g20
ag4
ag4
asS'world'
p3135
(lp3136
S'NN'
p3137
ag3137
ag3137
ag3137
ag3137
ag3137
ag3137
ag3137
ag3137
ag3137
ag3137
ag3137
ag3137
ag3137
ag3137
ag3137
ag3137
ag3137
ag3137
ag3137
ag3137
ag3137
ag3137
ag3137
ag3137
ag3137
ag3137
asS'reap'
p3138
(lp3139
g19
asS'dare'
p3140
(lp3141
g19
ag22
ag13
ag22
asS'acquainted'
p3142
(lp3143
g4
ag4
asS'fortune'
p3144
(lp3145
g19
ag19
ag19
ag19
ag55
ag55
asS'achieve'
p3146
(lp3147
g10
asS'miracle'
p3148
(lp3149
g19
asS'benefit'
p3150
(lp3151
g19
ag19
asS"wretch's"
p3152
(lp3153
g13
asS'either'
p3154
(lp3155
g36
ag1223
asS'robbery'
p3156
(lp3157
g19
asS'offenders'
p3158
(lp3159
g55
asS'warrantise'
p3160
(lp3161
g19
asS'tombed'
p3162
(lp3163
g4
asS'fulfil'
p3164
(lp3165
g19
ag10
asS'falsehood'
p3166
(lp3167
g19
ag19
asS'kings'
p3168
(lp3169
g55
ag55
asS'images'
p3170
(lp3171
g55
asS'divine'
p3172
(lp3173
g22
ag22
asS'thinks'
p3174
(lp3175
g21
ag21
asS'gross'
p3176
(lp3177
S'JJ'
p3178
ag3178
asS'courses'
p3179
(lp3180
g55
asS'noon'
p3181
(lp3182
g19
asS'besiege'
p3183
(lp3184
g10
ag22
asS'stops'
p3185
(lp3186
g21
asS'moon'
p3187
(lp3188
g19
ag19
ag19
asS'forgoing'
p3189
(lp3190
g29
asS'expressing'
p3191
(lp3192
g29
asS'self-loving'
p3193
(lp3194
g13
asS'knife'
p3195
(lp3196
g19
ag19
ag13
ag19
asS'destroys'
p3197
(lp3198
g21
asS'shorn'
p3199
(lp3200
g4
asS'power'
p3201
(lp3202
S'NN'
p3203
ag3203
ag3203
ag3203
ag3203
ag3203
ag3203
ag3203
asS'seconds'
p3204
(lp3205
g55
asS'blest'
p3206
(lp3207
g19
ag52
asS'strained'
p3208
(lp3209
g20
asS'olives'
p3210
(lp3211
g55
asS'forgetfulness'
p3212
(lp3213
g19
asS'broken'
p3214
(lp3215
g4
asS"o'er-green"
p3216
(lp3217
g13
asS'assemble'
p3218
(lp3219
g13
asS'feeds'
p3220
(lp3221
g55
ag21
asS'death-bed'
p3222
(lp3223
g13
asS'on'
p3224
(lp3225
S'IN'
p3226
ag3226
ag3226
ag3226
ag3226
ag3226
ag3226
ag3226
ag3226
ag3226
ag3226
ag3226
ag3226
ag3226
ag3226
ag3226
ag3226
ag3226
ag3226
ag3226
ag3226
ag3226
ag3226
ag3226
ag3226
ag3226
ag3226
ag3226
ag3226
ag3226
ag3226
ag3226
ag3226
ag3226
ag3226
ag3226
ag3226
ag3226
ag3226
ag3226
ag3226
ag3226
ag3226
ag3226
ag3226
ag3226
ag3226
ag3226
ag3226
ag3226
ag3226
ag3226
ag3226
ag3226
ag3226
ag3226
ag3226
ag3226
ag3226
ag3226
ag3226
ag3226
ag3226
ag3226
ag3226
ag3226
ag3226
ag3226
ag3226
ag3226
ag3226
ag3226
ag3226
ag3226
ag3226
ag3226
ag3226
ag3226
asS'stone'
p3227
(lp3228
g19
ag19
ag19
asS'subdued'
p3229
(lp3230
g4
asS'zealous'
p3231
(lp3232
g13
asS'of'
p3233
(lp3234
S'IN'
p3235
ag3235
ag3235
ag3235
ag3235
ag3235
ag3235
ag3235
ag3235
ag3235
ag3235
ag3235
ag3235
ag3235
ag3235
ag3235
ag3235
ag3235
ag3235
ag3235
ag3235
ag3235
ag3235
ag3235
ag3235
ag3235
ag3235
ag3235
ag3235
ag3235
ag3235
ag3235
ag3235
ag3235
ag3235
ag3235
ag3235
ag3235
ag3235
ag3235
ag3235
ag3235
ag3235
ag3235
ag3235
ag3235
ag3235
ag3235
ag3235
ag3235
ag3235
ag3235
ag3235
ag3235
ag3235
ag3235
ag3235
ag3235
ag3235
ag3235
ag3235
ag3235
ag3235
ag3235
ag3235
ag3235
ag3235
ag3235
ag3235
ag3235
ag3235
ag3235
ag3235
ag3235
ag3235
ag3235
ag3235
ag3235
ag3235
ag3235
ag3235
ag3235
ag3235
ag3235
ag3235
ag3235
ag3235
ag3235
ag3235
ag3235
ag3235
ag3235
ag3235
ag3235
ag3235
ag3235
ag3235
ag3235
ag3235
ag3235
ag3235
ag3235
ag3235
ag3235
ag3235
ag3235
ag3235
ag3235
ag3235
ag3235
ag3235
ag3235
ag3235
ag3235
ag3235
ag3235
ag3235
ag3235
ag3235
ag3235
ag3235
ag3235
ag3235
ag3235
ag3235
ag3235
ag3235
ag3235
ag3235
ag3235
ag3235
ag3235
ag3235
ag3235
ag3235
ag3235
ag3235
ag3235
ag3235
ag3235
ag3235
ag3235
ag3235
ag3235
ag3235
ag3235
ag3235
ag3235
ag3235
ag3235
ag3235
ag3235
ag3235
ag3235
ag3235
ag3235
ag3235
ag3235
ag3235
ag3235
ag3235
ag3235
ag3235
ag3235
ag3235
ag3235
ag3235
ag3235
ag3235
ag3235
ag3235
ag3235
ag3235
ag3235
ag3235
ag3235
ag3235
ag3235
ag3235
ag3235
ag3235
ag3235
ag3235
ag3235
ag3235
ag3235
ag3235
ag3235
ag3235
ag3235
ag3235
ag3235
ag3235
ag3235
ag3235
ag3235
ag3235
ag3235
ag3235
ag3235
ag3235
ag3235
ag3235
ag3235
ag3235
ag3235
ag3235
ag3235
ag3235
ag3235
ag3235
ag3235
ag3235
ag3235
ag3235
ag3235
ag3235
ag3235
ag3235
ag3235
ag3235
ag3235
ag3235
ag3235
ag3235
ag3235
ag3235
ag3235
ag3235
ag3235
ag3235
ag3235
ag3235
ag3235
ag3235
ag3235
ag3235
ag3235
ag3235
ag3235
ag3235
ag3235
ag3235
ag3235
ag3235
ag3235
ag3235
ag3235
ag3235
ag3235
ag3235
ag3235
ag3235
ag3235
ag3235
ag3235
ag3235
ag3235
ag3235
ag3235
ag3235
ag3235
ag3235
ag3235
ag3235
ag3235
ag3235
ag3235
ag3235
ag3235
ag3235
ag3235
ag3235
ag3235
ag3235
ag3235
ag3235
ag3235
ag3235
ag3235
ag3235
ag3235
ag3235
ag3235
ag3235
ag3235
ag3235
ag3235
ag3235
ag3235
ag3235
ag3235
ag3235
ag3235
ag3235
ag3235
ag3235
ag3235
ag3235
ag3235
ag3235
ag3235
ag3235
ag3235
ag3235
ag3235
ag3235
ag3235
ag3235
ag3235
ag3235
ag3235
ag3235
ag3235
ag3235
ag3235
ag3235
ag3235
ag3235
ag3235
ag3235
ag3235
ag3235
ag3235
ag3235
ag3235
ag3235
ag3235
ag3235
ag3235
ag3235
ag3235
ag3235
ag3235
ag3235
ag3235
ag3235
ag3235
ag3235
ag3235
ag3235
ag3235
ag3235
ag3235
ag3235
ag3235
ag3235
ag3235
ag3235
ag3235
ag3235
ag3235
ag3235
ag3235
ag3235
ag3235
ag3235
ag3235
ag3235
ag3235
ag3235
ag3235
ag3235
ag3235
ag3235
ag3235
asS'choirs'
p3236
(lp3237
g55
asS'feil'
p3238
(lp3239
g13
asS'whence'
p3240
(lp3241
g19
ag19
asS'her'
p3242
(lp3243
g1955
ag1955
ag1955
ag1955
ag1955
ag1955
ag1955
ag1955
ag1955
ag1955
ag1955
ag1955
ag1955
ag1955
ag1955
ag1955
ag1955
ag1955
ag1955
ag1955
ag808
ag1955
ag1955
ag1955
ag1955
ag1955
ag1955
ag1955
ag1955
ag1955
ag1955
ag1955
ag808
ag1955
ag1955
ag1955
ag1955
ag1955
ag1955
ag1955
ag1955
ag1955
ag1955
ag1955
ag1955
asS'wolf'
p3244
(lp3245
g19
asS'stand'
p3246
(lp3247
g22
ag19
ag10
ag10
ag22
ag19
ag10
asS'act'
p3248
(lp3249
g19
asS'mixed'
p3250
(lp3251
g13
asS"bear'st"
p3252
(lp3253
g1028
asS'or'
p3254
(lp3255
S'CC'
p3256
ag3256
ag3256
ag3256
ag3256
ag3256
ag3256
ag3256
ag3256
ag3256
ag3256
ag3256
ag3256
ag3256
ag3256
ag3256
ag3256
ag3256
ag3256
ag3256
ag3256
ag3256
ag3256
ag3256
ag3256
ag3256
ag3256
ag3256
ag3256
ag3256
ag3256
ag3256
ag3256
ag3256
ag3256
ag3256
ag3256
ag3256
ag3256
ag3256
ag3256
ag3256
ag3256
ag3256
ag3256
ag3256
ag3256
ag3256
ag3256
ag3256
ag3256
ag3256
ag3256
ag3256
ag3256
ag3256
ag3256
ag3256
ag3256
ag3256
ag3256
ag3256
ag3256
ag3256
ag3256
ag3256
ag3256
ag3256
ag3256
ag3256
ag3256
ag3256
ag3256
ag3256
ag3256
ag3256
ag3256
ag3256
asS'imitated'
p3257
(lp3258
g4
asS'widowed'
p3259
(lp3260
g4
asS'long-lived'
p3261
(lp3262
g13
asS'burning'
p3263
(lp3264
g29
asS"put'st"
p3265
(lp3266
g21
asS'distempered'
p3267
(lp3268
g13
asS'image'
p3269
(lp3270
S'NN'
p3271
ag3271
ag3271
ag3271
asS'blessed'
p3272
(lp3273
g13
ag4
ag13
ag4
ag13
ag20
ag20
asS'rising'
p3274
(lp3275
g29
asS'lively'
p3276
(lp3277
g36
ag36
asS'dreaming'
p3278
(lp3279
g29
asS'blesses'
p3280
(lp3281
g21
asS'your'
p3282
(lp3283
S'PRP$'
p3284
ag3284
ag3284
ag3284
ag3284
ag3284
ag3284
ag3284
ag3284
ag3284
ag3284
ag3284
ag3284
ag3284
ag3284
ag3284
ag3284
ag3284
ag3284
ag3284
ag3284
ag3284
ag3284
ag3284
ag3284
ag3284
ag3284
ag3284
ag3284
ag3284
ag3284
ag3284
ag3284
ag3284
ag3284
ag3284
ag3284
ag3284
ag3284
ag3284
ag3284
ag3284
ag3284
ag3284
ag3284
ag3284
ag3284
ag3284
ag3284
ag3284
ag3284
ag3284
ag3284
ag3284
ag3284
ag3284
ag3284
ag3284
ag3284
ag3284
ag3284
ag3284
ag3284
ag3284
ag3284
ag3284
ag3284
ag3284
ag3284
ag3284
ag3284
ag3284
ag3284
ag3284
ag3284
ag3284
ag3284
ag3284
ag3284
ag3284
ag3284
ag3284
ag3284
ag3284
ag3284
ag3284
ag3284
ag3284
ag3284
ag3284
ag3284
ag3284
ag3284
ag3284
ag3284
ag3284
ag3284
ag3284
ag3284
ag3284
asS'buds'
p3285
(lp3286
g55
ag19
ag19
asS"oaths'"
p3287
(lp3288
g55
asS'fast'
p3289
(lp3290
g36
ag13
ag36
ag36
asg19
(lp3291
S'water'
p3292
asS'there'
p3293
(lp3294
g357
ag36
ag357
ag357
ag357
ag357
ag357
ag357
ag357
ag357
ag357
ag36
ag36
ag357
ag36
ag357
ag357
ag36
asS'disposed'
p3295
(lp3296
g4
asS'sides'
p3297
(lp3298
S'NNS'
p3299
asS'stealth'
p3300
(lp3301
g19
asS'gaze'
p3302
(lp3303
g19
ag10
asS"seasons'"
p3304
(lp3305
g13
asS'stars'
p3306
(lp3307
g55
ag55
ag55
ag55
ag55
asS'jaws'
p3308
(lp3309
g19
asS'groan'
p3310
(lp3311
g19
ag19
ag19
ag10
asS'enough'
p3312
(lp3313
g10
ag13
ag36
ag13
ag36
ag13
asS"you'"
p3314
(lp3315
g13
asS'petty'
p3316
(lp3317
g19
asS"dyer's"
p3318
(lp3319
g13
asS'strikes'
p3320
(lp3321
g55
asS'meetness'
p3322
(lp3323
g19
asS'suffers'
p3324
(lp3325
g21
asS'with'
p3326
(lp3327
S'IN'
p3328
ag3328
ag3328
ag3328
ag3328
ag3328
ag3328
ag3328
ag3328
ag3328
ag3328
ag3328
ag3328
ag3328
ag3328
ag3328
ag3328
ag3328
ag3328
ag3328
ag3328
ag3328
ag3328
ag3328
ag3328
ag3328
ag3328
ag3328
ag3328
ag3328
ag3328
ag3328
ag3328
ag3328
ag3328
ag3328
ag3328
ag3328
ag3328
ag3328
ag3328
ag3328
ag3328
ag3328
ag3328
ag3328
ag3328
ag3328
ag3328
ag3328
ag3328
ag3328
ag3328
ag3328
ag3328
ag3328
ag3328
ag3328
ag3328
ag3328
ag3328
ag3328
ag3328
ag3328
ag3328
ag3328
ag3328
ag3328
ag3328
ag3328
ag3328
ag3328
ag3328
ag3328
ag3328
ag3328
ag3328
ag3328
ag3328
ag3328
ag3328
ag3328
ag3328
ag3328
ag3328
ag3328
ag3328
ag3328
ag3328
ag3328
ag3328
ag3328
ag3328
ag3328
ag3328
ag3328
ag3328
ag3328
ag3328
ag3328
ag3328
ag3328
ag3328
ag3328
ag3328
ag3328
ag3328
ag3328
ag3328
ag3328
ag3328
ag3328
ag3328
ag3328
ag3328
ag3328
ag3328
ag3328
ag3328
ag3328
ag3328
ag3328
ag3328
ag3328
ag3328
ag3328
ag3328
ag3328
ag3328
ag3328
ag3328
ag3328
ag3328
ag3328
ag3328
ag3328
ag3328
ag3328
ag3328
ag3328
ag3328
ag3328
ag3328
ag3328
ag3328
ag3328
ag3328
ag3328
ag3328
ag3328
ag3328
ag3328
ag3328
ag3328
ag3328
ag3328
ag3328
ag3328
ag3328
ag3328
ag3328
ag3328
ag3328
ag3328
ag3328
ag3328
ag3328
ag3328
ag3328
ag3328
ag3328
ag3328
ag3328
ag3328
ag3328
ag3328
ag3328
ag3328
ag3328
ag3328
ag3328
asS'happies'
p3329
(lp3330
g21
asS'abused'
p3331
(lp3332
g4
asS'applying'
p3333
(lp3334
g29
asS'rage'
p3335
(lp3336
g19
ag19
ag19
ag19
ag19
asS'niggarding'
p3337
(lp3338
g29
asS'self-same'
p3339
(lp3340
g13
asS'impute'
p3341
(lp3342
g10
asS'abuses'
p3343
(lp3344
g55
asS'strongly'
p3345
(lp3346
g36
ag36
asS'gone'
p3347
(lp3348
S'VBN'
p3349
ag3349
ag3349
ag3349
ag3349
ag3349
ag3349
ag3349
ag3349
asS'intents'
p3350
(lp3351
g55
asS'celestial'
p3352
(lp3353
g13
asS'fist'
p3354
(lp3355
g19
asS'taste'
p3356
(lp3357
g19
ag19
ag19
ag22
asS'ah'
p3358
(lp3359
g19
ag19
ag10
ag21
ag19
ag19
ag19
asS'accents'
p3360
(lp3361
g55
asS'stealing'
p3362
(lp3363
g29
ag29
asS'am'
p3364
(lp3365
S'VBP'
p3366
ag3366
ag3366
ag3366
ag3366
ag3366
ag3366
ag3366
ag3366
ag3366
ag3366
ag3366
ag3366
ag3366
ag3366
ag3366
ag3366
ag3366
ag3366
ag3366
ag3366
ag3366
ag3366
ag3366
ag3366
ag3366
ag3366
ag3366
ag3366
ag3366
ag3366
ag3366
ag3366
ag3366
ag3366
asS'deep'
p3367
(lp3368
g13
ag19
ag13
ag13
ag13
ag13
ag13
ag13
asS'an'
p3369
(lp3370
g1224
ag1224
ag1224
ag1224
ag1224
ag1224
ag1224
ag1224
ag1224
ag1224
ag1224
ag1224
ag1224
ag1224
ag1224
ag1224
ag1224
asS'toiled'
p3371
(lp3372
g20
asS'excusing'
p3373
(lp3374
g29
asS'deem'
p3375
(lp3376
g21
asS'carved'
p3377
(lp3378
g20
asS'pen'
p3379
(lp3380
g13
ag20
ag19
ag13
ag19
ag19
ag13
ag463
ag10
ag19
asS'ay'
p3381
(lp3382
g76
ag19
asS'spends'
p3383
(lp3384
g21
asS'fill'
p3385
(lp3386
g19
ag19
ag10
asS'again'
p3387
(lp3388
S'RB'
p3389
ag3389
ag3389
ag3389
ag3389
ag3389
ag3389
ag3389
ag3389
ag3389
asS'proudly'
p3390
(lp3391
g36
asS"judgment's"
p3392
(lp3393
g13
asS'deserve'
p3394
(lp3395
g10
asS'ever-fixed'
p3396
(lp3397
g13
asS"helen's"
p3398
(lp3399
g55
asS'repent'
p3400
(lp3401
g19
asS'incertainties'
p3402
(lp3403
g55
asS'roses'
p3404
(lp3405
g55
ag55
ag55
ag55
ag55
ag55
asS"wand'ring"
p3406
(lp3407
g19
asS'you'
p3408
(lp3409
S'PRP'
p3410
ag3410
ag3410
ag3410
ag3410
ag3410
ag3410
ag3410
ag3410
ag3410
ag3410
ag3410
ag3410
ag3410
ag3410
ag3410
ag3410
ag3410
ag3410
ag3410
ag3410
ag3410
ag3410
ag3410
ag3410
ag3410
ag3410
ag3410
ag3410
ag3410
ag3410
ag3410
ag3410
ag3410
ag3410
ag3410
ag3410
ag3410
ag3410
ag3410
ag3410
ag3410
ag3410
ag3410
ag3410
ag3410
ag3410
ag3410
ag3410
ag3410
ag3410
ag3410
ag3410
ag3410
ag3410
ag3410
ag3410
ag3410
ag3410
ag3410
ag3410
ag3410
ag3410
ag3410
ag3410
ag3410
ag3410
ag3410
ag3410
ag3410
ag3410
ag3410
ag3410
ag3410
ag3410
ag3410
ag3410
ag3410
ag3410
ag3410
ag3410
ag3410
ag3410
ag3410
ag3410
ag3410
ag3410
ag3410
ag3410
ag3410
ag3410
ag3410
ag3410
ag3410
ag3410
ag3410
ag3410
ag3410
ag3410
ag3410
ag3410
ag3410
ag3410
ag3410
ag3410
ag3410
ag3410
ag3410
ag3410
ag3410
ag3410
asS'abysm'
p3411
(lp3412
g19
asS'poor'
p3413
(lp3414
S'JJ'
p3415
ag3415
ag3415
ag3415
ag3415
ag3415
ag3415
ag3415
ag3415
ag3415
ag3415
ag3415
ag3415
ag3415
ag3415
asS'time'
p3416
(lp3417
S'NN'
p3418
ag3418
ag3418
ag3418
ag3418
ag3418
ag3418
ag3418
ag3418
ag3418
ag3418
ag3418
ag3418
ag3418
ag3418
ag3418
ag3418
ag3418
ag3418
ag3418
ag3418
ag3418
ag3418
ag3418
ag3418
ag3418
ag3418
ag3418
ag3418
ag3418
ag3418
ag3418
ag3418
ag3418
ag3418
ag3418
ag3418
ag3418
ag3418
ag3418
ag3418
ag3418
ag3418
ag3418
ag3418
ag3418
ag3418
ag3418
ag3418
ag3418
ag3418
ag3418
asS'gifts'
p3419
(lp3420
g55
asS'flower'
p3421
(lp3422
g19
ag393
ag19
ag19
ag19
asS'suited'
p3423
(lp3424
g4
asS'brass'
p3425
(lp3426
g13
ag19
ag19
ag19
asS'sequent'
p3427
(lp3428
g13
asS'building'
p3429
(lp3430
g19
asS'backward'
p3431
(lp3432
g19
asS'remote'
p3433
(lp3434
g22
asS'calls'
p3435
(lp3436
g21
ag21
ag21
ag21
ag21
asS'wife'
p3437
(lp3438
S'NN'
p3439
asS"life's"
p3440
(lp3441
g13
asS'dyed'
p3442
(lp3443
g4
asS'repay'
p3444
(lp3445
g22
asS'hugely'
p3446
(lp3447
g36
asS'treason'
p3448
(lp3449
g19
asS'apparel'
p3450
(lp3451
g19
asS'tanned'
p3452
(lp3453
g13
asS'unset'
p3454
(lp3455
g4
asS'all'
p3456
(lp3457
g1224
ag762
ag1224
ag1224
ag1224
ag1224
ag1224
ag1224
ag1224
ag1224
ag1224
ag1224
ag1224
ag762
ag1224
ag1224
ag1224
ag1224
ag1224
ag762
ag1224
ag1224
ag762
ag1224
ag1224
ag1224
ag1224
ag1224
ag1224
ag1224
ag1224
ag762
ag1224
ag1224
ag1224
ag1224
ag1224
ag1224
ag762
ag1224
ag1224
ag1224
ag1224
ag1224
ag1224
ag1224
ag1224
ag1224
ag1224
ag1224
ag1224
ag1224
ag762
ag762
ag762
ag1224
ag1224
ag1224
ag1224
ag1224
ag1224
ag1224
ag1224
ag1224
ag1224
ag1224
ag1224
ag762
ag762
ag762
ag1224
ag1224
ag1224
ag1224
ag762
ag1224
ag762
ag1224
ag1224
ag1224
ag762
ag1224
ag1224
ag1224
ag1224
ag762
ag1224
ag1224
ag1224
ag1224
ag1224
ag1224
ag1224
ag762
ag1224
ag762
ag1224
ag1224
ag762
ag1224
ag1224
ag1224
ag1224
ag762
ag1224
ag1224
ag1224
ag1224
ag1224
ag1224
ag1224
ag1224
ag1224
ag1224
ag1224
ag1224
asS'consider'
p3458
(lp3459
g22
asS'pointing'
p3460
(lp3461
g29
asS'suns'
p3462
(lp3463
g55
asS'forbidden'
p3464
(lp3465
g13
asS'lack'
p3466
(lp3467
g19
ag393
ag19
ag19
asS'neigh'
p3468
(lp3469
g10
asS'worms'
p3470
(lp3471
g55
ag55
ag55
ag55
asS'importune'
p3472
(lp3473
g19
asS'seals'
p3474
(lp3475
g21
asS'sunk'
p3476
(lp3477
g19
asS"'gainst"
p3478
(lp3479
g21
ag1700
ag579
ag579
ag579
ag579
asS'forged'
p3480
(lp3481
g20
asS'welfare'
p3482
(lp3483
g19
asS'follow'
p3484
(lp3485
g10
ag13
asS'meditation'
p3486
(lp3487
g19
asS'faster'
p3488
(lp3489
g499
asS'religious'
p3490
(lp3491
g13
asS"gild'st"
p3492
(lp3493
g22
asS'wakened'
p3494
(lp3495
g13
asS'wanton'
p3496
(lp3497
g19
asS'homage'
p3498
(lp3499
g19
asS'sparkling'
p3500
(lp3501
g29
asS'former'
p3502
(lp3503
S'JJ'
p3504
ag3504
ag3504
ag3504
asS"keep'st"
p3505
(lp3506
g10
asS'to'
p3507
(lp3508
S'TO'
p3509
ag3509
ag3509
ag3509
ag3509
ag3509
ag3509
ag3509
ag3509
ag3509
ag3509
ag3509
ag3509
ag3509
ag3509
ag3509
ag3509
ag3509
ag3509
ag3509
ag3509
ag3509
ag3509
ag3509
ag3509
ag3509
ag3509
ag3509
ag3509
ag3509
ag3509
ag3509
ag3509
ag3509
ag3509
ag3509
ag3509
ag3509
ag3509
ag3509
ag3509
ag3509
ag3509
ag3509
ag3509
ag3509
ag3509
ag3509
ag3509
ag3509
ag3509
ag3509
ag3509
ag3509
ag3509
ag3509
ag3509
ag3509
ag3509
ag3509
ag3509
ag3509
ag3509
ag3509
ag3509
ag3509
ag3509
ag3509
ag3509
ag3509
ag3509
ag3509
ag3509
ag3509
ag3509
ag3509
ag3509
ag3509
ag3509
ag3509
ag3509
ag3509
ag3509
ag3509
ag3509
ag3509
ag3509
ag3509
ag3509
ag3509
ag3509
ag3509
ag3509
ag3509
ag3509
ag3509
ag3509
ag3509
ag3509
ag3509
ag3509
ag3509
ag3509
ag3509
ag3509
ag3509
ag3509
ag3509
ag3509
ag3509
ag3509
ag3509
ag3509
ag3509
ag3509
ag3509
ag3509
ag3509
ag3509
ag3509
ag3509
ag3509
ag3509
ag3509
ag3509
ag3509
ag3509
ag3509
ag3509
ag3509
ag3509
ag3509
ag3509
ag3509
ag3509
ag3509
ag3509
ag3509
ag3509
ag3509
ag3509
ag3509
ag3509
ag3509
ag3509
ag3509
ag3509
ag3509
ag3509
ag3509
ag3509
ag3509
ag3509
ag3509
ag3509
ag3509
ag3509
ag3509
ag3509
ag3509
ag3509
ag3509
ag3509
ag3509
ag3509
ag3509
ag3509
ag3509
ag3509
ag3509
ag3509
ag3509
ag3509
ag3509
ag3509
ag3509
ag3509
ag3509
ag3509
ag3509
ag3509
ag3509
ag3509
ag3509
ag3509
ag3509
ag3509
ag3509
ag3509
ag3509
ag3509
ag3509
ag3509
ag3509
ag3509
ag3509
ag3509
ag3509
ag3509
ag3509
ag3509
ag3509
ag3509
ag3509
ag3509
ag3509
ag3509
ag3509
ag3509
ag3509
ag3509
ag3509
ag3509
ag3509
ag3509
ag3509
ag3509
ag3509
ag3509
ag3509
ag3509
ag3509
ag3509
ag3509
ag3509
ag3509
ag3509
ag3509
ag3509
ag3509
ag3509
ag3509
ag3509
ag3509
ag3509
ag3509
ag3509
ag3509
ag3509
ag3509
ag3509
ag3509
ag3509
ag3509
ag3509
ag3509
ag3509
ag3509
ag3509
ag3509
ag3509
ag3509
ag3509
ag3509
ag3509
ag3509
ag3509
ag3509
ag3509
ag3509
ag3509
ag3509
ag3509
ag3509
ag3509
ag3509
ag3509
ag3509
ag3509
ag3509
ag3509
ag3509
ag3509
ag3509
ag3509
ag3509
ag3509
ag3509
ag3509
ag3509
ag3509
ag3509
ag3509
ag3509
ag3509
ag3509
ag3509
ag3509
ag3509
ag3509
ag3509
ag3509
ag3509
ag3509
ag3509
ag3509
ag3509
ag3509
ag3509
ag3509
ag3509
ag3509
ag3509
ag3509
ag3509
ag3509
ag3509
ag3509
ag3509
ag3509
ag3509
ag3509
ag3509
ag3509
ag3509
ag3509
ag3509
ag3509
ag3509
ag3509
ag3509
ag3509
ag3509
ag3509
ag3509
ag3509
ag3509
ag3509
ag3509
ag3509
ag3509
ag3509
ag3509
ag3509
ag3509
ag3509
ag3509
ag3509
ag3509
ag3509
ag3509
ag3509
ag3509
ag3509
ag3509
ag3509
ag3509
ag3509
ag3509
ag3509
ag3509
ag3509
ag3509
ag3509
ag3509
ag3509
ag3509
ag3509
ag3509
ag3509
ag3509
ag3509
ag3509
ag3509
ag3509
ag3509
ag3509
ag3509
ag3509
ag3509
ag3509
ag3509
ag3509
ag3509
ag3509
ag3509
ag3509
ag3509
ag3509
ag3509
ag3509
ag3509
ag3509
ag3509
ag3509
ag3509
ag3509
ag3509
ag3509
ag3509
ag3509
ag3509
ag3509
ag3509
ag3509
ag3509
ag3509
ag3509
ag3509
ag3509
ag3509
ag3509
ag3509
ag3509
asS'present'
p3510
(lp3511
g13
ag13
ag13
ag13
ag13
asS'dressing'
p3512
(lp3513
g29
asS'nurseth'
p3514
(lp3515
g21
asS'hideous'
p3516
(lp3517
g13
ag13
asS'weeks'
p3518
(lp3519
S'NNS'
p3520
asS'paying'
p3521
(lp3522
S'VBG'
p3523
asS'woman'
p3524
(lp3525
S'NN'
p3526
ag3526
ag3526
asS'returned'
p3527
(lp3528
g20
asS'song'
p3529
(lp3530
g19
ag19
ag19
ag19
asS'very'
p3531
(lp3532
g36
ag36
ag36
ag36
ag36
ag36
ag36
asS"'will"
p3533
(lp3534
g954
asS'saved'
p3535
(lp3536
g20
asS'coloured'
p3537
(lp3538
g20
asS'oblation'
p3539
(lp3540
g19
asS'medicine'
p3541
(lp3542
g10
asS'worst'
p3543
(lp3544
g10
ag52
ag52
ag10
ag52
ag52
ag52
asS'minded'
p3545
(lp3546
g4
asS'fall'
p3547
(lp3548
g19
ag19
ag19
asS'hems'
p3549
(lp3550
g21
asS'difference'
p3551
(lp3552
S'NN'
p3553
asS'vouchsafe'
p3554
(lp3555
g10
ag13
asS'heaven'
p3556
(lp3557
g13
ag4
ag13
ag21
ag19
ag36
ag22
ag13
ag19
ag19
ag19
ag4
ag36
asS'list'
p3558
(lp3559
g10
asS'silvered'
p3560
(lp3561
g20
asS'fearful'
p3562
(lp3563
g13
asS'small'
p3564
(lp3565
S'JJ'
p3566
ag3566
asS"t'"
p3567
(lp3568
g19
asS'tender'
p3569
(lp3570
g19
ag19
ag19
ag19
ag19
ag19
ag19
asS"i'll"
p3571
(lp3572
g19
ag13
ag19
ag13
ag19
ag22
ag19
asS'quicker'
p3573
(lp3574
g393
asS'ten'
p3575
(lp3576
g10
ag10
ag19
ag55
ag4
ag4
ag20
asS'outworn'
p3577
(lp3578
g13
ag4
asS'past'
p3579
(lp3580
g76
ag76
ag76
ag19
ag76
ag13
ag76
ag76
ag13
asS'winds'
p3581
(lp3582
g55
ag55
asS'titles'
p3583
(lp3584
g55
asS'perspective'
p3585
(lp3586
g19
asS'pass'
p3587
(lp3588
g19
ag19
ag10
asS'savage'
p3589
(lp3590
g13
asS'affable'
p3591
(lp3592
g13
asS'befriends'
p3593
(lp3594
g55
asS'crests'
p3595
(lp3596
g55
asS'creatures'
p3597
(lp3598
g55
ag55
asS'conscience'
p3599
(lp3600
g19
ag19
ag19
asS'gazers'
p3601
(lp3602
g55
asS'what'
p3603
(lp3604
g1801
ag1801
ag1801
ag1801
ag1801
ag1801
ag1801
ag1801
ag1801
ag392
ag1801
ag1801
ag1801
ag1801
ag1801
ag1801
ag1801
ag1801
ag1801
ag1801
ag1801
ag1801
ag1801
ag1801
ag1801
ag1801
ag1801
ag1801
ag1801
ag1801
ag1801
ag1801
ag1801
ag1801
ag1801
ag1801
ag1801
ag1801
ag1801
ag1801
ag1801
ag1801
ag1801
ag1801
ag1801
ag1801
ag1801
ag1801
ag1801
ag1801
ag1801
ag1801
ag1801
ag1801
ag1801
ag1801
ag1801
ag1801
ag1801
ag1801
ag1801
ag1801
ag1801
ag1801
ag1801
ag1801
ag1801
ag1801
ag1801
ag1801
asS'defence'
p3605
(lp3606
g19
ag19
ag19
asS'darkness'
p3607
(lp3608
g19
asS'sweetly'
p3609
(lp3610
g36
ag36
asS'clock'
p3611
(lp3612
g19
ag19
asS'sun'
p3613
(lp3614
g19
ag19
ag19
ag19
ag19
ag19
ag19
ag19
ag13
ag19
ag19
asS'sum'
p3615
(lp3616
g10
ag19
ag19
ag19
asS'brief'
p3617
(lp3618
g10
ag19
ag13
asS'prevailed'
p3619
(lp3620
g4
asS'foison'
p3621
(lp3622
g19
asS'ill-wresting'
p3623
(lp3624
g13
asS'nurse'
p3625
(lp3626
g76
asS'shun'
p3627
(lp3628
g10
ag10
asS'public'
p3629
(lp3630
g13
ag13
ag13
ag13
asS'womb'
p3631
(lp3632
g19
ag19
asS'quenched'
p3633
(lp3634
g20
asS'full'
p3635
(lp3636
S'JJ'
p3637
ag3637
ag3637
ag3637
ag3637
ag3637
ag3637
ag3637
ag3637
ag3637
ag3637
ag3637
ag3637
asS'ranged'
p3638
(lp3639
g4
asS'love-suit'
p3640
(lp3641
g13
asS'answers'
p3642
(lp3643
g21
asS'revenge'
p3644
(lp3645
g19
asS'hours'
p3646
(lp3647
S'NNS'
p3648
ag3648
ag3648
ag3648
ag3648
ag3648
ag3648
ag3648
ag3648
ag3648
ag3648
ag3648
asS'ensconce'
p3649
(lp3650
g10
asS'excess'
p3651
(lp3652
g13
asS'hast'
p3653
(lp3654
g19
ag19
ag22
ag19
ag20
ag20
ag762
ag19
ag19
ag19
ag19
ag19
ag19
ag19
ag19
asS'depend'
p3655
(lp3656
g22
asS'strong'
p3657
(lp3658
S'JJ'
p3659
ag3659
ag3659
ag3659
ag3659
ag3659
ag3659
ag3659
ag3659
asS'respect'
p3660
(lp3661
g19
ag19
ag22
ag19
asS'enmity'
p3662
(lp3663
g19
asS'losses'
p3664
(lp3665
S'NNS'
p3666
asS'dearths'
p3667
(lp3668
g55
asS'reason'
p3669
(lp3670
S'NN'
p3671
ag3671
ag3671
ag3671
ag3671
ag3671
asS'simply'
p3672
(lp3673
S'RB'
p3674
asS'action'
p3675
(lp3676
S'NN'
p3677
ag3677
ag3677
asS'steepy'
p3678
(lp3679
g13
asS'extant'
p3680
(lp3681
g13
asS"day's"
p3682
(lp3683
g19
asS'depart'
p3684
(lp3685
g19
ag19
asS'impiety'
p3686
(lp3687
g19
asS'tendered'
p3688
(lp3689
g20
asS'sealed'
p3690
(lp3691
g20
asS"lion's"
p3692
(lp3693
g19
asS'estimate'
p3694
(lp3695
g19
asS'unthrift'
p3696
(lp3697
g19
asS'self-love'
p3698
(lp3699
g19
ag13
ag13
asS'eye'
p3700
(lp3701
S'NN'
p3702
ag3702
ag3702
ag3702
ag3702
ag3702
ag3702
ag3702
ag3702
ag3702
ag3702
ag3702
ag3702
ag3702
ag3702
ag3702
ag3702
ag3702
ag3702
ag3702
ag3702
ag3702
ag3702
ag3702
ag3702
ag3702
ag3702
ag3702
ag3702
ag3702
ag3702
ag3702
ag3702
ag3702
ag3702
ag3702
ag3702
asS'takes'
p3703
(lp3704
S'VBZ'
p3705
ag3705
ag3705
asS'cherubins'
p3706
(lp3707
g55
asS'contains'
p3708
(lp3709
g21
asS'two'
p3710
(lp3711
S'CD'
p3712
ag3712
ag3712
ag3712
ag3712
ag3712
ag3712
ag3712
ag3712
asS'pearl'
p3713
(lp3714
g13
asS'morn'
p3715
(lp3716
g19
ag13
asS'soil'
p3717
(lp3718
g19
ag19
asS'taken'
p3719
(lp3720
S'VBN'
p3721
ag3721
ag3721
asS'injury'
p3722
(lp3723
g19
ag19
ag19
asS'more'
p3724
(lp3725
g499
ag499
ag499
ag499
ag499
ag393
ag393
ag499
ag393
ag393
ag499
ag393
ag499
ag499
ag499
ag393
ag499
ag499
ag499
ag393
ag499
ag499
ag393
ag499
ag499
ag499
ag393
ag499
ag499
ag499
ag393
ag393
ag393
ag499
ag393
ag393
ag393
ag393
ag499
ag393
ag393
ag499
ag393
ag499
ag393
ag499
ag393
ag499
ag393
ag393
ag499
ag499
ag393
ag499
ag393
ag499
ag393
ag499
ag499
ag393
ag499
ag499
ag499
asS'horses'
p3726
(lp3727
g55
asS'wretched'
p3728
(lp3729
g4
ag20
asS'unlearned'
p3730
(lp3731
g4
asS'knows'
p3732
(lp3733
g21
ag55
ag21
ag21
ag21
ag21
ag55
ag21
ag21
ag21
ag21
asS'delves'
p3734
(lp3735
g21
asS"ow'st"
p3736
(lp3737
g19
asS'foregone'
p3738
(lp3739
g19
asS'spoils'
p3740
(lp3741
g55
asS'woeful'
p3742
(lp3743
g13
asS'excuse'
p3744
(lp3745
g10
ag76
ag19
ag10
ag76
ag10
asS'lameness'
p3746
(lp3747
g19
asS'controlling'
p3748
(lp3749
g29
ag29
asS'broke'
p3750
(lp3751
g20
ag19
asS'graven'
p3752
(lp3753
g19
asS'known'
p3754
(lp3755
g13
asS'doom'
p3756
(lp3757
g19
ag19
ag19
ag19
ag19
asS'glad'
p3758
(lp3759
g19
ag10
asS'cunning'
p3760
(lp3761
g19
ag29
ag29
asS'commanded'
p3762
(lp3763
g4
asS'over-goes'
p3764
(lp3765
g13
asS'none'
p3766
(lp3767
g19
ag19
ag36
ag19
ag19
ag19
ag19
ag19
ag19
ag19
ag19
asS'hour'
p3768
(lp3769
S'NN'
p3770
ag3770
ag3770
asS'boy'
p3771
(lp3772
g19
ag19
asS'besides'
p3773
(lp3774
g76
asS'remain'
p3775
(lp3776
g22
ag22
ag22
asS'nine'
p3777
(lp3778
S'CD'
p3779
asS'learn'
p3780
(lp3781
g19
ag22
asS'marble'
p3782
(lp3783
g13
asS'history'
p3784
(lp3785
S'NN'
p3786
asS'beautiful'
p3787
(lp3788
g13
asS'compare'
p3789
(lp3790
g19
ag19
ag10
ag13
ag19
ag19
asS'attainted'
p3791
(lp3792
g4
asS'visage'
p3793
(lp3794
g19
asS'trial'
p3795
(lp3796
S'NN'
p3797
asS'share'
p3798
(lp3799
S'NN'
p3800
asS'conspire'
p3801
(lp3802
g10
asS'thievish'
p3803
(lp3804
g22
ag13
asS'well-seeing'
p3805
(lp3806
g29
asS'numbers'
p3807
(lp3808
S'NNS'
p3809
ag3809
ag3809
ag3809
asS'well-tuned'
p3810
(lp3811
g13
asS'sharp'
p3812
(lp3813
S'JJ'
p3814
asS'allege'
p3815
(lp3816
g10
asS'huge'
p3817
(lp3818
S'JJ'
p3819
ag3819
asS'needs'
p3820
(lp3821
g55
ag21
ag21
ag55
ag55
asS'drained'
p3822
(lp3823
g4
asS'needy'
p3824
(lp3825
g13
asS"'thus"
p3826
(lp3827
g36
asS'comfort'
p3828
(lp3829
g19
ag19
ag19
ag19
asS'chopt'
p3830
(lp3831
g10
asS"adder's"
p3832
(lp3833
g13
asS'glowing'
p3834
(lp3835
g19
asS"heart's"
p3836
(lp3837
g13
ag19
ag13
ag10
ag19
ag13
ag19
asS'sacred'
p3838
(lp3839
g13
ag20
asS'new-fangled'
p3840
(lp3841
g13
asS'creature'
p3842
(lp3843
g19
asS'simplicity'
p3844
(lp3845
g19
asS'rude'
p3846
(lp3847
g19
ag19
ag19
ag19
asS'disgraced'
p3848
(lp3849
g4
asS'mended'
p3850
(lp3851
g4
asS'blood'
p3852
(lp3853
g19
ag19
ag19
ag19
ag19
ag19
ag19
ag19
asS'coming'
p3854
(lp3855
g29
ag29
asS'monsters'
p3856
(lp3857
g55
asS'replete'
p3858
(lp3859
g19
ag13
asS'a'
(lp3860
S'DT'
p3861
ag3861
ag3861
ag3861
ag3861
ag3861
ag3861
ag3861
ag3861
ag3861
ag3861
ag3861
ag3861
ag3861
ag3861
ag3861
ag3861
ag3861
ag3861
ag3861
ag3861
ag3861
ag3861
ag3861
ag3861
ag3861
ag3861
ag3861
ag3861
ag3861
ag3861
ag3861
ag3861
ag3861
ag3861
ag3861
ag3861
ag3861
ag3861
ag3861
ag3861
ag3861
ag3861
ag3861
ag3861
ag3861
ag3861
ag3861
ag3861
ag3861
ag3861
ag3861
ag3861
ag3861
ag3861
ag3861
ag3861
ag3861
ag3861
ag3861
ag3861
ag3861
ag3861
ag3861
ag3861
ag3861
ag3861
ag3861
ag3861
ag3861
ag3861
ag3861
ag3861
ag3861
ag3861
ag3861
ag3861
ag3861
ag3861
ag3861
ag3861
ag3861
ag3861
ag3861
ag3861
ag3861
ag3861
ag3861
ag3861
ag3861
ag3861
ag3861
ag3861
ag3861
ag3861
ag3861
ag3861
ag3861
ag3861
ag3861
ag3861
ag3861
ag3861
ag3861
ag3861
ag3861
ag3861
ag3861
ag3861
ag3861
ag3861
ag3861
ag3861
ag3861
ag3861
ag3861
ag3861
ag3861
ag3861
ag3861
ag3861
ag3861
ag3861
ag3861
ag3861
ag3861
ag3861
ag3861
ag3861
ag3861
ag3861
ag3861
ag3861
ag3861
ag3861
ag3861
ag3861
ag3861
ag3861
ag3861
ag3861
ag3861
ag3861
ag3861
ag3861
ag3861
ag3861
ag3861
ag3861
ag3861
ag3861
ag3861
ag3861
ag3861
ag3861
ag3861
ag3861
ag3861
ag3861
ag3861
ag3861
asS'refuse'
p3862
(lp3863
g19
asS'short'
p3864
(lp3865
g13
ag13
ag13
ag36
asS'resemble'
p3866
(lp3867
g13
asS'shady'
p3868
(lp3869
g13
asS'register'
p3870
(lp3871
g10
asS"present'st"
p3872
(lp3873
g22
asS'shore'
p3874
(lp3875
g19
ag19
ag19
asS'shade'
p3876
(lp3877
g19
ag13
ag20
ag19
asS'perjured'
p3878
(lp3879
g4
ag4
ag13
asS'banks'
p3880
(lp3881
S'NNS'
p3882
asS'pleasure'
p3883
(lp3884
g19
ag19
ag19
ag19
ag19
ag19
ag19
ag19
ag19
ag19
asS"gav'st"
p3885
(lp3886
g19
ag19
ag19
asS'penury'
p3887
(lp3888
g19
asS'dream'
p3889
(lp3890
g19
ag19
asS"that's"
p3891
(lp3892
g19
asS'recite'
p3893
(lp3894
g10
asS'help'
p3895
(lp3896
g19
ag19
ag19
ag19
asS'winged'
p3897
(lp3898
g13
asS'stays'
p3899
(lp3900
g21
asS'soon'
p3901
(lp3902
S'RB'
p3903
ag3903
ag3903
asS'disabled'
p3904
(lp3905
g20
asS'held'
p3906
(lp3907
g4
ag19
asS'paper'
p3908
(lp3909
S'NN'
p3910
asS'through'
p3911
(lp3912
g76
ag76
ag76
ag76
ag76
ag76
asS'signs'
p3913
(lp3914
S'NNS'
p3915
asS'hell'
p3916
(lp3917
g19
ag19
ag19
ag19
ag10
ag19
ag10
ag19
asS'smiling'
p3918
(lp3919
g29
asS'suffer'
p3920
(lp3921
g10
ag10
asS'saucy'
p3922
(lp3923
g19
ag19
asS'style'
p3924
(lp3925
S'NN'
p3926
ag3926
ag3926
asS'pent'
p3927
(lp3928
g19
ag19
asS'render'
p3929
(lp3930
g19
asS'termed'
p3931
(lp3932
g4
asS'pray'
p3933
(lp3934
g19
asS'inward'
p3935
(lp3936
g13
ag36
ag19
ag19
asS'deeds'
p3937
(lp3938
g21
ag55
ag55
ag55
ag55
ag55
ag55
ag55
ag55
ag55
asS'bosom'
p3939
(lp3940
g19
ag19
asS'teeming'
p3941
(lp3942
g29
asS'famished'
p3943
(lp3944
g4
asS'late'
p3945
(lp3946
g36
asS'resort'
p3947
(lp3948
g19
asS'absence'
p3949
(lp3950
g19
ag19
ag19
ag19
ag19
asS'strange'
p3951
(lp3952
g13
ag13
ag13
ag22
ag19
ag13
asS'threescore'
p3953
(lp3954
g76
asS'ruining'
p3955
(lp3956
g29
asS'self-willed'
p3957
(lp3958
g13
asS'might'
p3959
(lp3960
g1972
ag1972
ag1972
ag1972
ag1972
ag1972
ag1972
ag1972
ag1972
ag1972
ag1972
ag1972
ag1972
ag1972
ag1972
ag1972
ag1972
ag1972
ag1972
ag1972
ag1972
ag1972
ag1972
ag1972
ag1972
ag1972
asS'alter'
p3961
(lp3962
g21
asS'crawls'
p3963
(lp3964
g55
asS'forbear'
p3965
(lp3966
g13
ag19
asS'tune'
p3967
(lp3968
g19
asS'good'
p3969
(lp3970
g13
ag13
ag13
ag13
ag13
ag13
ag13
ag13
ag13
ag13
ag13
ag13
ag13
ag13
ag13
asS'tyrants'
p3971
(lp3972
g55
asS'kingly'
p3973
(lp3974
g36
asS'seeking'
p3975
(lp3976
S'VBG'
p3977
asS'food'
p3978
(lp3979
S'NN'
p3980
asS'ye'
p3981
(lp3982
g13
ag19
asS'storm-beaten'
p3983
(lp3984
g13
asS'speechless'
p3985
(lp3986
g19
ag19
asS'walls'
p3987
(lp3988
g55
ag55
asS'nymphs'
p3989
(lp3990
g55
asS'thereof'
p3991
(lp3992
g19
asS'weeds'
p3993
(lp3994
g55
ag10
ag55
ag55
asS'foot'
p3995
(lp3996
g19
ag19
ag19
asS'hunted'
p3997
(lp3998
g4
asS'breathers'
p3999
(lp4000
g55
asS"mistress'"
p4001
(lp4002
g13
ag13
ag19
ag13
ag19
asS'complain'
p4003
(lp4004
g10
asS'likeness'
p4005
(lp4006
g19
asS'imprisoned'
p4007
(lp4008
g13
ag20
asS'bent'
p4009
(lp4010
g13
ag13
asS'always'
p4011
(lp4012
S'RB'
p4013
asS'truths'
p4014
(lp4015
g55
asS'eloquence'
p4016
(lp4017
g19
asS'tear'
p4018
(lp4019
g13
asS'stopped'
p4020
(lp4021
g55
asS'turns'
p4022
(lp4023
g21
ag55
ag21
ag21
asS'found'
p4024
(lp4025
g20
ag4
ag20
ag10
ag20
ag4
ag20
ag20
ag20
asS'heavy'
p4026
(lp4027
g13
ag13
ag13
ag13
ag13
ag13
asS'weighs'
p4028
(lp4029
g21
asS'proud-pied'
p4030
(lp4031
g13
asS'bends'
p4032
(lp4033
g21
asS'weight'
p4034
(lp4035
g19
asS'house'
p4036
(lp4037
S'NN'
p4038
asS'hard'
p4039
(lp4040
g13
asS'oppressed'
p4041
(lp4042
g4
ag4
asS'surly'
p4043
(lp4044
g13
asS"nature's"
p4045
(lp4046
g13
ag13
ag13
ag13
ag19
ag13
asS'beyond'
p4047
(lp4048
S'IN'
p4049
asS'orient'
p4050
(lp4051
g19
asS'travels'
p4052
(lp4053
g21
asS'lovers'
p4054
(lp4055
g55
asS'missed'
p4056
(lp4057
g4
asS'since'
p4058
(lp4059
S'IN'
p4060
ag4060
ag4060
ag4060
ag4060
ag4060
ag4060
ag4060
ag4060
ag4060
ag4060
ag4060
ag4060
ag4060
ag4060
ag4060
ag4060
ag4060
ag4060
ag4060
ag4060
ag4060
ag4060
ag4060
asS'publish'
p4061
(lp4062
g13
asS'admired'
p4063
(lp4064
g20
asS'health'
p4065
(lp4066
S'NN'
p4067
ag4067
asS'hill'
p4068
(lp4069
g19
asS'print'
p4070
(lp4071
g19
asS'darling'
p4072
(lp4073
g29
asS'issue'
p4074
(lp4075
g10
ag19
asS'sympathized'
p4076
(lp4077
g4
asS'stewards'
p4078
(lp4079
g55
asS'boldness'
p4080
(lp4081
g19
asS'belied'
p4082
(lp4083
g20
ag4
asS'commits'
p4084
(lp4085
g55
ag55
asS'fore-bemoaned'
p4086
(lp4087
g13
asS'forgive'
p4088
(lp4089
g13
asS'pleasant'
p4090
(lp4091
g13
asS'qualify'
p4092
(lp4093
g10
asS'base'
p4094
(lp4095
g19
ag19
ag13
ag13
ag10
asg357
(lp4096
S'there'
p4097
asS'impeached'
p4098
(lp4099
g13
asS'put'
p4100
(lp4101
g4
ag20
ag20
ag20
ag4
ag10
ag20
asS'teach'
p4102
(lp4103
g22
ag22
ag10
asS'reproach'
p4104
(lp4105
g19
asS"know'st"
p4106
(lp4107
g19
ag10
ag19
ag19
asS'beast'
p4108
(lp4109
g19
ag19
asS'owners'
p4110
(lp4111
S'NNS'
p4112
asS'service'
p4113
(lp4114
g19
asS"woman's"
p4115
(lp4116
g13
ag13
ag20
asS'noted'
p4117
(lp4118
g13
asS'sicken'
p4119
(lp4120
g22
asS'pure'
p4121
(lp4122
g19
ag19
asS'twenty'
p4123
(lp4124
g19
asS'corrupting'
p4125
(lp4126
g29
asS'feed'
p4127
(lp4128
g19
asS'gazed'
p4129
(lp4130
g4
asS'seeming'
p4131
(lp4132
g29
ag19
ag29
ag29
asS'forwards'
p4133
(lp4134
g55
asS'blush'
p4135
(lp4136
g10
asS'feel'
p4137
(lp4138
g22
ag10
asS'number'
p4139
(lp4140
S'NN'
p4141
ag4141
ag4141
asS'antiquity'
p4142
(lp4143
g19
ag19
asS'elder'
p4144
(lp4145
g393
asS'enlarged'
p4146
(lp4147
g20
asS'revolution'
p4148
(lp4149
g19
asS'done'
p4150
(lp4151
S'VBN'
p4152
ag4152
ag4152
ag4152
ag4152
asS'defects'
p4153
(lp4154
g55
asS'dreading'
p4155
(lp4156
g29
asS'slept'
p4157
(lp4158
g22
asS'rents'
p4159
(lp4160
g55
asS'moan'
p4161
(lp4162
g19
ag19
ag19
ag19
ag19
asS'horse'
p4163
(lp4164
g19
ag19
asS'guest'
p4165
(lp4166
g19
ag19
asS'become'
p4167
(lp4168
g4
asS'rondure'
p4169
(lp4170
g19
asS'together'
p4171
(lp4172
g36
asS'slanderers'
p4173
(lp4174
g55
asS'least'
p4175
(lp4176
g52
ag52
ag52
ag52
ag52
asS'hallowed'
p4177
(lp4178
g20
asS'shamed'
p4179
(lp4180
g4
asS'passed'
p4181
(lp4182
g4
ag4
asS'essays'
p4183
(lp4184
g55
asS'hundred'
p4185
(lp4186
g13
asS'store'
p4187
(lp4188
g19
ag10
ag19
ag19
ag19
ag19
ag19
ag19
ag19
asS'lease'
p4189
(lp4190
g13
ag393
ag19
ag19
asS'youngly'
p4191
(lp4192
g36
asS'selling'
p4193
(lp4194
g29
asS'imperfect'
p4195
(lp4196
g19
asS'saint'
p4197
(lp4198
g19
asS'longing'
p4199
(lp4200
g19
asS'adonis'
p4201
(lp4202
g19
asS'part'
p4203
(lp4204
S'NN'
p4205
ag4205
ag4205
ag4205
ag4205
ag4205
ag4205
ag4205
ag4205
ag4205
ag4205
ag4205
ag4205
ag4205
ag4205
ag4205
ag4205
ag4205
ag4205
ag4205
asS'bower'
p4206
(lp4207
g393
asg43
(lp4208
S'whose'
p4209
asS'believe'
p4210
(lp4211
g10
ag10
ag22
ag10
asS'grace'
p4212
(lp4213
g10
ag22
ag19
ag19
ag19
ag22
ag19
ag19
ag19
ag19
ag10
asS'king'
p4214
(lp4215
g19
ag19
asS'kind'
p4216
(lp4217
S'NN'
p4218
ag4218
ag4218
ag4218
ag4218
ag4218
ag4218
ag4218
ag4218
ag4218
ag4218
asS'grew'
p4219
(lp4220
S'VBD'
p4221
ag4221
ag4221
ag4221
ag4221
asS'mortality'
p4222
(lp4223
g19
asS'vial'
p4224
(lp4225
g13
asS'double'
p4226
(lp4227
g13
ag13
asS'anticipate'
p4228
(lp4229
g22
asS'mortgaged'
p4230
(lp4231
g4
asS'grey'
p4232
(lp4233
g13
asS'shallowest'
p4234
(lp4235
g52
asS'youth'
p4236
(lp4237
g19
ag19
ag19
ag19
ag19
ag19
ag19
ag19
ag19
ag19
ag36
ag36
ag19
ag19
ag19
asS'autumn'
p4238
(lp4239
g19
ag19
asS'determined'
p4240
(lp4241
g4
asS'contrary'
p4242
(lp4243
g13
asS'supposed'
p4244
(lp4245
g4
ag4
asS'toward'
p4246
(lp4247
S'IN'
p4248
asS'restful'
p4249
(lp4250
g13
asS'afar'
p4251
(lp4252
g19
asS'tongues'
p4253
(lp4254
g55
ag55
ag55
ag55
asS'trifles'
p4255
(lp4256
g55
asS'ages'
p4257
(lp4258
g55
asS'defect'
p4259
(lp4260
g19
ag19
asS'livery'
p4261
(lp4262
g19
asS'new-fired'
p4263
(lp4264
g20
asS'alike'
p4265
(lp4266
g76
asS'showers'
p4267
(lp4268
g55
ag55
asS'travail'
p4269
(lp4270
g19
asS'fading'
p4271
(lp4272
g13
ag29
asS'sensual'
p4273
(lp4274
g13
ag13
asS'sell'
p4275
(lp4276
g10
asS'mountain'
p4277
(lp4278
g19
ag19
asS'nights'
p4279
(lp4280
g55
ag55
asS'built'
p4281
(lp4282
g4
ag4
asS'dancing'
p4283
(lp4284
g29
asS'self'
p4285
(lp4286
g19
ag55
ag19
ag19
ag19
ag19
ag19
ag19
ag19
ag19
ag808
ag19
ag19
ag19
ag19
ag808
ag19
ag19
ag19
ag19
ag13
ag19
ag808
ag19
ag19
ag19
ag19
ag13
ag19
ag762
ag808
ag19
ag19
ag19
ag808
ag19
ag19
ag19
ag19
ag19
ag808
ag808
ag19
ag19
ag808
ag808
ag808
ag19
ag808
ag808
ag19
ag19
ag19
ag19
ag13
ag19
ag808
ag10
ag13
ag19
ag19
ag808
ag19
ag808
ag19
ag19
ag19
ag19
ag19
ag19
ag20
ag19
ag13
ag19
ag19
ag55
asS'onset'
p4287
(lp4288
g19
asS'lifts'
p4289
(lp4290
g21
asS'lip'
p4291
(lp4292
g19
asS'finding'
p4293
(lp4294
g29
ag29
asS'drinks'
p4295
(lp4296
g21
asS'chary'
p4297
(lp4298
g13
asS"art's"
p4299
(lp4300
g13
asS"'had"
p4301
(lp4302
g579
asS'towards'
p4303
(lp4304
g55
ag76
asS'reckon'
p4305
(lp4306
g22
asS'drowns'
p4307
(lp4308
g55
asg1028
(lp4309
S'most'
p4310
asg499
(lp4311
S'more'
p4312
asS'unused'
p4313
(lp4314
g13
ag13
ag13
ag13
asS'most'
p4315
(lp4316
g1028
ag52
ag1028
ag1028
ag1028
ag1028
ag52
ag1028
ag52
ag1028
ag1028
ag1028
ag1028
ag1028
ag1028
ag1028
ag1028
ag1028
ag52
ag1028
ag1028
ag1028
ag1028
ag52
ag52
ag1028
ag52
asS'offences'
p4317
(lp4318
g55
asS'blunting'
p4319
(lp4320
g29
asS'amazeth'
p4321
(lp4322
g55
asS'nothing'
p4323
(lp4324
S'NN'
p4325
ag4325
ag4325
ag4325
ag4325
ag4325
ag4325
ag4325
ag4325
ag4325
ag4325
ag4325
ag4325
ag4325
ag4325
ag4325
ag4325
ag4325
ag4325
asS'seasons'
p4326
(lp4327
g55
ag55
asS"o'ercharged"
p4328
(lp4329
g4
asS'wastes'
p4330
(lp4331
g55
ag21
asS'measured'
p4332
(lp4333
g4
asS'stands'
p4334
(lp4335
g55
ag21
ag55
asS'chronicle'
p4336
(lp4337
g19
asS'feasting'
p4338
(lp4339
g29
asS'windows'
p4340
(lp4341
g55
ag55
ag55
asS'builded'
p4342
(lp4343
g4
asS'clear'
p4344
(lp4345
g13
ag13
ag13
asS'sometimes'
p4346
(lp4347
g36
asS'cover'
p4348
(lp4349
g36
ag10
ag10
asS'unbred'
p4350
(lp4351
g20
asS'reeleth'
p4352
(lp4353
g21
asS'barren'
p4354
(lp4355
g55
ag13
ag13
ag36
ag13
asS'convertest'
p4356
(lp4357
g19
asS'eisel'
p4358
(lp4359
g19
asS'lying'
p4360
(lp4361
g29
asS'stones'
p4362
(lp4363
g55
asS'self-substantial'
p4364
(lp4365
g13
asS'despise'
p4366
(lp4367
g22
ag10
asS'gold'
p4368
(lp4369
g13
ag13
asS'gates'
p4370
(lp4371
g55
asS"y'have"
p4372
(lp4373
g22
asS'wailing'
p4374
(lp4375
g19
asS'fond'
p4376
(lp4377
g10
ag19
asS'bending'
p4378
(lp4379
g29
ag29
asS'rhymers'
p4380
(lp4381
g55
asS'wasted'
p4382
(lp4383
g13
asS'registers'
p4384
(lp4385
g55
asg13
(lp4386
S'i'
asS'fine'
p4387
(lp4388
g13
ag13
asS'find'
p4389
(lp4390
g22
ag55
ag10
ag10
ag22
ag10
ag10
ag10
ag10
ag22
ag10
ag10
ag22
ag22
ag22
ag10
asS'viewest'
p4391
(lp4392
g19
asS'sportive'
p4393
(lp4394
g13
asS'gilded'
p4395
(lp4396
g13
ag20
ag13
asS'flattery'
p4397
(lp4398
g19
ag19
ag19
asS'shouldst'
p4399
(lp4400
g13
ag13
ag19
ag13
ag22
ag19
asS'deserts'
p4401
(lp4402
g55
ag55
asS'ruin'
p4403
(lp4404
g13
asS'less'
p4405
(lp4406
g393
ag393
ag499
ag499
ag393
ag499
ag393
asS'waiting'
p4407
(lp4408
g29
asS'vision'
p4409
(lp4410
g19
asS'betray'
p4411
(lp4412
g19
ag10
asS'beauteous'
p4413
(lp4414
g13
ag13
ag13
ag13
ag13
ag13
ag13
ag13
ag13
asS'fiend'
p4415
(lp4416
g13
ag19
asS"painter's"
p4417
(lp4418
g13
asS'niggard'
p4419
(lp4420
g36
ag13
asS'gains'
p4421
(lp4422
S'NNS'
p4423
asS'mercy'
p4424
(lp4425
g10
asS'compiled'
p4426
(lp4427
g20
asS'express'
p4428
(lp4429
g10
ag22
asS'impregnable'
p4430
(lp4431
g22
asS'trees'
p4432
(lp4433
g55
asS'remedy'
p4434
(lp4435
g19
ag19
asS'hid'
p4436
(lp4437
g22
ag19
asS'breast'
p4438
(lp4439
g19
ag19
ag19
ag19
ag19
ag19
ag19
asS'compass'
p4440
(lp4441
g19
asS'swart-complexioned'
p4442
(lp4443
g13
asS'sepulchres'
p4444
(lp4445
g55
asS"send'st"
p4446
(lp4447
g19
asS'him'
p4448
(lp4449
S'PRP'
p4450
ag4450
ag4450
ag4450
ag4450
ag4450
ag4450
ag4450
ag4450
ag4450
ag4450
ag4450
ag4450
ag4450
ag4450
ag4450
ag4450
ag4450
ag4450
ag4450
ag4450
ag4450
ag4450
ag4450
ag4450
ag4450
ag4450
ag4450
ag4450
ag4450
ag4450
ag4450
ag4450
ag4450
ag4450
ag4450
ag4450
asS'distraction'
p4451
(lp4452
g19
asS'grievances'
p4453
(lp4454
g55
asS'pleasures'
p4455
(lp4456
g55
asS'cry'
p4457
(lp4458
g22
ag21
asS'impanelled'
p4459
(lp4460
g4
asS'remove'
p4461
(lp4462
g10
ag10
asS'augurs'
p4463
(lp4464
g55
asS'common'
p4465
(lp4466
S'JJ'
p4467
ag4467
ag4467
ag4467
asS'kill'
p4468
(lp4469
g10
ag10
ag22
ag10
asS'poisoned'
p4470
(lp4471
g4
asS'wrongfully'
p4472
(lp4473
g36
asS'bars'
p4474
(lp4475
g55
ag55
asS'set'
p4476
(lp4477
g4
ag4
ag19
ag4
ag10
ag10
ag10
asS'art'
p4478
(lp4479
g19
ag19
ag19
ag19
ag19
ag22
ag19
ag19
ag19
ag36
ag19
ag19
ag19
ag19
ag19
ag19
ag19
ag19
ag19
ag36
ag36
ag19
ag22
ag19
ag19
ag19
ag19
ag19
ag36
ag19
ag19
ag36
ag19
ag19
ag19
ag36
ag19
ag19
ag36
ag19
ag10
ag19
ag19
ag19
ag76
ag19
ag19
ag19
ag19
ag21
ag19
asS'declines'
p4480
(lp4481
g55
asS'jade'
p4482
(lp4483
g19
asS"o'ersways"
p4484
(lp4485
g21
asS'see'
p4486
(lp4487
g10
ag13
ag10
ag22
ag22
ag10
ag10
ag22
ag22
ag10
ag10
ag19
ag10
ag22
ag10
ag19
ag22
ag10
ag22
ag10
ag22
ag10
ag22
ag22
ag22
ag22
ag22
ag10
ag22
ag4
ag22
ag10
ag10
ag22
asS'bare'
p4488
(lp4489
g19
ag19
ag19
ag19
asS'are'
p4490
(lp4491
S'VBP'
p4492
ag4492
ag4492
ag4492
ag4492
ag4492
ag4492
ag4492
ag4492
ag4492
ag4492
ag4492
ag4492
ag4492
ag4492
ag4492
ag4492
ag4492
ag4492
ag4492
ag4492
ag4492
ag4492
ag4492
ag4492
ag4492
ag4492
ag4492
ag4492
ag4492
ag4492
ag4492
ag4492
ag4492
ag4492
ag4492
ag4492
ag4492
ag4492
ag4492
ag4492
ag4492
ag4492
ag4492
ag4492
ag4492
ag4492
ag4492
ag4492
ag4492
ag4492
ag4492
ag4492
ag4492
ag4492
ag4492
ag4492
ag4492
ag4492
ag4492
ag4492
ag4492
ag4492
ag4492
ag4492
ag4492
ag4492
ag4492
ag4492
asS'sea'
p4493
(lp4494
g19
ag19
ag19
ag19
asS'presenteth'
p4495
(lp4496
g13
asS'bark'
p4497
(lp4498
g19
ag19
asS'outward'
p4499
(lp4500
g13
ag76
ag19
ag13
ag13
ag13
ag19
asS'spirits'
p4501
(lp4502
g55
ag55
asS'forlorn'
p4503
(lp4504
g13
asS'please'
p4505
(lp4506
g10
ag10
ag10
ag10
asS'drooping'
p4507
(lp4508
g29
asS'unions'
p4509
(lp4510
g55
asS'won'
p4511
(lp4512
g4
asS'gentlest'
p4513
(lp4514
g52
asS'affairs'
p4515
(lp4516
S'NNS'
p4517
ag4517
asS'woe'
p4518
(lp4519
g19
ag19
ag10
ag22
ag19
ag10
ag19
ag19
ag55
ag19
ag19
ag13
asS'guilt'
p4520
(lp4521
g19
asS'rite'
p4522
(lp4523
g19
asS'tibey'
p4524
(lp4525
g19
asS'thrive'
p4526
(lp4527
g10
ag13
asS'endure'
p4528
(lp4529
g10
asS'knowing'
p4530
(lp4531
g29
ag29
ag29
ag29
asS'creating'
p4532
(lp4533
S'VBG'
p4534
asS'sold'
p4535
(lp4536
g4
asS'sole'
p4537
(lp4538
g13
asS'vanishing'
p4539
(lp4540
g29
asS'death'
p4541
(lp4542
S'NN'
p4543
ag4543
ag4543
ag4543
ag4543
ag4543
ag4543
ag4543
ag4543
ag4543
ag4543
ag4543
ag4543
ag4543
asS'alters'
p4544
(lp4545
g55
ag55
asS'both'
p4546
(lp4547
g1224
ag1224
ag1224
ag1224
ag1224
ag1224
ag1224
ag1224
ag1224
ag1224
ag1224
ag1224
ag1224
ag1224
ag1224
ag1224
asS'feeling'
p4548
(lp4549
g19
ag19
asS'last'
p4550
(lp4551
S'JJ'
p4552
ag4552
asS'grounded'
p4553
(lp4554
g13
ag20
asS'desired'
p4555
(lp4556
g13
ag4
asS'thou'
p4557
(lp4558
g19
ag19
ag13
ag13
ag19
ag19
ag21
ag19
ag76
ag13
ag13
ag19
ag19
ag19
ag19
ag19
ag19
ag21
ag13
ag10
ag13
ag13
ag19
ag19
ag19
ag22
ag22
ag21
ag13
ag13
ag21
ag13
ag13
ag21
ag13
ag19
ag19
ag19
ag22
ag22
ag13
ag19
ag19
ag10
ag19
ag13
ag10
ag19
ag19
ag13
ag20
ag19
ag10
ag76
ag19
ag19
ag13
ag13
ag19
ag13
ag13
ag13
ag10
ag13
ag19
ag19
ag13
ag20
ag10
ag55
ag19
ag19
ag19
ag4
ag13
ag19
ag19
ag19
ag13
ag13
ag13
ag13
ag19
ag19
ag13
ag13
ag13
ag13
ag55
ag13
ag19
ag19
ag19
ag19
ag13
ag19
ag13
ag19
ag19
ag19
ag19
ag19
ag13
ag19
ag19
ag19
ag76
ag13
ag13
ag19
ag19
ag21
ag19
ag21
ag13
ag36
ag19
ag19
ag10
ag19
ag13
ag13
ag19
ag19
ag19
ag19
ag13
ag19
ag19
ag13
ag19
ag22
ag10
ag19
ag19
ag13
ag13
ag13
ag19
ag19
ag19
ag19
ag13
ag19
ag19
ag19
ag22
ag19
ag13
ag21
ag13
ag19
ag10
ag13
ag55
ag19
ag13
ag13
ag13
ag19
ag10
ag19
ag19
ag13
ag13
ag19
ag76
ag36
ag13
ag19
ag19
ag19
ag13
ag10
ag21
ag19
ag19
ag19
ag19
ag13
ag13
ag13
ag21
ag19
ag19
ag19
ag13
ag19
ag36
ag13
ag19
ag13
ag19
ag19
ag19
ag13
ag10
ag10
ag19
ag19
ag13
ag19
ag13
ag13
ag13
ag19
ag13
ag13
ag21
ag19
ag19
ag13
ag13
ag10
ag19
ag19
ag19
ag10
ag22
ag19
ag19
ag13
ag13
ag19
ag19
ag22
ag19
ag19
ag13
asS'anon'
p4559
(lp4560
g19
ag19
asS'forgotten'
p4561
(lp4562
g4
asS'poverty'
p4563
(lp4564
g19
ag19
asS'possesseth'
p4565
(lp4566
g19
asS'approve'
p4567
(lp4568
g10
ag10
ag10
asS'finds'
p4569
(lp4570
g21
ag21
asS'usest'
p4571
(lp4572
g52
asS'flies'
p4573
(lp4574
g21
ag21
ag21
asS'majesty'
p4575
(lp4576
g19
ag19
asS'point'
p4577
(lp4578
g19
ag19
asS'reasons'
p4579
(lp4580
S'NNS'
p4581
ag4581
ag4581
asS'sweet'
p4582
(lp4583
g13
ag13
ag13
ag13
ag13
ag13
ag13
ag13
ag13
ag13
ag13
ag13
ag13
ag13
ag13
ag13
ag55
ag13
ag13
ag13
ag13
ag13
ag13
ag13
ag13
ag13
ag13
ag13
ag13
ag13
ag13
ag13
ag13
ag19
ag13
ag13
ag13
ag13
ag19
ag13
ag13
ag13
ag19
ag19
ag13
ag13
ag19
ag13
ag19
ag19
ag13
asS'loan'
p4584
(lp4585
S'NN'
p4586
asS'manners'
p4587
(lp4588
g55
ag55
ag55
asS'except'
p4589
(lp4590
g76
asS'liker'
p4591
(lp4592
g393
asS'worthless'
p4593
(lp4594
g19
ag19
asS'devil'
p4595
(lp4596
g13
asS'unworthiness'
p4597
(lp4598
g19
asS"'scaped"
p4599
(lp4600
g20
asS'arrest'
p4601
(lp4602
g36
asS'stamp'
p4603
(lp4604
g19
asS'devouring'
p4605
(lp4606
g13
asS'acceptance'
p4607
(lp4608
g19
asS'satire'
p4609
(lp4610
g19
asS'due'
p4611
(lp4612
g13
ag13
ag13
ag13
ag13
ag13
asS'adulterate'
p4613
(lp4614
g13
asS'whom'
p4615
(lp4616
S'WP'
p4617
ag4617
ag4617
ag4617
ag4617
ag4617
ag4617
ag4617
ag4617
ag4617
ag4617
ag4617
asS'secret'
p4618
(lp4619
g13
asS"wood's"
p4620
(lp4621
g19
asS'wait'
p4622
(lp4623
g10
ag22
asS'delights'
p4624
(lp4625
g55
ag55
asS'rosy'
p4626
(lp4627
g13
asS'firm'
p4628
(lp4629
g19
asS'lived'
p4630
(lp4631
g20
ag20
ag4
ag4
asS'partly'
p4632
(lp4633
S'RB'
p4634
asS'gay'
p4635
(lp4636
g19
ag19
asS"'twixt"
p4637
(lp4638
S'FW'
p4639
ag943
asS'fire'
p4640
(lp4641
g19
ag19
ag19
ag19
ag19
ag19
ag19
ag19
ag19
ag19
asS"dial's"
p4642
(lp4643
g19
asS'overthrow'
p4644
(lp4645
g19
asS'convert'
p4646
(lp4647
g19
asS'else'
p4648
(lp4649
g36
ag36
ag36
ag36
ag36
asS'lives'
p4650
(lp4651
g55
ag21
ag21
ag21
ag21
ag55
ag55
ag21
ag21
asS'receive'
p4652
(lp4653
g22
asS'mournful'
p4654
(lp4655
g13
asS'plants'
p4656
(lp4657
S'NNS'
p4658
asS'utmost'
p4659
(lp4660
g19
asS'look'
p4661
(lp4662
g19
ag10
ag19
ag19
ag10
ag19
ag10
ag19
ag22
ag19
ag19
ag22
ag22
ag10
ag19
ag10
ag22
ag10
ag22
ag10
ag22
ag10
asS'straight'
p4663
(lp4664
g13
ag36
ag13
ag4
ag13
ag20
ag19
asS'admire'
p4665
(lp4666
g22
asS'pace'
p4667
(lp4668
S'NN'
p4669
ag4669
ag4669
asS'while'
p4670
(lp4671
g19
ag76
ag76
ag76
ag76
ag76
asS'rigour'
p4672
(lp4673
g19
asS"intermixed'"
p4674
(lp4675
g19
asS'kissing'
p4676
(lp4677
g29
asS'eclipses'
p4678
(lp4679
g55
ag55
asg578
(lp4680
S"'will'"
p4681
asS'all-oblivious'
p4682
(lp4683
g13
asS'odour'
p4684
(lp4685
g19
ag19
ag19
asS'herein'
p4686
(lp4687
g19
asS'confound'
p4688
(lp4689
g19
ag19
asS'vow'
p4690
(lp4691
g19
ag36
asS'unperfect'
p4692
(lp4693
g13
asS'owes'
p4694
(lp4695
g21
asS'seen'
p4696
(lp4697
S'VBN'
p4698
ag4698
ag4698
ag4698
ag4698
ag4698
ag4698
ag4698
ag4698
ag4698
ag4698
asS'rid'
p4699
(lp4700
g13
asS'seest'
p4701
(lp4702
g22
ag22
asS'fairer'
p4703
(lp4704
g393
ag21
ag393
asS'chase'
p4705
(lp4706
g19
ag19
asS'twofold'
p4707
(lp4708
g13
asS'grant'
p4709
(lp4710
g19
ag22
ag22
ag19
asS'lengths'
p4711
(lp4712
g55
asS'bristly'
p4713
(lp4714
g36
asS'belong'
p4715
(lp4716
g76
ag76
asS'engrossed'
p4717
(lp4718
g4
asS'wherein'
p4719
(lp4720
g20
ag19
ag19
ag20
ag22
asS'discourse'
p4721
(lp4722
g19
asS'esteemed'
p4723
(lp4724
g4
ag4
asS'ruth'
p4725
(lp4726
g19
asS'composition'
p4727
(lp4728
g19
asS'covetous'
p4729
(lp4730
g13
asS'used'
p4731
(lp4732
g20
ag4
ag4
asS'lie'
p4733
(lp4734
g19
ag10
ag19
ag19
ag1223
ag10
ag4639
ag19
ag10
ag55
ag19
ag19
asS'mow'
p4735
(lp4736
g10
asS'moment'
p4737
(lp4738
S'NN'
p4739
asS'flown'
p4740
(lp4741
g4
asS'moving'
p4742
(lp4743
g29
ag29
asS'purpose'
p4744
(lp4745
g13
ag36
ag19
ag19
asS'wretchcd'
p4746
(lp4747
g13
asS'early'
p4748
(lp4749
g13
asS'task'
p4750
(lp4751
g10
asS'older'
p4752
(lp4753
g393
asS'accumulate'
p4754
(lp4755
g19
asS'cheek'
p4756
(lp4757
g22
ag19
ag19
ag19
asS'loathsome'
p4758
(lp4759
g19
asS"frown'st"
p4760
(lp4761
g13
asS'grind'
p4762
(lp4763
g10
asS'morrow'
p4764
(lp4765
g19
asS'cheer'
p4766
(lp4767
g19
asS'edge'
p4768
(lp4769
g19
ag19
ag19
asS'starved'
p4770
(lp4771
g4
asS'toil'
p4772
(lp4773
g19
ag19
ag22
ag19
asS'stelled'
p4774
(lp4775
g20
asS'spend'
p4776
(lp4777
g22
ag22
ag10
ag22
ag10
asS'plagues'
p4778
(lp4779
g55
asS'presume'
p4780
(lp4781
g19
asS'salve'
p4782
(lp4783
g19
ag19
asS'snow'
p4784
(lp4785
g13
asS'shape'
p4786
(lp4787
g19
ag19
ag19
ag19
ag19
asS'aright'
p4788
(lp4789
g13
asS'injuries'
p4790
(lp4791
g55
ag55
asS'unto'
p4792
(lp4793
g22
asS'gems'
p4794
(lp4795
g21
asS'tables'
p4796
(lp4797
g55
ag55
asS'cut'
p4798
(lp4799
g10
asS'cup'
p4800
(lp4801
g19
asS'hated'
p4802
(lp4803
g20
asS'decayed'
p4804
(lp4805
g4
asS'sire'
p4806
(lp4807
g19
asS'hues'
p4808
(lp4809
g55
asS'crying'
p4810
(lp4811
g29
asS"either's"
p4812
(lp4813
g10
ag19
asS"tongue's"
p4814
(lp4815
g19
asS'march'
p4816
(lp4817
g10
asS'lacking'
p4818
(lp4819
g29
asS'big'
p4820
(lp4821
S'JJ'
p4822
asS'bid'
p4823
(lp4824
g4
asS'advocate'
p4825
(lp4826
g19
asS'judgement'
p4827
(lp4828
g19
ag19
asS'redeem'
p4829
(lp4830
g19
asS'quest'
p4831
(lp4832
g19
ag52
asS'messengers'
p4833
(lp4834
g55
asS'dearly'
p4835
(lp4836
g19
asS'necessary'
p4837
(lp4838
S'JJ'
p4839
asS'sharpened'
p4840
(lp4841
g4
asS"garments'"
p4842
(lp4843
g19
asS'outright'
p4844
(lp4845
g13
asS'inviting'
p4846
(lp4847
g29
asS'follows'
p4848
(lp4849
S'VBZ'
p4850
asS"hate'"
p4851
(lp4852
g10
ag19
ag19
asS'strife'
p4853
(lp4854
g19
asS'shapes'
p4855
(lp4856
g21
asS'translated'
p4857
(lp4858
g4
asS'tribes'
p4859
(lp4860
g55
asS'foolish'
p4861
(lp4862
g13
asS'canst'
p4863
(lp4864
g22
ag19
ag4
ag19
ag19
ag19
ag13
asS'often'
p4865
(lp4866
S'RB'
p4867
ag4867
asS'wombs'
p4868
(lp4869
g55
asS'spring'
p4870
(lp4871
g19
ag19
ag19
ag19
ag19
asS'creation'
p4872
(lp4873
g19
ag19
asS'some'
p4874
(lp4875
S'DT'
p4876
ag4876
ag4876
ag4876
ag4876
ag4876
ag4876
ag4876
ag4876
ag4876
ag4876
ag4876
ag4876
ag4876
ag4876
ag4876
ag4876
ag4876
ag4876
ag4876
ag4876
ag4876
ag4876
ag4876
ag4876
ag4876
ag4876
ag4876
ag4876
ag4876
ag4876
asS'play'
p4877
(lp4878
g10
ag19
ag10
ag10
ag10
asS'sighs'
p4879
(lp4880
g55
asS'lips'
p4881
(lp4882
g55
ag55
ag55
ag55
ag55
ag55
ag55
asS'added'
p4883
(lp4884
g4
ag13
asS'sight'
p4885
(lp4886
g19
ag19
ag19
ag19
ag19
ag19
ag19
ag19
ag19
ag19
ag19
ag4
ag19
ag19
ag19
ag19
ag19
asS'curious'
p4887
(lp4888
g13
asS'pale'
p4889
(lp4890
g13
ag13
asS'sauces'
p4891
(lp4892
g55
asS'delivered'
p4893
(lp4894
g4
asS'acquaintance'
p4895
(lp4896
g19
ag10
ag19
asS'fairing'
p4897
(lp4898
g29
asS'shall'
p4899
(lp4900
S'MD'
p4901
ag4901
ag4901
ag4901
ag4901
ag4901
ag4901
ag4901
ag4901
ag4901
ag4901
ag4901
ag4901
ag4901
ag4901
ag4901
ag4901
ag4901
ag4901
ag4901
ag4901
ag4901
ag4901
ag4901
ag4901
ag4901
ag4901
ag4901
ag4901
ag4901
ag4901
ag4901
ag4901
ag4901
ag4901
ag4901
ag4901
ag4901
ag4901
ag4901
ag4901
ag4901
ag4901
ag4901
ag4901
ag4901
ag4901
ag4901
ag4901
ag4901
ag4901
ag4901
ag4901
ag4901
ag4901
ag4901
ag4901
ag4901
ag4901
asS'oblivion'
p4902
(lp4903
g19
asS'balmy'
p4904
(lp4905
g13
asS'kind-hearted'
p4906
(lp4907
g13
asS'barrenly'
p4908
(lp4909
g36
asS'lark'
p4910
(lp4911
g19
asS'worship'
p4912
(lp4913
g19
asS'be'
p4914
(lp4915
S'VB'
p4916
ag4916
ag4916
ag4916
ag4916
ag4916
ag4916
ag4916
ag4916
ag4916
ag4916
ag4916
ag4916
ag4916
ag4916
ag4916
ag4916
ag4916
ag4916
ag4916
ag4916
ag4916
ag4916
ag4916
ag4916
ag4916
ag4916
ag4916
ag4916
ag4916
ag4916
ag4916
ag4916
ag4916
ag4916
ag4916
ag4916
ag4916
ag4916
ag4916
ag4916
ag4916
ag4916
ag4916
ag4916
ag4916
ag4916
ag4916
ag4916
ag4916
ag4916
ag4916
ag4916
ag4916
ag4916
ag4916
ag4916
ag4916
ag4916
ag4916
ag4916
ag4916
ag4916
ag4916
ag4916
ag4916
ag4916
ag4916
ag4916
ag4916
ag4916
ag4916
ag4916
ag4916
ag4916
ag4916
ag4916
ag4916
ag4916
ag4916
ag4916
ag4916
ag4916
ag4916
ag4916
ag4916
ag4916
ag4916
ag4916
ag4916
ag4916
ag4916
ag4916
ag4916
ag4916
ag4916
ag4916
ag4916
ag4916
ag4916
ag4916
ag4916
ag4916
ag4916
ag4916
ag4916
ag4916
ag4916
ag4916
ag4916
ag4916
ag4916
ag4916
ag4916
ag4916
ag4916
ag4916
ag4916
ag4916
ag4916
ag4916
ag4916
ag4916
ag4916
ag4916
ag4916
ag4916
ag4916
ag4916
ag4916
ag4916
ag4916
ag4916
ag4916
ag4916
ag4916
ag4916
ag4916
ag4916
ag4916
ag4916
asS'run'
p4917
(lp4918
g19
asS'remembered'
p4919
(lp4920
g4
ag20
ag4
ag4
asS'clay'
p4921
(lp4922
g19
asS"shadow's"
p4923
(lp4924
g13
asS"'this"
p4925
(lp4926
g579
asS'aloft'
p4927
(lp4928
g36
asS'rent'
p4929
(lp4930
g19
asS'fee'
p4931
(lp4932
g19
asS'concealed'
p4933
(lp4934
g20
asS'universe'
p4935
(lp4936
g19
asS'by'
p4937
(lp4938
S'IN'
p4939
ag4939
ag4939
ag4939
ag4939
ag4939
ag4939
ag4939
ag4939
ag4939
ag4939
ag4939
ag4939
ag4939
ag4939
ag4939
ag4939
ag4939
ag4939
ag4939
ag4939
ag4939
ag4939
ag4939
ag4939
ag4939
ag4939
ag4939
ag4939
ag4939
ag4939
ag4939
ag4939
ag4939
ag4939
ag4939
ag4939
ag4939
ag4939
ag4939
ag4939
ag4939
ag4939
ag4939
ag4939
ag4939
ag4939
ag4939
ag4939
ag4939
ag4939
ag4939
ag4939
ag4939
ag4939
ag4939
ag4939
ag4939
ag4939
ag4939
ag4939
ag4939
ag4939
ag4939
ag4939
ag4939
ag4939
ag4939
ag4939
ag4939
ag4939
ag4939
ag4939
ag4939
ag4939
ag4939
ag4939
ag4939
ag4939
ag4939
ag4939
ag4939
ag4939
ag4939
ag4939
ag4939
ag4939
ag4939
ag4939
ag4939
ag4939
asS'shine'
p4940
(lp4941
g10
ag10
ag10
ag19
asS'faith'
p4942
(lp4943
g19
ag19
ag19
ag19
ag19
asS'deserved'
p4944
(lp4945
g4
asS'wrinkles'
p4946
(lp4947
g55
ag55
ag55
ag55
ag55
asS'deserves'
p4948
(lp4949
g21
asS'ambush'
p4950
(lp4951
g19
asS'hatred'
p4952
(lp4953
g4
asS'tenants'
p4954
(lp4955
g55
asS'youthful'
p4956
(lp4957
g13
ag13
asS'misplaced'
p4958
(lp4959
g20
asS'repair'
p4960
(lp4961
g19
ag10
ag19
asS'conquest'
p4962
(lp4963
g19
ag19
ag19
asS'within'
p4964
(lp4965
S'IN'
p4966
ag4966
ag4966
ag4966
ag4966
ag4966
ag4966
ag4966
ag4966
ag4966
ag4966
asS'warmed'
p4967
(lp4968
g4
asS'debateth'
p4969
(lp4970
g19
asS'services'
p4971
(lp4972
S'NNS'
p4973
asS'because'
p4974
(lp4975
g76
ag76
ag76
asS'remembrance'
p4976
(lp4977
g19
ag19
asS'lesson'
p4978
(lp4979
g19
asS"sharp'st"
p4980
(lp4981
g19
asS'story'
p4982
(lp4983
S'NN'
p4984
ag4984
ag4984
ag4984
asS'featureless'
p4985
(lp4986
g19
asS'spending'
p4987
(lp4988
g19
asS'costly'
p4989
(lp4990
S'JJ'
p4991
asS'question'
p4992
(lp4993
g19
ag19
asS'chide'
p4994
(lp4995
g13
ag13
ag22
ag22
asS'whereto'
p4996
(lp4997
g19
ag19
ag76
asS'slandering'
p4998
(lp4999
g29
asS'suit'
p5000
(lp5001
g19
asS'translate'
p5002
(lp5003
g10
asS'himself'
p5004
(lp5005
S'PRP'
p5006
ag5006
asS'arise'
p5007
(lp5008
g19
asS'elsewhere'
p5009
(lp5010
g36
ag36
ag36
asS'governs'
p5011
(lp5012
g21
asS'graciously'
p5013
(lp5014
g36
asS'healthful'
p5015
(lp5016
g13
ag13
asS'frost'
p5017
(lp5018
g19
asS'vowing'
p5019
(lp5020
g29
asS'authority'
p5021
(lp5022
g19
asS'newer'
p5023
(lp5024
g393
ag393
asS'filed'
p5025
(lp5026
g20
asS'hopes'
p5027
(lp5028
g55
ag55
asS'line'
p5029
(lp5030
S'NN'
p5031
ag5031
ag5031
asS'dull'
p5032
(lp5033
g13
ag13
ag13
ag10
ag10
ag19
asS'usury'
p5034
(lp5035
g19
asS'directed'
p5036
(lp5037
g20
asS'bevel'
p5038
(lp5039
g4
asS'immured'
p5040
(lp5041
g4
asS"lover's"
p5042
(lp5043
g13
asS'sullied'
p5044
(lp5045
g10
asS'us'
p5046
(lp5047
S'PRP'
p5048
ag5048
asS'lords'
p5049
(lp5050
g55
asS'maturity'
p5051
(lp5052
S'NN'
p5053
asS'slander'
p5054
(lp5055
g19
ag19
asS'hied'
p5056
(lp5057
g20
asS'called'
p5058
(lp5059
g4
ag4
asS'vassalage'
p5060
(lp5061
g19
asS'bell'
p5062
(lp5063
g19
asS'sort'
p5064
(lp5065
g19
ag19
asS'constant'
p5066
(lp5067
g13
ag13
ag13
asS'bind'
p5068
(lp5069
g76
asS'goodly'
p5070
(lp5071
g36
asS'allayed'
p5072
(lp5073
g4
asS'influence'
p5074
(lp5075
g19
ag19
asS'rarities'
p5076
(lp5077
g55
asS'single'
p5078
(lp5079
S'JJ'
p5080
ag5080
ag5080
ag5080
asS'mightier'
p5081
(lp5082
g393
asS'assailed'
p5083
(lp5084
g4
ag20
asS'surmise'
p5085
(lp5086
g19
asS'rainy'
p5087
(lp5088
g19
asS'sullen'
p5089
(lp5090
g4
ag19
asS'sunken'
p5091
(lp5092
g13
asS'impediments'
p5093
(lp5094
g55
asS'peace'
p5095
(lp5096
g19
ag19
asS'fears'
p5097
(lp5098
g21
ag21
ag55
ag55
ag55
ag21
asS'dimmed'
p5099
(lp5100
g20
asg3509
(lp5101
S'to'
p5102
asS'becomes'
p5103
(lp5104
g21
ag21
asS'nay'
p5105
(lp5106
g36
ag13
asS'mock'
p5107
(lp5108
g10
ag19
ag22
asS'wished'
p5109
(lp5110
g20
asS'perusal'
p5111
(lp5112
g13
asS'draw'
p5113
(lp5114
g13
ag22
ag10
asS'elements'
p5115
(lp5116
g55
ag55
asS'clean'
p5117
(lp5118
g13
asS'lend'
p5119
(lp5120
g22
ag19
ag10
ag10
ag10
asS'breasts'
p5121
(lp5122
g55
asS'rise'
p5123
(lp5124
g19
ag19
asS'weigh'
p5125
(lp5126
g10
asS'makeless'
p5127
(lp5128
g13
asS'wrinkle'
p5129
(lp5130
g13
asS'desert'
p5131
(lp5132
g19
ag10
ag19
asS'land'
p5133
(lp5134
g19
asS'happier'
p5135
(lp5136
g393
ag393
ag393
asS"excuse'"
p5137
(lp5138
g19
asS"spend'st"
p5139
(lp5140
g10
asS'vice'
p5141
(lp5142
S'NN'
p5143
asS'age'
p5144
(lp5145
S'NN'
p5146
ag5146
ag5146
ag5146
ag5146
ag5146
ag5146
ag5146
ag5146
ag5146
ag5146
ag5146
ag5146
ag5146
ag5146
asS'wards'
p5147
(lp5148
g55
asS'admiring'
p5149
(lp5150
g29
asS'heats'
p5151
(lp5152
g21
asS'came'
p5153
(lp5154
S'VBD'
p5155
ag5155
ag5155
asS'fresh'
p5156
(lp5157
g13
ag13
ag13
ag13
ag22
ag13
ag13
asS'marvel'
p5158
(lp5159
g19
asS'having'
p5160
(lp5161
S'VBG'
p5162
ag5162
ag5162
ag5162
ag5162
ag5162
asS'once'
p5163
(lp5164
g36
ag36
ag36
ag36
ag36
ag36
ag36
ag36
ag36
ag36
asS'wilfulness'
p5165
(lp5166
g19
asS'discontent'
p5167
(lp5168
g19
ag19
asS'highmost'
p5169
(lp5170
g4
asS'tombs'
p5171
(lp5172
g55
asS"deformed'st"
p5173
(lp5174
g13
asS'alien'
p5175
(lp5176
g19
asS'windy'
p5177
(lp5178
g13
asS'special-blest'
p5179
(lp5180
g19
asS'go'
p5181
(lp5182
g10
ag10
ag10
ag10
ag10
ag10
asS'ruminate'
p5183
(lp5184
g10
asS'seemed'
p5185
(lp5186
g20
ag4
ag20
asS'graves'
p5187
(lp5188
g55
asS'tincture'
p5189
(lp5190
g19
asS'uphold'
p5191
(lp5192
g10
asS'reckoned'
p5193
(lp5194
g4
asS'young'
p5195
(lp5196
S'JJ'
p5197
ag5197
ag5197
ag5197
asS'send'
p5198
(lp5199
g22
ag22
asS'debarred'
p5200
(lp5201
g4
asS'pleasing'
p5202
(lp5203
g19
ag13
asS'virtuous'
p5204
(lp5205
g13
ag13
ag13
asS'over-partial'
p5206
(lp5207
g13
asS'queen'
p5208
(lp5209
g19
asg2751
(lp5210
S'where'
p5211
asS'torture'
p5212
(lp5213
g10
ag10
asS"'now"
p5214
(lp5215
S'UH'
p5216
asS"'not"
p5217
(lp5218
g808
asS'confounding'
p5219
(lp5220
g29
asS'rhyme'
p5221
(lp5222
g19
ag19
ag19
ag19
ag19
ag19
asS'languished'
p5223
(lp5224
g20
asS'rebuked'
p5225
(lp5226
g4
asS'scanted'
p5227
(lp5228
g4
asS'accuse'
p5229
(lp5230
g76
ag22
asS'telling'
p5231
(lp5232
g29
asS'false-speaking'
p5233
(lp5234
g13
asS'iniquity'
p5235
(lp5236
g13
asS'bonds'
p5237
(lp5238
S'NNS'
p5239
ag5239
ag5239
asS'try'
p5240
(lp5241
g10
asS"eve's"
p5242
(lp5243
g19
asS'race'
p5244
(lp5245
S'NN'
p5246
asS'verdict'
p5247
(lp5248
g19
asS'betwixt'
p5249
(lp5250
g19
asS'rack'
p5251
(lp5252
g10
asS"alt'ring"
p5253
(lp5254
g29
asS'teachest'
p5255
(lp5256
g10
asS'crow'
p5257
(lp5258
g19
ag19
asS"work's"
p5259
(lp5260
g19
asS'thinly'
p5261
(lp5262
g36
asS'soul'
p5263
(lp5264
g19
ag19
ag19
ag19
ag19
ag19
ag19
ag19
ag20
ag13
asS'jump'
p5265
(lp5266
g10
asS'issueless'
p5267
(lp5268
g19
asS'plead'
p5269
(lp5270
g22
ag22
asS'decrees'
p5271
(lp5272
g55
asS'pity-wanting'
p5273
(lp5274
g13
asS'victor'
p5275
(lp5276
g19
asS'giving'
p5277
(lp5278
S'VBG'
p5279
ag5279
asS'saw'
p5280
(lp5281
g20
ag20
ag20
ag20
ag20
asS'expressed'
p5282
(lp5283
g13
ag4
ag20
asS"man's"
p5284
(lp5285
g13
ag4639
asS'rotten'
p5286
(lp5287
g13
ag4
asS'bird'
p5288
(lp5289
g19
asS'body'
p5290
(lp5291
g19
ag19
ag19
ag19
asS'melancholy'
p5292
(lp5293
g19
asS'chose'
p5294
(lp5295
g20
asS'gathered'
p5296
(lp5297
g4
asS'sins'
p5298
(lp5299
g55
ag55
ag55
asS'nimble'
p5300
(lp5301
g13
ag13
asS'scythe'
p5302
(lp5303
g19
ag19
ag19
ag19
asS'objects'
p5304
(lp5305
g55
ag55
asS'let'
p5306
(lp5307
g21
ag22
ag10
ag19
ag10
ag10
ag10
ag20
ag10
ag10
ag22
ag19
ag19
ag10
ag10
ag20
ag19
ag10
ag10
ag10
ag10
ag10
ag10
ag10
ag10
ag10
asS'separation'
p5308
(lp5309
g19
asS'others'
p5310
(lp5311
S'NNS'
p5312
ag5312
ag5312
ag5312
ag5312
ag5312
ag5312
ag5312
ag5312
ag5312
asS'dissuade'
p5313
(lp5314
g10
asS'sing'
p5315
(lp5316
g29
ag29
ag29
ag22
ag29
ag19
ag29
asS'miser'
p5317
(lp5318
g19
asS'extreme'
p5319
(lp5320
g13
ag4639
asS'great'
p5321
(lp5322
S'JJ'
p5323
ag5323
ag5323
ag5323
ag5323
ag5323
ag5323
ag5323
ag5323
ag5323
asS'burthens'
p5324
(lp5325
g21
asS'conceit'
p5326
(lp5327
g19
ag19
ag19
asS'metre'
p5328
(lp5329
g19
asS'leaving'
p5330
(lp5331
g29
asS'survey'
p5332
(lp5333
S'NN'
p5334
ag5334
asS'defeat'
p5335
(lp5336
g19
asS'proof'
p5337
(lp5338
g19
ag4
ag19
asS'makes'
p5339
(lp5340
S'VBZ'
p5341
ag5341
ag5341
ag5341
ag5341
ag5341
ag5341
ag5341
asS'writes'
p5342
(lp5343
g21
asS'composed'
p5344
(lp5345
g13
asS'thralled'
p5346
(lp5347
g13
asS'chaste'
p5348
(lp5349
g19
asS'apple'
p5350
(lp5351
S'NN'
p5352
asg4639
(lp5353
S'extreme'
p5354
asS'forbid'
p5355
(lp5356
g19
ag19
ag10
asS'win'
p5357
(lp5358
g19
ag10
ag10
ag10
asS"whoe'er"
p5359
(lp5360
g19
asS'private'
p5361
(lp5362
S'JJ'
p5363
asS'uprear'
p5364
(lp5365
g13
asS'instinct'
p5366
(lp5367
g13
asS'wit'
p5368
(lp5369
g19
ag19
ag22
ag19
ag19
ag19
asS'decrease'
p5370
(lp5371
g19
asS'scandal'
p5372
(lp5373
S'NN'
p5374
asS'cloud'
p5375
(lp5376
g19
ag19
asS'desiring'
p5377
(lp5378
g29
asS'use'
p5379
(lp5380
g19
ag19
ag19
ag22
ag19
ag19
ag19
ag76
ag22
ag76
ag10
ag10
ag19
asS'cheered'
p5381
(lp5382
g4
asS'from'
p5383
(lp5384
g3011
ag3011
ag3011
ag3011
ag3011
ag3011
ag3011
ag3011
ag3011
ag3011
ag3011
ag3011
ag3011
ag3011
ag3011
ag3011
ag3011
ag3011
ag3011
ag3011
ag3011
ag3011
ag3011
ag3011
ag3011
ag3011
ag3011
ag3011
ag3011
ag3011
ag3011
ag3011
ag3011
ag3011
ag3011
ag3011
ag3011
ag3011
ag3011
ag3011
ag3011
ag3011
ag3011
ag3011
ag3011
ag3011
ag3011
ag3011
ag3011
ag3011
ag3011
ag3011
ag3011
ag3011
ag3011
ag3011
ag3011
ag3011
ag3011
ag3011
ag3011
ag3011
ag3011
ag3011
ag3011
ag3011
ag3011
ag3011
ag3011
ag3011
ag3011
ag3011
ag3011
ag3011
ag3011
ag3011
ag3011
ag3011
ag3011
ag3011
asS'remains'
p5385
(lp5386
g55
asS'hammered'
p5387
(lp5388
g4
asS'next'
p5389
(lp5390
g13
ag13
asS'few'
p5391
(lp5392
S'JJ'
p5393
asS'doubt'
p5394
(lp5395
g19
asS'themselves'
p5396
(lp5397
S'PRP'
p5398
ag5398
ag5398
ag5398
ag5398
ag5398
asS'hiding'
p5399
(lp5400
g29
asS"sun's"
p5401
(lp5402
g19
asS'defendant'
p5403
(lp5404
g19
asS'cheeks'
p5405
(lp5406
g55
ag55
ag19
ag19
asS'possession'
p5407
(lp5408
g19
ag19
asS'pencil'
p5409
(lp5410
g19
ag19
asS'babe'
p5411
(lp5412
g19
ag19
ag19
ag19
asS'pretty'
p5413
(lp5414
g13
ag13
ag13
asS'misuse'
p5415
(lp5416
g10
asS'famoused'
p5417
(lp5418
g4
asS'heir'
p5419
(lp5420
g19
ag1955
ag19
asS"need'st"
p5421
(lp5422
g13
asS'infection'
p5423
(lp5424
g19
ag19
ag19
asS'insufficiency'
p5425
(lp5426
g19
asS'tattered'
p5427
(lp5428
g13
ag13
asS'gladly'
p5429
(lp5430
g36
asS'harvest'
p5431
(lp5432
g52
asS'annoy'
p5433
(lp5434
g19
asS"none'"
p5435
(lp5436
g19
asS'account'
p5437
(lp5438
g19
ag19
ag19
ag19
asS'salving'
p5439
(lp5440
g29
asS'this'
p5441
(lp5442
S'DT'
p5443
ag5443
ag5443
ag5443
ag5443
ag5443
ag5443
ag5443
ag5443
ag5443
ag5443
ag5443
ag5443
ag5443
ag5443
ag5443
ag5443
ag5443
ag5443
ag5443
ag5443
ag5443
ag5443
ag5443
ag5443
ag5443
ag5443
ag5443
ag5443
ag5443
ag5443
ag5443
ag5443
ag5443
ag5443
ag5443
ag5443
ag5443
ag5443
ag5443
ag5443
ag5443
ag5443
ag5443
ag5443
ag5443
ag5443
ag5443
ag5443
ag5443
ag5443
ag5443
ag5443
ag5443
ag5443
ag5443
ag5443
ag5443
ag5443
ag5443
ag5443
ag5443
ag5443
ag5443
ag5443
ag5443
ag5443
ag5443
ag5443
ag5443
ag5443
ag5443
ag5443
ag5443
ag5443
ag5443
ag5443
ag5443
ag5443
ag5443
ag5443
ag5443
ag5443
ag5443
ag5443
ag5443
ag5443
ag5443
ag5443
ag5443
ag5443
ag5443
ag5443
ag5443
ag5443
ag5443
ag5443
ag5443
ag5443
ag5443
ag5443
ag5443
ag5443
asS'ride'
p5444
(lp5445
g10
ag19
ag22
asS'crossed'
p5446
(lp5447
g4
asS'praise'
p5448
(lp5449
g10
ag13
ag10
ag19
ag19
ag22
ag19
ag19
ag19
ag19
ag19
ag19
ag19
ag19
ag19
ag19
ag19
ag19
ag19
ag19
ag19
ag19
ag19
ag10
ag19
ag19
ag19
ag10
asS'executor'
p5450
(lp5451
g19
asS'meet'
p5452
(lp5453
g19
ag10
asS'drops'
p5454
(lp5455
g55
asS'befits'
p5456
(lp5457
g55
asS'vaunt'
p5458
(lp5459
g19
asS'control'
p5460
(lp5461
g19
ag19
ag19
asS'dregs'
p5462
(lp5463
g19
asS'unswept'
p5464
(lp5465
g13
asS"grow'st"
p5466
(lp5467
g19
ag55
asS'ushers'
p5468
(lp5469
g55
asS'process'
p5470
(lp5471
g19
asS'high'
p5472
(lp5473
g13
ag13
ag13
ag13
asS'sought'
p5474
(lp5475
g20
asS'his'
p5476
(lp5477
g5
ag5
ag5
ag5
ag5
ag5
ag5
ag5
ag5
ag5
ag5
ag5
ag5
ag5
ag5
ag5
ag5
ag5
ag5
ag5
ag5
ag5
ag5
ag5
ag5
ag5
ag5
ag5
ag5
ag5
ag5
ag5
ag5
ag5
ag5
ag5
ag5
ag5
ag5
ag5
ag5
ag5
ag5
ag5
ag5
ag5
ag5
ag5
ag5
ag5
ag5
ag5
ag5
ag5
ag5
ag5
ag5
ag5
ag5
ag5
ag5
ag5
ag5
ag5
ag5
ag5
ag5
ag5
ag5
ag5
ag5
ag5
ag5
ag5
ag5
ag5
ag5
ag5
ag5
ag5
ag5
ag5
ag5
ag5
ag5
ag5
ag5
ag5
ag5
ag5
ag5
ag5
ag5
ag5
ag5
ag5
ag5
ag5
ag5
ag5
ag5
ag5
ag5
asS'something'
p5478
(lp5479
S'NN'
p5480
ag5480
asS'bones'
p5481
(lp5482
g55
asS'purposed'
p5483
(lp5484
g13
asS'paws'
p5485
(lp5486
g19
asS'darkening'
p5487
(lp5488
g29
asS'counterfeit'
p5489
(lp5490
g19
ag19
asS'lamb'
p5491
(lp5492
g19
asS'comes'
p5493
(lp5494
S'VBZ'
p5495
ag5495
asS'counting'
p5496
(lp5497
g29
ag29
asS'compounded'
p5498
(lp5499
g20
asS'falls'
p5500
(lp5501
g55
asS'sit'
p5502
(lp5503
g19
ag10
asS"sickle's"
p5504
(lp5505
g13
asS'holds'
p5506
(lp5507
S'VBZ'
p5508
ag5508
ag5508
ag5508
ag5508
asS'thrall'
p5509
(lp5510
g19
asS'moods'
p5511
(lp5512
g55
asS'swear'
p5513
(lp5514
g22
ag22
ag13
ag13
ag22
ag10
ag10
asS'beams'
p5515
(lp5516
g55
asS'mightst'
p5517
(lp5518
g19
ag22
asS'forsaken'
p5519
(lp5520
g4
asS'sin'
p5521
(lp5522
g19
ag19
ag19
ag19
ag19
ag13
ag19
ag19
asS'watery'
p5523
(lp5524
g19
asS'attend'
p5525
(lp5526
g10
asS'watch'
p5527
(lp5528
g22
ag19
asS'canker'
p5529
(lp5530
g19
ag19
ag19
ag19
asS'abuse'
p5531
(lp5532
g76
ag76
ag19
asS'fits'
p5533
(lp5534
g55
asS"worth's"
p5535
(lp5536
g13
asS'tomb'
p5537
(lp5538
g19
ag19
ag19
ag19
ag19
asS'physic'
p5539
(lp5540
g19
ag22
asS'bankrupt'
p5541
(lp5542
g19
asS'untrimmed'
p5543
(lp5544
g13
asS'light'
p5545
(lp5546
g19
ag19
ag20
ag13
ag13
ag13
asS'lame'
p5547
(lp5548
g19
ag13
asS'lines'
p5549
(lp5550
S'NNS'
p5551
ag5551
ag5551
ag5551
ag5551
ag5551
ag5551
ag5551
asS'chief'
p5552
(lp5553
g13
ag19
asS'writ'
p5554
(lp5555
g19
ag21
ag13
ag4
ag4
ag22
asS'allow'
p5556
(lp5557
g10
ag19
asS'tenure'
p5558
(lp5559
g19
asS'favourites'
p5560
(lp5561
g21
asS'dispraise'
p5562
(lp5563
g19
asS'neglect'
p5564
(lp5565
g19
ag19
asS'beauties'
p5566
(lp5567
g55
ag55
ag55
ag55
asS'stamped'
p5568
(lp5569
g20
asS'transfix'
p5570
(lp5571
g76
asS'move'
p5572
(lp5573
g19
asS'sightless'
p5574
(lp5575
g19
ag13
asS"o'erlook"
p5576
(lp5577
g22
asS'vainly'
p5578
(lp5579
g36
ag36
asS'whilst'
p5580
(lp5581
g19
ag19
ag19
ag22
ag19
ag76
ag22
ag55
ag1801
ag19
ag76
ag19
ag20
asS'beguile'
p5582
(lp5583
g76
asS'dearest'
p5584
(lp5585
g52
ag19
ag52
asS'enclose'
p5586
(lp5587
g22
asS'looks'
p5588
(lp5589
g21
ag55
ag55
ag55
ag21
ag21
ag55
ag55
ag21
ag21
ag55
ag55
ag55
asS'tyrant'
p5590
(lp5591
g13
ag19
asS'thyself'
p5592
(lp5593
g808
asS'badges'
p5594
(lp5595
g55
asS'perfect'
p5596
(lp5597
g13
ag13
asS'refusest'
p5598
(lp5599
g19
asS'frailties'
p5600
(lp5601
g55
ag55
asS'brood'
p5602
(lp5603
g19
asS'whereon'
p5604
(lp5605
g22
ag19
ag13
asS'unstained'
p5606
(lp5607
g13
asS'decay'
p5608
(lp5609
g19
ag10
ag19
ag19
ag10
ag10
ag19
ag19
ag10
asS'lo'
p5610
(lp5611
g19
ag13
ag19
asS'whereof'
p5612
(lp5613
g19
ag22
asS'banquet'
p5614
(lp5615
g19
asS'themes'
p5616
(lp5617
g55
asS'willing'
p5618
(lp5619
S'JJ'
p5620
ag5620
asS'choose'
p5621
(lp5622
g10
asS'tickled'
p5623
(lp5624
g13
asS'greater'
p5625
(lp5626
S'JJR'
p5627
ag5627
ag5627
ag5627
asS'anchored'
p5628
(lp5629
g4
asS'sweets'
p5630
(lp5631
g21
ag55
ag55
ag55
ag21
ag55
asS'stout'
p5632
(lp5633
g36
asS'hands'
p5634
(lp5635
g55
ag55
asS'front'
p5636
(lp5637
g13
asS"owner's"
p5638
(lp5639
g19
asS'kindness'
p5640
(lp5641
g19
ag19
asS'affections'
p5642
(lp5643
g55
asS'day'
p5644
(lp5645
S'NN'
p5646
ag5646
ag5646
ag5646
ag5646
ag5646
ag5646
ag5646
ag5646
ag5646
ag5646
ag5646
ag5646
ag5646
ag5646
ag5646
ag5646
ag5646
ag5646
ag5646
ag5646
ag5646
ag5646
ag5646
ag5646
asS'damasked'
p5647
(lp5648
g20
asS'strive'
p5649
(lp5650
g10
ag13
asS'profound'
p5651
(lp5652
g13
asS'eased'
p5653
(lp5654
g4
asS'feast'
p5655
(lp5656
g19
ag19
asS'mouthed'
p5657
(lp5658
g4
asS'trimmed'
p5659
(lp5660
g4
asS'slide'
p5661
(lp5662
g19
asS'truth'
p5663
(lp5664
g19
ag19
ag19
ag19
ag19
ag21
ag19
ag19
ag19
ag19
ag19
ag19
ag19
ag19
ag19
ag19
ag19
ag19
ag19
ag19
ag19
ag19
asS'gazing'
p5665
(lp5666
g19
asS'legions'
p5667
(lp5668
g55
asS'treads'
p5669
(lp5670
g55
asS'pitying'
p5671
(lp5672
g29
asS'female'
p5673
(lp5674
g13
asS'doing'
p5675
(lp5676
S'VBG'
p5677
ag5677
asS"princes'"
p5678
(lp5679
g19
asS'waking'
p5680
(lp5681
g29
asS'alteration'
p5682
(lp5683
g19
asS'society'
p5684
(lp5685
g19
asS'decays'
p5686
(lp5687
g55
asS'exceeded'
p5688
(lp5689
g4
asS'our'
p5690
(lp5691
S'PRP$'
p5692
ag5692
ag5692
ag5692
ag5692
ag5692
ag5692
ag5692
ag5692
ag5692
ag5692
ag5692
ag5692
ag5692
ag5692
ag5692
ag5692
ag5692
asS'bay'
p5693
(lp5694
g19
asS'tenth'
p5695
(lp5696
g19
asS'beweep'
p5697
(lp5698
g13
asS'out'
p5699
(lp5700
g76
ag463
ag76
ag463
ag76
ag463
ag76
ag463
ag463
ag463
ag463
ag463
ag463
ag76
ag76
ag463
asS'respects'
p5701
(lp5702
g55
asS"'"
(lp5703
g1700
ag1700
ag1700
asS"children's"
p5704
(lp5705
g13
asS'plods'
p5706
(lp5707
g55
asS'confess'
p5708
(lp5709
g10
asS'sufficed'
p5710
(lp5711
g4
asS'bad'
p5712
(lp5713
S'JJ'
p5714
ag5714
ag5714
ag5714
ag5714
ag5714
ag5714
asS'frowns'
p5715
(lp5716
g55
asS'impart'
p5717
(lp5718
g13
asS'cause'
p5719
(lp5720
g19
ag19
ag19
asS'red'
p5721
(lp5722
g13
ag13
ag13
asS'monuments'
p5723
(lp5724
g55
asS'perish'
p5725
(lp5726
g13
asS'frank'
p5727
(lp5728
g13
asS'darkly'
p5729
(lp5730
g13
asS'embassy'
p5731
(lp5732
g19
asS'attending'
p5733
(lp5734
g29
ag29
asS'tresses'
p5735
(lp5736
g55
asS'thrust'
p5737
(lp5738
g10
asS'yore'
p5739
(lp5740
g36
asS'cured'
p5741
(lp5742
g4
asS'prepare'
p5743
(lp5744
g10
ag22
asS'rearward'
p5745
(lp5746
g19
asS'could'
p5747
(lp5748
S'MD'
p5749
ag5749
ag5749
ag5749
ag5749
ag5749
ag5749
ag5749
ag5749
asS'keep'
p5750
(lp5751
g10
ag10
ag10
ag10
ag10
ag10
ag10
ag10
asS'counterpart'
p5752
(lp5753
g13
asS'keen'
p5754
(lp5755
g13
ag13
asS'length'
p5756
(lp5757
g19
asS'cures'
p5758
(lp5759
g21
asS'mortal'
p5760
(lp5761
g13
ag13
ag13
ag13
ag13
asS'hence'
p5762
(lp5763
g19
ag36
ag36
ag19
ag36
ag19
asS'ears'
p5764
(lp5765
g55
asS'rudely'
p5766
(lp5767
g36
asS'new-appearing'
p5768
(lp5769
g13
asS'fragrant'
p5770
(lp5771
g19
asS'pitied'
p5772
(lp5773
g4
asS'possessing'
p5774
(lp5775
g19
ag19
asS'powerful'
p5776
(lp5777
S'JJ'
p5778
ag5778
asS'loveliness'
p5779
(lp5780
g19
asS'feasts'
p5781
(lp5782
g55
asS"learned's"
p5783
(lp5784
g19
asS'such'
p5785
(lp5786
g13
ag13
ag13
ag13
ag13
ag762
ag13
ag13
ag13
ag13
ag13
ag13
ag762
ag13
ag13
ag13
ag13
ag13
ag13
ag13
ag13
ag13
ag13
ag762
ag13
ag13
ag762
ag13
ag13
ag13
ag13
asS'reigned'
p5787
(lp5788
g20
asS'quality'
p5789
(lp5790
g19
asS'moiety'
p5791
(lp5792
g19
asS'uneared'
p5793
(lp5794
g13
asS"love'"
p5795
(lp5796
g13
asS'sadly'
p5797
(lp5798
g36
asS'ordering'
p5799
(lp5800
g29
asS'dove'
p5801
(lp5802
g10
asS'vulgar'
p5803
(lp5804
g19
ag19
ag19
asS'seat'
p5805
(lp5806
g19
ag19
asS'their'
p5807
(lp5808
S'PRP$'
p5809
ag5809
ag5809
ag5809
ag5809
ag5809
ag5809
ag5809
ag5809
ag5809
ag5809
ag5809
ag5809
ag5809
ag5809
ag5809
ag5809
ag5809
ag5809
ag5809
ag5809
ag5809
ag5809
ag5809
ag5809
ag5809
ag5809
ag5809
ag5809
ag5809
ag5809
ag5809
ag5809
ag5809
ag5809
ag5809
ag5809
ag5809
ag5809
ag5809
ag5809
ag5809
ag5809
ag5809
ag5809
ag5809
ag5809
ag5809
ag5809
ag5809
ag5809
ag5809
ag5809
ag5809
ag5809
ag5809
ag5809
ag5809
ag5809
ag5809
ag5809
ag5809
ag5809
asS'intelligence'
p5810
(lp5811
g19
asS'prouder'
p5812
(lp5813
g19
asS'travelled'
p5814
(lp5815
g20
asS'badness'
p5816
(lp5817
g19
asS'fairest'
p5818
(lp5819
g52
ag52
ag52
ag52
ag52
asS'painful'
p5820
(lp5821
g13
asS'low'
p5822
(lp5823
g13
asS'never-resting'
p5824
(lp5825
g13
asS"were't"
p5826
(lp5827
g19
asS'perforce'
p5828
(lp5829
g19
asS'prefiguring'
p5830
(lp5831
g22
asS'spites'
p5832
(lp5833
g55
asS'commence'
p5834
(lp5835
g19
asS'soundless'
p5836
(lp5837
g13
asS'steel'
p5838
(lp5839
S'NN'
p5840
ag5840
ag5840
asS'loved'
p5841
(lp5842
g20
ag20
ag20
ag4
ag20
asS'unlooked'
p5843
(lp5844
g20
ag20
asS'aught'
p5845
(lp5846
g4
ag19
asS"o'er"
p5847
(lp5848
g463
ag76
ag13
ag76
ag13
ag36
asS'riches'
p5849
(lp5850
g55
ag55
asS'richer'
p5851
(lp5852
g393
asS'bed'
p5853
(lp5854
g19
asS'jollity'
p5855
(lp5856
g19
asS'transgression'
p5857
(lp5858
g19
asS"body's"
p5859
(lp5860
g19
ag19
ag13
ag19
asS'loves'
p5861
(lp5862
g55
ag55
ag55
ag21
ag21
ag55
ag21
ag55
asS'lover'
p5863
(lp5864
g36
asS'dumb'
p5865
(lp5866
g13
ag13
ag19
ag13
ag13
ag13
asS"lily's"
p5867
(lp5868
g13
asS'steep'
p5869
(lp5870
g10
asS'descriptions'
p5871
(lp5872
g55
asS'drunk'
p5873
(lp5874
g19
asS'accusing'
p5875
(lp5876
g29
asS'enforced'
p5877
(lp5878
g20
asS'beggared'
p5879
(lp5880
g4
asS'false'
p5881
(lp5882
g13
ag13
ag13
ag10
ag13
ag36
ag13
ag13
ag13
ag13
ag13
ag13
ag13
ag13
ag13
ag13
ag13
ag13
asS"forget'st"
p5883
(lp5884
g55
asS'beggar'
p5885
(lp5886
g19
asS'labouring'
p5887
(lp5888
g29
asS'gently'
p5889
(lp5890
g36
asS'refigured'
p5891
(lp5892
g20
asS'gentle'
p5893
(lp5894
g13
ag13
ag13
ag13
ag19
ag13
ag13
ag13
ag13
ag13
ag13
ag13
ag13
ag13
asS'buy'
p5895
(lp5896
g19
asS'torment'
p5897
(lp5898
g19
ag19
ag13
asS'have'
p5899
(lp5900
g22
ag22
ag22
ag22
ag22
ag22
ag22
ag22
ag22
ag22
ag22
ag22
ag22
ag22
ag22
ag22
ag22
ag22
ag22
ag10
ag22
ag10
ag22
ag10
ag10
ag22
ag22
ag10
ag22
ag10
ag22
ag22
ag22
ag22
ag22
ag22
ag22
ag22
ag10
ag22
ag22
ag22
ag22
ag22
ag10
ag22
ag22
ag22
ag22
ag22
ag22
ag22
ag22
ag10
ag22
ag22
ag22
ag22
ag10
ag22
ag22
ag22
ag22
ag22
ag10
ag22
ag22
ag10
ag10
ag22
ag22
ag22
ag22
ag22
ag22
ag22
asS're-survey'
p5901
(lp5902
g13
asS'need'
p5903
(lp5904
g19
ag22
ag19
ag10
ag22
asS'turn'
p5905
(lp5906
g22
ag22
ag22
asS'sings'
p5907
(lp5908
g55
ag55
asS'bastard'
p5909
(lp5910
g13
ag19
ag19
asS'bough'
p5911
(lp5912
g19
asS'wits'
p5913
(lp5914
g55
ag55
asS'able'
p5915
(lp5916
S'JJ'
p5917
asS'gravity'
p5918
(lp5919
g19
asS'adjunct'
p5920
(lp5921
g13
ag19
asS'which'
p5922
(lp5923
g392
ag392
ag392
ag392
ag392
ag392
ag392
ag392
ag392
ag392
ag392
ag392
ag392
ag392
ag392
ag392
ag392
ag392
ag392
ag392
ag392
ag392
ag392
ag392
ag392
ag392
ag392
ag392
ag392
ag392
ag392
ag392
ag392
ag392
ag392
ag392
ag392
ag392
ag392
ag392
ag392
ag392
ag392
ag392
ag392
ag392
ag392
ag392
ag392
ag392
ag392
ag392
ag392
ag392
ag392
ag392
ag392
ag392
ag392
ag392
ag392
ag392
ag392
ag392
ag392
ag392
ag392
ag392
ag392
ag392
ag392
ag392
ag392
ag392
ag392
ag392
ag392
ag392
ag392
ag392
ag392
ag392
ag392
ag392
ag392
ag392
ag392
ag392
ag392
ag392
ag392
ag392
ag392
ag392
ag392
ag392
ag392
ag392
ag392
ag392
ag392
ag392
ag392
ag392
ag392
ag392
ag392
asS'divert'
p5924
(lp5925
g10
asS'abhor'
p5926
(lp5927
g10
ag10
asS'adieu'
p5928
(lp5929
g13
asS'unless'
p5930
(lp5931
S'IN'
p5932
ag5932
ag5932
ag5932
ag5932
ag5932
asS'centre'
p5933
(lp5934
g19
asS'senses'
p5935
(lp5936
g55
asS'who'
p5937
(lp5938
g1801
ag1801
ag1801
ag1801
ag1801
ag1801
ag1801
ag1801
ag1801
ag1801
ag1801
ag1801
ag1801
ag1801
ag1801
ag1801
ag1801
ag1801
ag1801
ag1801
ag1801
ag1801
ag1801
ag1801
ag1801
ag1801
ag1801
asS'privilage'
p5939
(lp5940
g10
asS"beds'"
p5941
(lp5942
g19
asS"time's"
p5943
(lp5944
g76
ag19
ag19
ag13
ag13
ag19
ag19
ag10
ag13
ag13
ag19
ag19
ag13
ag10
ag10
asS'harmful'
p5945
(lp5946
g13
asS'offend'
p5947
(lp5948
g10
asS'lust'
p5949
(lp5950
g13
ag19
asS'but'
p5951
(lp5952
g1206
ag1206
ag1206
ag1206
ag1206
ag1206
ag1206
ag1206
ag1206
ag1206
ag1206
ag1206
ag1206
ag1206
ag1206
ag1206
ag1206
ag1206
ag1206
ag1206
ag1206
ag1206
ag1206
ag1206
ag1206
ag1206
ag1206
ag1206
ag1206
ag1206
ag1206
ag1206
ag1206
ag1206
ag1206
ag1206
ag1206
ag1206
ag1206
ag1206
ag1206
ag1206
ag1206
ag1206
ag1206
ag1206
ag1206
ag1206
ag1206
ag1206
ag1206
ag1206
ag1206
ag1206
ag1206
ag1206
ag1206
ag1206
ag1206
ag1206
ag1206
ag1206
ag1206
ag1206
ag1206
ag1206
ag1206
ag1206
ag1206
ag1206
ag1206
ag1206
ag1206
ag1206
ag1206
ag1206
ag1206
ag1206
ag1206
ag1206
ag1206
ag1206
ag1206
ag1206
ag1206
ag1206
ag1206
ag1206
ag1206
ag1206
ag1206
ag1206
ag1206
ag1206
ag1206
ag1206
ag1206
ag1206
ag1206
ag1206
ag1206
ag1206
ag1206
ag1206
ag1206
ag1206
ag1206
ag1206
ag1206
ag1206
ag1206
ag1206
ag1206
ag1206
ag1206
ag1206
ag1206
ag1206
ag1206
ag1206
ag1206
ag1206
ag1206
ag1206
ag1206
ag1206
ag1206
ag1206
ag1206
ag1206
ag1206
ag1206
ag1206
ag1206
ag1206
ag1206
ag1206
ag1206
ag1206
ag1206
ag1206
ag1206
ag1206
ag1206
ag1206
ag1206
ag1206
ag1206
ag1206
ag1206
ag1206
ag1206
ag1206
ag1206
ag1206
ag1206
ag1206
ag1206
ag1206
ag1206
asS'prisoner'
p5953
(lp5954
g19
asS'expired'
p5955
(lp5956
g20
asS'why'
p5957
(lp5958
S'WRB'
p5959
ag5959
ag5959
ag5959
ag5959
ag5959
ag5959
ag5959
ag5959
ag5959
ag5959
ag5959
ag5959
ag5959
ag5959
ag5959
ag5959
ag5959
ag5959
ag5959
ag5959
ag5959
ag5959
ag5959
ag5959
asS"husband's"
p5960
(lp5961
g13
asS'afresh'
p5962
(lp5963
g13
asS'deny'
p5964
(lp5965
g19
ag19
asS'wherewith'
p5966
(lp5967
g19
asS'bred'
p5968
(lp5969
g4
ag20
asS'stronger'
p5970
(lp5971
g393
ag393
asS'disease'
p5972
(lp5973
g19
asS"widow's"
p5974
(lp5975
g19
asS'pipe'
p5976
(lp5977
g19
asS'wounded'
p5978
(lp5979
g20
asS'painting'
p5980
(lp5981
g29
ag29
ag19
ag29
ag19
ag29
asS'outlive'
p5982
(lp5983
g10
ag10
ag22
asS'deface'
p5984
(lp5985
g19
asS'impression'
p5986
(lp5987
g19
asS'afloat'
p5988
(lp5989
g36
asS'wilful'
p5990
(lp5991
g13
asS'couldst'
p5992
(lp5993
g19
asS'burden'
p5994
(lp5995
g19
asS'poesy'
p5996
(lp5997
g19
asS'bring'
p5998
(lp5999
g22
ag10
ag19
ag10
ag22
ag10
ag19
ag76
asS"many's"
p6000
(lp6001
g19
asS'rough'
p6002
(lp6003
g19
asS'obsequious'
p6004
(lp6005
g13
ag13
asS'debate'
p6006
(lp6007
g19
asS'spurring'
p6008
(lp6009
g29
asS'envy'
p6010
(lp6011
g19
ag22
asS'knowledge'
p6012
(lp6013
g19
ag19
ag19
asS'chiding'
p6014
(lp6015
g29
asS'philomel'
p6016
(lp6017
g19
asS'mute'
p6018
(lp6019
g19
ag13
asS'woo'
p6020
(lp6021
g22
asS'world-without-end'
p6022
(lp6023
g13
asS'should'
p6024
(lp6025
S'MD'
p6026
ag6026
ag6026
ag6026
ag6026
ag6026
ag6026
ag6026
ag6026
ag6026
ag6026
ag6026
ag6026
ag6026
ag6026
ag6026
ag6026
ag6026
ag6026
ag6026
ag6026
ag6026
ag6026
ag6026
ag6026
ag6026
ag6026
ag6026
ag6026
ag6026
ag6026
ag6026
ag6026
ag6026
ag6026
ag6026
ag6026
ag6026
ag6026
ag6026
ag6026
ag6026
ag6026
ag6026
asS'bases'
p6027
(lp6028
g55
asS'preposterously'
p6029
(lp6030
g36
asS'fuel'
p6031
(lp6032
g19
asS'marriage'
p6033
(lp6034
g19
asS'inhabit'
p6035
(lp6036
g19
asS'hope'
p6037
(lp6038
g22
ag19
ag10
ag19
ag19
ag19
asS'meant'
p6039
(lp6040
g13
asS'accessary'
p6041
(lp6042
g13
asS'doubting'
p6043
(lp6044
g29
ag19
asS'means'
p6045
(lp6046
g55
ag442
ag21
asS'familiar'
p6047
(lp6048
S'JJ'
p6049
asS'bear'
p6050
(lp6051
g10
ag13
ag10
ag10
ag10
ag10
ag19
ag10
ag76
ag10
ag10
ag13
asS'perfection'
p6052
(lp6053
g19
ag19
asS'words'
p6054
(lp6055
S'NNS'
p6056
ag6056
ag6056
ag6056
ag6056
ag6056
ag6056
ag6056
ag6056
ag6056
asS'durst'
p6057
(lp6058
g13
asS'leases'
p6059
(lp6060
g55
asS'spur'
p6061
(lp6062
g13
ag10
asS"offence's"
p6063
(lp6064
g19
asS'endless'
p6065
(lp6066
g13
asS'heretic'
p6067
(lp6068
g13
asS'evident'
p6069
(lp6070
g13
asS'brain'
p6071
(lp6072
S'NN'
p6073
ag6073
ag6073
ag6073
ag6073
asS'gust'
p6074
(lp6075
g19
asS'married'
p6076
(lp6077
g4
ag4
asS'summon'
p6078
(lp6079
g20
asS'she'
p6080
(lp6081
S'PRP'
p6082
ag6082
ag6082
ag6082
ag6082
ag6082
ag6082
ag6082
ag6082
ag6082
ag6082
ag6082
ag6082
ag6082
ag6082
ag6082
ag6082
ag6082
ag6082
ag6082
ag6082
ag6082
ag6082
ag6082
ag6082
ag6082
ag6082
ag6082
ag6082
ag6082
ag6082
asS'contain'
p6083
(lp6084
g10
asS'fixed'
p6085
(lp6086
g4
ag4
asS'view'
p6087
(lp6088
g19
ag19
ag22
ag19
ag19
ag19
ag19
ag19
asS'strengthened'
p6089
(lp6090
g4
asS'sluttish'
p6091
(lp6092
g13
asS'untrue'
p6093
(lp6094
g13
ag19
asS'outbraves'
p6095
(lp6096
g21
asS'farthest'
p6097
(lp6098
g52
ag52
asS'miscalled'
p6099
(lp6100
g20
asS'frame'
p6101
(lp6102
g10
ag19
ag19
ag19
asS'shake'
p6103
(lp6104
g10
ag19
ag22
asS'legacy'
p6105
(lp6106
g19
asS'merits'
p6107
(lp6108
g21
asS'changes'
p6109
(lp6110
g55
asS'enfeebled'
p6111
(lp6112
g20
asS'violet'
p6113
(lp6114
g19
asS'sleeping'
p6115
(lp6116
g29
asS'tripping'
p6117
(lp6118
g29
asS'error'
p6119
(lp6120
g19
asS'closet'
p6121
(lp6122
g19
asS'record'
p6123
(lp6124
g19
ag19
ag19
asS'pattern'
p6125
(lp6126
g19
ag22
asS'vows'
p6127
(lp6128
g55
ag55
asS'unseeing'
p6129
(lp6130
g29
asS'tend'
p6131
(lp6132
g22
ag22
ag22
asS'state'
p6133
(lp6134
S'NN'
p6135
ag6135
ag6135
ag6135
ag6135
ag6135
ag6135
ag6135
ag6135
ag6135
ag6135
ag6135
ag6135
ag6135
asS'boughs'
p6136
(lp6137
g55
asS'progress'
p6138
(lp6139
g19
asS'neither'
p6140
(lp6141
g19
ag19
asS'besmeared'
p6142
(lp6143
g20
asS'wiry'
p6144
(lp6145
g19
asS'down-rased'
p6146
(lp6147
g13
asS'dateless'
p6148
(lp6149
g19
ag19
asS'dressings'
p6150
(lp6151
g55
asS'joy'
p6152
(lp6153
g13
ag19
ag19
ag19
ag19
ag19
ag19
ag19
asS'sorrow'
p6154
(lp6155
g19
ag19
ag19
ag19
ag19
asS'hooks'
p6156
(lp6157
g55
asS'key'
p6158
(lp6159
g19
asS'precious'
p6160
(lp6161
g13
ag13
ag13
ag13
ag13
ag13
asS'weary'
p6162
(lp6163
g13
ag13
ag13
ag13
asS'swift'
p6164
(lp6165
g13
ag13
ag13
ag13
ag13
asS'hits'
p6166
(lp6167
g55
asS'figured'
p6168
(lp6169
g4
asS'instant'
p6170
(lp6171
g13
asS'limits'
p6172
(lp6173
g55
asS'invited'
p6174
(lp6175
g4
asS'thence'
p6176
(lp6177
g10
ag19
ag19
ag19
ag19
ag10
ag19
ag19
asS'equal'
p6178
(lp6179
g13
asS'minds'
p6180
(lp6181
g55
ag55
ag55
asS'april'
p6182
(lp6183
g19
ag19
ag13
asS'admit'
p6184
(lp6185
g22
asS'devour'
p6186
(lp6187
g21
asS'streams'
p6188
(lp6189
g55
asS"store's"
p6190
(lp6191
g19
asS'behaviour'
p6192
(lp6193
g943
asS'canopy'
p6194
(lp6195
g10
ag19
asS'lofty'
p6196
(lp6197
g19
ag13
asS'kinds'
p6198
(lp6199
g55
asS'glorious'
p6200
(lp6201
g13
asS'aye'
p6202
(lp6203
g29
asS'comment'
p6204
(lp6205
g19
ag10
asS'fester'
p6206
(lp6207
g19
asS'torn'
p6208
(lp6209
g4
asS'statues'
p6210
(lp6211
g10
asS'unfolding'
p6212
(lp6213
g29
asS'walk'
p6214
(lp6215
g22
asS'commend'
p6216
(lp6217
g22
asS'beguiled'
p6218
(lp6219
g20
asS'table'
p6220
(lp6221
g19
asS'renewest'
p6222
(lp6223
g13
asS'second'
p6224
(lp6225
g13
ag13
ag13
ag13
asS'addition'
p6226
(lp6227
S'NN'
p6228
ag6228
asS'wills'
p6229
(lp6230
g55
ag55
asS"whate'er"
p6231
(lp6232
g393
ag36
asS'certain'
p6233
(lp6234
S'JJ'
p6235
asS'poet'
p6236
(lp6237
g19
ag19
asS'waste'
p6238
(lp6239
g19
ag19
ag19
ag76
ag19
ag19
ag19
asS'define'
p6240
(lp6241
g10
asS'tyranny'
p6242
(lp6243
g19
asS'describe'
p6244
(lp6245
g19
asS'general'
p6246
(lp6247
g13
ag13
ag13
asS'proudest'
p6248
(lp6249
g52
asS'league'
p6250
(lp6251
g19
asS'painted'
p6252
(lp6253
g13
ag20
ag13
ag4
ag4
asS'releasing'
p6254
(lp6255
g29
asS"hear'st"
p6256
(lp6257
g13
asS'lets'
p6258
(lp6259
g21
asS'unmoved'
p6260
(lp6261
g13
asS'overturn'
p6262
(lp6263
g19
asS'painter'
p6264
(lp6265
g19
ag19
asS'debtor'
p6266
(lp6267
g19
asS'novel'
p6268
(lp6269
g13
asS'sourly'
p6270
(lp6271
g36
ag36
asS'surety-like'
p6272
(lp6273
g13
asS'wilt'
p6274
(lp6275
g19
ag19
ag13
ag62
ag19
ag19
ag19
ag20
ag21
ag19
ag20
ag21
ag55
ag13
asS'plain'
p6276
(lp6277
g19
asS'appearance'
p6278
(lp6279
g19
asS'as'
p6280
(lp6281
g76
ag76
ag36
ag76
ag36
ag76
ag76
ag76
ag76
ag76
ag76
ag76
ag76
ag76
ag76
ag36
ag76
ag76
ag76
ag76
ag76
ag76
ag76
ag76
ag76
ag76
ag76
ag76
ag76
ag36
ag76
ag76
ag76
ag76
ag76
ag76
ag76
ag76
ag76
ag76
ag76
ag76
ag76
ag76
ag76
ag76
ag76
ag76
ag36
ag76
ag76
ag76
ag76
ag76
ag76
ag76
ag76
ag76
ag76
ag76
ag36
ag76
ag76
ag76
ag76
ag76
ag76
ag76
ag76
ag76
ag76
ag76
ag76
ag76
ag76
ag76
ag76
ag76
ag76
ag76
ag76
ag76
ag76
ag36
ag76
ag76
ag76
ag76
ag76
ag76
ag76
ag76
ag76
ag36
ag76
ag76
ag76
ag76
ag76
ag76
ag76
ag36
ag76
ag76
ag76
ag36
ag76
ag76
ag76
ag76
ag76
ag76
ag76
ag36
ag36
ag36
ag76
ag76
ag76
asS'three-fold'
p6282
(lp6283
g13
asS'will'
p6284
(lp6285
g954
ag954
ag954
ag954
ag954
ag954
ag954
ag954
ag954
ag954
ag954
ag954
ag954
ag954
ag954
ag954
ag954
ag954
ag954
ag954
ag954
ag954
ag954
ag954
ag954
ag954
ag954
ag954
ag954
ag954
ag954
ag954
ag954
ag954
ag954
ag954
ag954
ag954
ag954
ag954
ag954
ag954
ag954
ag954
ag954
ag954
ag954
ag954
ag954
ag954
ag954
ag954
ag954
ag954
ag954
ag954
ag954
ag954
asS'riper'
p6286
(lp6287
g19
ag19
asS"hate's"
p6288
(lp6289
g13
asS'at'
p6290
(lp6291
S'IN'
p6292
ag6292
ag6292
ag6292
ag6292
ag6292
ag6292
ag6292
ag6292
ag6292
ag6292
ag6292
ag6292
ag6292
ag6292
ag6292
ag6292
ag6292
ag6292
ag6292
ag6292
ag6292
ag6292
ag6292
ag6292
ag6292
asS'ripe'
p6293
(lp6294
g19
asS'physicians'
p6295
(lp6296
g55
asS'almost'
p6297
(lp6298
S'RB'
p6299
ag6299
ag6299
asS'up-locked'
p6300
(lp6301
g13
asS'thus'
p6302
(lp6303
S'RB'
p6304
ag6304
ag6304
ag6304
ag6304
ag6304
ag6304
ag6304
ag6304
ag6304
ag6304
ag6304
ag6304
ag6304
ag6304
ag6304
ag6304
ag6304
ag6304
ag6304
asS'lascivious'
p6305
(lp6306
g13
ag13
asS'lambs'
p6307
(lp6308
g19
asS'sits'
p6309
(lp6310
g21
asS'halt'
p6311
(lp6312
g10
asS'ransom'
p6313
(lp6314
g10
ag10
asS'all-eating'
p6315
(lp6316
g13
asS'perhaps'
p6317
(lp6318
S'RB'
p6319
asS'cross'
p6320
(lp6321
g19
ag19
ag10
asS'proceeds'
p6322
(lp6323
g55
asS'largess'
p6324
(lp6325
g19
asS'adverse'
p6326
(lp6327
g13
asS'parts'
p6328
(lp6329
S'NNS'
p6330
ag6330
ag6330
ag6330
ag6330
ag6330
ag6330
asS'duteous'
p6331
(lp6332
g13
asS'freezings'
p6333
(lp6334
g21
asS'party'
p6335
(lp6336
S'NN'
p6337
asS'well-contented'
p6338
(lp6339
g13
asS'blooms'
p6340
(lp6341
g55
asS'slave'
p6342
(lp6343
g22
ag19
ag19
ag19
ag22
ag19
asS'flesh'
p6344
(lp6345
g19
ag19
ag19
asS'shames'
p6346
(lp6347
g55
ag55
asS'lasting'
p6348
(lp6349
g29
asS'drink'
p6350
(lp6351
g10
ag22
asS'upon'
p6352
(lp6353
g76
ag76
ag76
ag76
ag76
ag76
ag76
ag76
ag76
ag76
ag76
ag76
ag76
ag76
ag76
ag76
ag76
ag76
ag76
ag76
ag76
ag76
ag76
ag76
ag76
ag76
ag76
ag76
ag76
asS'effect'
p6354
(lp6355
S'NN'
p6356
ag6356
ag6356
asS'outcast'
p6357
(lp6358
g13
asS'nightly'
p6359
(lp6360
g36
ag36
asS"december's"
p6361
(lp6362
g19
asS'dust'
p6363
(lp6364
g13
ag19
asS'judgment'
p6365
(lp6366
g19
ag19
ag19
ag19
asS'steals'
p6367
(lp6368
g55
asS'audit'
p6369
(lp6370
g19
ag19
asS'scarcely'
p6371
(lp6372
g36
asS'off'
p6373
(lp6374
g76
ag76
asS'i'
(lp6375
g19
ag19
ag19
ag22
ag13
ag10
ag22
ag10
ag19
ag19
ag22
ag13
ag19
ag19
ag22
ag19
ag10
ag13
ag19
ag10
ag22
ag13
ag10
ag19
ag19
ag13
ag19
ag22
ag19
ag19
ag13
ag22
ag10
ag13
ag19
ag13
ag10
ag13
ag19
ag22
ag22
ag22
ag13
ag10
ag19
ag19
ag19
ag10
ag10
ag22
ag19
ag22
ag22
ag22
ag13
ag4
ag4
ag10
ag19
ag21
ag19
ag13
ag13
ag19
ag10
ag19
ag19
ag19
ag10
ag19
ag19
ag19
ag19
ag19
ag13
ag22
ag19
ag13
ag13
ag19
ag13
ag13
ag10
ag10
ag19
ag19
ag19
ag19
ag13
ag13
ag19
ag13
ag19
ag4
ag13
ag13
ag13
ag13
ag19
ag13
ag22
ag55
ag10
ag13
ag10
ag10
ag13
ag10
ag19
ag13
ag19
ag13
ag19
ag19
ag19
ag19
ag19
ag19
ag19
ag13
ag13
ag36
ag19
ag22
ag19
ag19
ag19
ag36
ag19
ag13
ag19
ag13
ag19
ag55
ag19
ag19
ag19
ag19
ag22
ag22
ag13
ag36
ag19
ag19
ag4
ag22
ag19
ag13
ag13
ag19
ag19
ag13
ag10
ag19
ag13
ag22
ag13
ag19
ag36
ag4
ag13
ag13
ag55
ag19
ag13
ag10
ag19
ag19
ag19
ag19
ag19
ag55
ag19
ag19
ag10
ag10
ag19
ag10
ag22
ag19
ag36
ag19
ag10
ag10
ag10
ag19
ag13
ag4
ag4
ag10
ag19
ag19
ag19
ag19
ag19
ag19
ag13
ag19
ag4
ag19
ag13
ag19
ag13
ag19
ag19
ag19
ag10
ag55
ag36
ag19
ag55
ag19
ag19
ag10
ag19
ag19
ag19
ag13
ag19
ag19
ag13
ag19
ag19
ag19
ag10
ag22
ag19
ag10
ag13
ag19
ag10
ag13
ag55
ag55
ag19
ag55
ag19
ag19
ag19
ag4
ag19
ag13
ag13
ag55
ag22
ag10
ag19
ag10
ag13
ag13
ag19
ag19
ag19
ag13
ag13
ag19
ag22
ag19
ag4
ag19
ag10
ag4
ag13
ag19
ag13
ag19
ag10
ag13
ag19
ag19
ag55
ag13
ag19
ag13
ag22
ag10
ag19
ag19
ag22
ag13
ag22
ag4
ag13
ag22
ag13
ag19
ag22
ag55
ag19
ag13
ag13
ag19
ag13
ag19
ag19
ag19
ag19
ag19
ag55
ag13
ag13
ag19
ag10
ag22
ag19
ag19
ag10
ag10
ag19
ag19
ag13
ag13
ag19
ag36
ag19
ag19
ag19
ag36
ag10
ag21
ag19
ag13
ag13
ag19
ag13
ag21
ag19
ag19
ag10
ag19
ag19
ag19
ag55
ag19
ag19
ag13
ag19
asS'whole'
p6376
(lp6377
g19
asS'colour'
p6378
(lp6379
g19
ag19
asS'well'
p6380
(lp6381
g19
ag36
ag19
ag36
ag36
ag36
ag36
ag19
ag19
ag19
ag36
ag36
ag36
ag36
ag36
ag19
ag36
ag36
ag36
ag36
ag36
ag36
ag19
asS'thought'
p6382
(lp6383
g20
ag20
ag19
ag20
ag19
ag4
ag19
ag19
ag4
ag4
ag4
ag19
ag19
ag19
ag20
ag19
ag4
ag20
asS'amends'
p6384
(lp6385
g55
asS'oft'
p6386
(lp6387
g13
ag36
ag13
ag13
ag13
asS'sets'
p6388
(lp6389
g55
ag21
asS'arising'
p6390
(lp6391
g29
asS'twire'
p6392
(lp6393
g76
asS'lest'
p6394
(lp6395
g52
ag76
ag52
ag52
ag52
ag52
ag13
ag52
asS'restore'
p6396
(lp6397
g19
asS'feathered'
p6398
(lp6399
g13
asS'stores'
p6400
(lp6401
S'NNS'
p6402
asS'kiss'
p6403
(lp6404
g10
ag10
ag10
asS'heavily'
p6405
(lp6406
S'RB'
p6407
ag6407
asS"o'erpressed"
p6408
(lp6409
g13
asS'gulls'
p6410
(lp6411
g21
asS'love-god'
p6412
(lp6413
g13
asS'cries'
p6414
(lp6415
g55
ag55
asS'interim'
p6416
(lp6417
g19
asS'skill'
p6418
(lp6419
g19
ag19
ag19
ag19
ag19
ag13
ag19
asS'thither'
p6420
(lp6421
g36
asS'dost'
p6422
(lp6423
g19
ag19
ag19
ag19
ag19
ag19
ag19
ag1028
ag19
ag19
ag10
ag19
ag19
ag1028
ag19
ag19
ag19
ag13
ag19
ag19
ag4639
ag13
ag19
ag10
ag19
ag19
ag19
ag19
asS'reckoning'
p6424
(lp6425
g13
asS'field'
p6426
(lp6427
S'NN'
p6428
asS'onward'
p6429
(lp6430
g36
asS'sky'
p6431
(lp6432
g19
asS'fled'
p6433
(lp6434
g4
ag20
asS'simple'
p6435
(lp6436
g13
ag13
ag13
asS'add'
p6437
(lp6438
g76
ag22
ag22
ag10
asS'other'
p6439
(lp6440
S'JJ'
p6441
ag6441
ag6441
ag6441
ag6441
ag6441
ag6441
ag6441
ag6441
ag6441
ag6441
ag6441
ag6441
ag6441
ag6441
ag6441
ag6441
asS'wet'
p6442
(lp6443
g10
asS"infant's"
p6444
(lp6445
g13
asg55
(lp6446
S'men'
p6447
asS'raven'
p6448
(lp6449
g13
asS'wooed'
p6450
(lp6451
g4
asS'fate'
p6452
(lp6453
g19
asS'testy'
p6454
(lp6455
g13
asS'devised'
p6456
(lp6457
g4
asS'famine'
p6458
(lp6459
g19
asS"who's"
p6460
(lp6461
g1801
asS'crushed'
p6462
(lp6463
g20
asS'smother'
p6464
(lp6465
g36
asS'five'
p6466
(lp6467
S'CD'
p6468
ag6468
ag6468
asS'know'
p6469
(lp6470
g22
ag22
ag10
ag22
ag22
ag22
ag22
ag22
ag10
ag10
ag22
ag22
ag22
ag22
ag22
ag22
ag10
asS'unseen'
p6471
(lp6472
g13
ag76
asS'press'
p6473
(lp6474
g10
asS'fools'
p6475
(lp6476
g55
asS'loss'
p6477
(lp6478
S'NN'
p6479
ag6479
ag6479
ag6479
ag6479
ag6479
ag6479
ag6479
asS'showing'
p6480
(lp6481
g29
asS'like'
p6482
(lp6483
g76
ag76
ag76
ag76
ag76
ag76
ag76
ag76
ag76
ag76
ag22
ag76
ag76
ag76
ag76
ag76
ag76
ag76
ag13
ag76
ag76
ag76
ag76
ag76
ag76
ag76
ag76
ag76
ag76
ag76
ag76
ag76
ag76
ag76
asS'lost'
p6484
(lp6485
g20
ag20
ag4
ag4
asS'perpetual'
p6486
(lp6487
g13
ag13
asS'rich-proud'
p6488
(lp6489
g13
asS'admitted'
p6490
(lp6491
g4
asS'beseechers'
p6492
(lp6493
g55
asS'heed'
p6494
(lp6495
g13
asS'lose'
p6496
(lp6497
g10
ag19
ag22
ag22
ag10
ag10
ag22
ag22
ag22
asS'nerves'
p6498
(lp6499
g55
asS'works'
p6500
(lp6501
g55
ag21
ag21
asS'page'
p6502
(lp6503
g19
asS'lends'
p6504
(lp6505
g21
ag55
ag21
ag21
asS'therein'
p6506
(lp6507
g19
ag36
asS'decease'
p6508
(lp6509
g10
ag19
ag19
asS'exceed'
p6510
(lp6511
g10
asS'inconstant'
p6512
(lp6513
g13
ag13
asS'workings'
p6514
(lp6515
g55
asS'thief'
p6516
(lp6517
g19
ag19
ag19
asS'alive'
p6518
(lp6519
g22
ag13
asS'immortal'
p6520
(lp6521
g13
asS'hush'
p6522
(lp6523
g10
asS'growth'
p6524
(lp6525
S'NN'
p6526
ag6526
asS'home'
p6527
(lp6528
g19
ag19
ag19
asS'transport'
p6529
(lp6530
g10
asS"heaven's"
p6531
(lp6532
g19
ag19
ag19
ag19
ag19
ag10
asS'lead'
p6533
(lp6534
g22
ag19
asS'broad'
p6535
(lp6536
S'JJ'
p6537
asS'lean'
p6538
(lp6539
g13
asS'leap'
p6540
(lp6541
g10
ag19
asS'passion'
p6542
(lp6543
g19
asS'masked'
p6544
(lp6545
g20
ag4
ag4
asS"o'ertake"
p6546
(lp6547
g76
asS'poets'
p6548
(lp6549
g55
ag55
asS'slight'
p6550
(lp6551
g19
ag13
asS"death's"
p6552
(lp6553
g13
ag13
ag19
ag13
asS'how'
p6554
(lp6555
S'WRB'
p6556
ag6556
ag6556
ag6556
ag6556
ag6556
ag6556
ag6556
ag6556
ag6556
ag6556
ag6556
ag6556
ag6556
ag6556
ag6556
ag6556
ag6556
ag6556
ag6556
ag6556
ag6556
ag6556
ag6556
ag6556
ag6556
ag6556
ag6556
ag6556
ag6556
ag6556
ag6556
ag6556
ag6556
ag6556
ag6556
ag6556
ag6556
ag6556
ag6556
asS'expire'
p6557
(lp6558
g10
asS'although'
p6559
(lp6560
S'IN'
p6561
ag6561
ag6561
ag6561
ag6561
ag6561
ag6561
ag6561
ag6561
asS'worthy'
p6562
(lp6563
g13
ag13
ag13
ag13
ag13
asS'posterity'
p6564
(lp6565
g19
ag19
ag19
asS'imaginary'
p6566
(lp6567
g13
asS'insults'
p6568
(lp6569
g21
asS'worths'
p6570
(lp6571
g13
asS'stage'
p6572
(lp6573
g19
ag19
asS'about'
p6574
(lp6575
g76
asS"murd'rous"
p6576
(lp6577
g13
ag13
ag13
asS'rare'
p6578
(lp6579
g22
ag13
ag13
ag13
asS'dun'
p6580
(lp6581
g13
asS'linger'
p6582
(lp6583
g10
asS'freedom'
p6584
(lp6585
g19
asS'harder'
p6586
(lp6587
g19
asS'blessings'
p6588
(lp6589
g55
asg5216
(lp6590
g5214
asS'gainer'
p6591
(lp6592
g19
asS'hairs'
p6593
(lp6594
g55
asS'tongue'
p6595
(lp6596
g19
ag19
ag19
ag19
ag19
ag19
ag19
ag19
ag19
ag19
ag19
asS'beshrew'
p6597
(lp6598
g20
asS'outstripped'
p6599
(lp6600
g4
asS'own'
p6601
(lp6602
g13
ag13
ag13
ag13
ag13
ag13
ag13
ag13
ag13
ag13
ag13
ag13
ag13
ag13
ag13
ag13
ag13
ag13
ag13
ag13
ag13
ag13
ag13
ag13
ag13
ag13
ag13
ag13
ag13
ag13
asS'polished'
p6603
(lp6604
g13
asS'owe'
p6605
(lp6606
g22
asS'attaint'
p6607
(lp6608
g19
asS'guard'
p6609
(lp6610
g10
ag19
asS'promise'
p6611
(lp6612
g19
asS'esteem'
p6613
(lp6614
g22
ag19
asS"ne'er-cloying"
p6615
(lp6616
g13
asS'lawful'
p6617
(lp6618
g13
ag13
ag13
asS'quickly'
p6619
(lp6620
S'RB'
p6621
asS'gazeth'
p6622
(lp6623
g21
asS'suborned'
p6624
(lp6625
g20
asS'victors'
p6626
(lp6627
g55
asS'veil'
p6628
(lp6629
g4639
asS'trenches'
p6630
(lp6631
g55
asS'watchman'
p6632
(lp6633
g19
asS'spread'
p6634
(lp6635
g22
asS"grief's"
p6636
(lp6637
g13
asS'function'
p6638
(lp6639
g19
asS'prophetic'
p6640
(lp6641
g13
asS'hoisted'
p6642
(lp6643
g4
asS'ills'
p6644
(lp6645
g55
ag55
asS'brand'
p6646
(lp6647
S'NN'
p6648
ag6648
ag6648
ag6648
ag6648
asS'invocate'
p6649
(lp6650
g22
asS'fountains'
p6651
(lp6652
g55
asS'gait'
p6653
(lp6654
g19
asS'prophecies'
p6655
(lp6656
g55
asS'plague'
p6657
(lp6658
g19
ag19
ag19
asS'gain'
p6659
(lp6660
g19
ag19
ag19
ag19
asS'delivers'
p6661
(lp6662
g21
asS'ear'
p6663
(lp6664
g76
ag19
ag19
asS'eat'
p6665
(lp6666
g10
ag19
asS'bud'
p6667
(lp6668
g19
ag19
asS'he'
p6669
(lp6670
S'PRP'
p6671
ag6671
ag6671
ag6671
ag6671
ag6671
ag6671
ag6671
ag6671
ag6671
ag6671
ag6671
ag6671
ag6671
ag6671
ag6671
ag6671
ag6671
ag6671
ag6671
ag6671
ag6671
ag6671
ag6671
ag6671
ag6671
ag6671
ag6671
ag6671
ag6671
ag6671
ag6671
ag6671
ag6671
ag6671
ag6671
ag6671
ag6671
ag6671
ag6671
ag6671
ag6671
ag6671
asS'count'
p6672
(lp6673
g19
ag10
ag19
ag22
asS'made'
p6674
(lp6675
g4
ag4
ag4
ag4
ag4
ag4
ag4
ag20
ag4
ag20
ag20
ag20
ag20
ag20
ag4
ag20
ag4
ag4
ag10
asS'wise'
p6676
(lp6677
g19
ag4
asS'princes'
p6678
(lp6679
g55
ag55
asS'glory'
p6680
(lp6681
g19
ag19
ag19
ag19
ag19
ag19
ag19
ag19
asS'whether'
p6682
(lp6683
S'IN'
p6684
ag6684
ag6684
ag6684
ag6684
ag6684
ag6684
asS'wish'
p6685
(lp6686
g55
ag19
ag19
ag13
ag13
asS'grieve'
p6687
(lp6688
g22
asS'triumphant'
p6689
(lp6690
g13
ag19
asS"eyes'"
p6691
(lp6692
g19
asS'placed'
p6693
(lp6694
g20
asS'cruel'
p6695
(lp6696
g13
ag19
ag13
ag19
ag19
ag19
ag19
ag55
asS'converted'
p6697
(lp6698
g4
ag20
asS'limit'
p6699
(lp6700
g19
asS'monument'
p6701
(lp6702
g19
ag19
asS'minutes'
p6703
(lp6704
S'NNS'
p6705
ag6705
ag6705
asS'unswayed'
p6706
(lp6707
g20
asS'bearing'
p6708
(lp6709
g10
ag29
ag19
asS'rightly'
p6710
(lp6711
g36
asS'deaths'
p6712
(lp6713
g55
ag55
asS'devise'
p6714
(lp6715
g10
ag19
asS'measure'
p6716
(lp6717
g22
ag19
asS'dearth'
p6718
(lp6719
g13
asS'denote'
p6720
(lp6721
g10
asS'goodness'
p6722
(lp6723
g19
ag19
asS'ink'
p6724
(lp6725
g19
ag19
asS'fleeting'
p6726
(lp6727
g13
asS'self-killed'
p6728
(lp6729
g13
asS'naming'
p6730
(lp6731
g29
asS'endeared'
p6732
(lp6733
g4
asS'nursed'
p6734
(lp6735
g4
asS'mutual'
p6736
(lp6737
S'JJ'
p6738
ag6738
asS'compared'
p6739
(lp6740
S'VBN'
p6741
asS'didst'
p6742
(lp6743
g19
ag19
asS'dressed'
p6744
(lp6745
g4
asS'boot'
p6746
(lp6747
g10
asS'forests'
p6748
(lp6749
g55
asS'slumbers'
p6750
(lp6751
g55
asS'book'
p6752
(lp6753
S'NN'
p6754
ag6754
ag6754
ag6754
ag6754
ag6754
asS'witness'
p6755
(lp6756
g10
ag22
ag36
asS'sick'
p6757
(lp6758
g13
ag13
ag19
ag19
ag13
ag22
asS'unlettered'
p6759
(lp6760
g13
asS'behold'
p6761
(lp6762
g20
ag4
ag10
ag20
ag22
ag20
ag20
asS"what's"
p6763
(lp6764
g10
ag19
ag20
asS'thrivers'
p6765
(lp6766
g55
asS'semblance'
p6767
(lp6768
g19
asS'star'
p6769
(lp6770
g19
ag19
ag19
asS'oppression'
p6771
(lp6772
g19
asS'variation'
p6773
(lp6774
g19
asS'stay'
p6775
(lp6776
g19
ag10
ag22
ag10
ag19
ag10
ag10
ag10
ag19
asS'methinks'
p6777
(lp6778
g55
ag21
ag55
ag55
asS'chance'
p6779
(lp6780
S'NN'
p6781
asS'earthly'
p6782
(lp6783
g13
asS'astronomy'
p6784
(lp6785
g4
asS'friends'
p6786
(lp6787
g55
ag55
ag55
asS'tan'
p6788
(lp6789
g55
asS'ghost'
p6790
(lp6791
g19
asS'stirred'
p6792
(lp6793
g4
asS'self-example'
p6794
(lp6795
g13
asS'ranks'
p6796
(lp6797
g55
asS"he's"
p6798
(lp6799
g13
asS'love-kindling'
p6800
(lp6801
g13
asS'jewel'
p6802
(lp6803
g19
ag19
ag19
ag19
asS'pictured'
p6804
(lp6805
g20
asS'pupil'
p6806
(lp6807
g13
asS"sway'st"
p6808
(lp6809
g21
asS'vassal'
p6810
(lp6811
g19
ag19
asS'determination'
p6812
(lp6813
g19
asS'accidents'
p6814
(lp6815
g55
asS'gardens'
p6816
(lp6817
g55
as.