(lp1
(lp2
I2297
aI1232
aI2544
aI2172
aI1515
aI1458
aI621
aI500
aa(lp3
I228
aI1178
aI393
aI621
aI2308
aI2155
aI121
aI621
aI3132
aI1635
aa(lp4
I675
aI2092
aI2129
aI1418
aI3136
aI75
aI2297
aI1635
aI1176
aI2544
aa(lp5
I1038
aI570
aI1109
aI2129
aI1418
aI138
aI1794
aI608
aI2096
aI1178
aa(lp6
I2297
aI1635
aI1066
aI2299
aI940
aI2129
aI578
aI2791
aa(lp7
I228
aI1549
aI808
aI1522
aI1119
aI1178
aI2373
aI869
aa(lp8
I228
aI1549
aI1471
aI2297
aI144
aI188
aI2012
aI608
aa(lp9
I2297
aI1635
aI2548
aI591
aI2173
aI2211
aI2777
aa(lp10
I2549
aI990
aI1549
aI233
aI385
aI1388
aI1168
aI2791
aa(lp11
I2141
aI2173
aI1039
aI95
aI2721
aI1237
aI2721
aI2791
aI129
aa(lp12
I461
aI326
aI536
aI2092
aI2129
aI688
aI1844
aI1066
aI2297
aa(lp13
I2533
aI1119
aI1617
aI586
aI1178
aI2320
aI3079
aI2297
aI1635
aa(lp14
I1480
aI608
aI576
aI54
aI1999
aI608
aI2129
aI1023
aa(lp15
I723
aI1798
aI1261
aI2129
aI2781
aI496
aI1501
aI2738
aa(lp16
I235
aI1926
aI1316
aI1417
aI1644
aI1857
aI13
aa(lp17
I2541
aI932
aI2948
aI2373
aI427
aI228
aI1635
aI2544
aI2770
aa(lp18
I2964
aI1835
aI1159
aI576
aI2482
aI1980
aI920
aI792
aa(lp19
I1904
aI572
aI3090
aI2710
aI2338
aI1501
aI1159
aa(lp20
I145
aI1505
aI920
aI688
aI1999
aI317
aI228
aI586
aa(lp21
I228
aI1515
aI1119
aI576
aI940
aI1007
aI1039
aI188
aI1159
aa(lp22
I1061
aI2834
aI1178
aI1283
aI2690
aI688
aI228
aI1573
aI2853
aa(lp23
I869
aI417
aI1159
aI2480
aI1066
aI1735
aI1897
aI2054
aI2129
aa(lp24
I1681
aI586
aI967
aI2478
aI2787
aI1621
aI2017
aI1178
aa(lp25
I2699
aI228
aI1726
aI3134
aI1418
aI2078
aI876
aI1635
aI1148
aI653
aa(lp26
I3039
aI1588
aI920
aI157
aI682
aI1324
aI2791
aI1756
aI708
aa(lp27
I1023
aI1189
aI723
aI1528
aI2480
aI843
aI1798
aI644
aI1588
aa(lp28
I636
aI2995
aI2544
aI228
aI1505
aI2172
aI1515
aa(lp29
I1012
aI1178
aI1751
aI780
aI1178
aI229
aI569
aI1013
aI608
aa(lp30
I1588
aI1505
aI920
aI688
aI1591
aI1549
aI738
aI576
aI1610
aI1178
aa(lp31
I75
aI1588
aI771
aI2995
aI1588
aI2516
aI1726
aI3134
aI2951
aa(lp32
I1039
aI1999
aI1528
aI201
aI1999
aI1528
aI472
aI936
aI1635
aa(lp33
I3016
aI2141
aI3102
aI1528
aI2308
aI482
aI940
aI144
aI1588
aI1178
aa(lp34
I1591
aI1159
aI3063
aI623
aI1505
aI553
aI2278
aI1176
aI2791
aa(lp35
I2440
aI157
aI576
aI1178
aI570
aI576
aI451
aI940
aI2827
aI1588
aa(lp36
I2096
aI967
aI1156
aI1515
aI128
aI967
aI487
aI2951
aI1134
aI1023
aa(lp37
I228
aI1635
aI545
aI1154
aI2544
aI1178
aI2544
aI2173
aI1134
aI1023
aa(lp38
I190
aI608
aI440
aI1591
aI675
aI1651
aI608
aI429
aI638
aa(lp39
I2428
aI940
aI77
aI1440
aI157
aI576
aI2290
aI920
aI157
aa(lp40
I1809
aI33
aI688
aI2668
aI228
aI750
aI2853
aI1892
aI2791
aa(lp41
I1250
aI2721
aI2514
aI946
aI608
aI1178
aI920
aI608
aI2297
aI362
aa(lp42
I2998
aI311
aI1505
aI3045
aI1159
aI1735
aI1189
aI225
aI2480
aa(lp43
I1994
aI1635
aI1066
aI2217
aI1159
aI2547
aI1066
aI2953
aI2995
aa(lp44
I1331
aI569
aI362
aI1418
aI973
aI608
aI1501
aI1066
aI2235
aa(lp45
I1578
aI748
aI936
aI1635
aI1066
aI1119
aI145
aI1810
aI2129
aa(lp46
I2598
aI4
aI920
aI1147
aI1680
aI1451
aI1635
aI1761
aI708
aa(lp47
I2508
aI2048
aI946
aI1635
aI648
aI1156
aI1549
aI752
aI1635
aa(lp48
I2092
aI2721
aI1964
aI1635
aI976
aI1753
aI2544
aI1156
aI638
aa(lp49
I973
aI621
aI1066
aI3039
aI2096
aI233
aI1680
aI2791
aI2389
aI233
aa(lp50
I649
aI1567
aI1178
aI920
aI1159
aI2995
aI739
aI224
aa(lp51
I757
aI2297
aI1069
aI2084
aI1066
aI1007
aI2995
aI1274
aa(lp52
I228
aI920
aI429
aI2995
aI3080
aI912
aI1635
aI1460
aI2995
aI1007
aI224
aa(lp53
I145
aI932
aI1129
aI2129
aI1274
aI740
aI157
aI1237
aI1066
aI224
aI998
aa(lp54
I361
aI157
aI671
aI2308
aI1042
aI157
aI2642
aI2308
aI2961
aI2626
aa(lp55
I2049
aI1318
aI792
aI1999
aI157
aI688
aI1178
aI228
aI688
aa(lp56
I820
aI111
aI157
aI2389
aI822
aI555
aI2642
aI2791
aa(lp57
I2800
aI369
aI2696
aI3119
aI586
aI2987
aI555
aI671
aI1178
aa(lp58
I133
aI931
aI2710
aI2299
aI920
aI2141
aI608
aI688
aa(lp59
I1474
aI1549
aI2879
aI157
aI909
aI1635
aI481
aI2995
aI224
aI1159
aa(lp60
I349
aI682
aI228
aI1501
aI1125
aI2995
aI2182
aI621
aI578
aI2791
aa(lp61
I1013
aI111
aI1178
aI827
aI2098
aI1709
aI1610
aa(lp62
I228
aI576
aI2856
aI2995
aI2737
aI2995
aI1475
aI2721
aa(lp63
I145
aI1505
aI1610
aI621
aI1610
aI1704
aI233
aI1610
aI2129
aI1178
aa(lp64
I932
aI219
aI3077
aI1178
aI817
aI3134
aI1892
aI2791
aa(lp65
I2715
aI2561
aI688
aI2561
aI1451
aI1664
aI1828
aI2721
aI688
aI704
aa(lp66
I494
aI258
aI792
aI920
aI157
aI2544
aI688
aI2078
aI638
aa(lp67
I1220
aI1685
aI3069
aI1418
aI1258
aI1007
aI1458
aI621
aI1505
aI1613
aa(lp68
I961
aI920
aI608
aI2777
aI1730
aI2098
aI1254
aI1359
aI2791
aI1564
aa(lp69
I1834
aI506
aI1610
aI2966
aI1178
aI424
aI2098
aI233
aI1178
aa(lp70
I2297
aI144
aI1778
aI2835
aI1569
aI2995
aI1159
aa(lp71
I145
aI2516
aI1251
aI2946
aI2777
aI3062
aI2141
aI1159
aI1635
aa(lp72
I2366
aI2710
aI576
aI228
aI920
aI2995
aI1023
aI1066
aI429
aI2791
aa(lp73
I441
aI1850
aI608
aI569
aI362
aI362
aI1417
aI2129
aI2951
aa(lp74
I228
aI576
aI3141
aI2995
aI467
aI1159
aI467
aI569
aI1680
aI2178
aa(lp75
I145
aI739
aI169
aI1666
aI224
aI2766
aI2995
aI3141
aI2544
aa(lp76
I296
aI2284
aI1364
aI2105
aI429
aI134
aI3078
aI157
aI578
aa(lp77
I2547
aI621
aI2297
aI2290
aI1119
aI2791
aI362
aI2297
aI1212
aI621
aa(lp78
I535
aI235
aI586
aI1635
aI3080
aI1131
aI2129
aI1159
aI1178
aa(lp79
I1759
aI2699
aI555
aI2784
aI84
aI2078
aI373
aI2308
aa(lp80
I1101
aI2998
aI506
aI1610
aI2157
aI576
aI1964
aI2962
aa(lp81
I501
aI2297
aI1066
aI144
aI486
aI638
aI2733
aI1549
aI145
aI2087
aa(lp82
I228
aI1635
aI2690
aI300
aI188
aI608
aI2308
aI520
aa(lp83
I145
aI1635
aI2757
aI1417
aI188
aI608
aI2308
aI1119
aa(lp84
I235
aI2098
aI2995
aI1178
aI349
aI157
aI2888
aI621
aI340
aI2791
aa(lp85
I907
aI145
aI2791
aI2747
aI2853
aI224
aI2053
aI2141
aa(lp86
I228
aI2096
aI2995
aI998
aI2096
aI1635
aI1996
aI2098
aI296
aI1610
aa(lp87
I145
aI228
aI1237
aI429
aI662
aI1418
aI296
aI1241
aI1996
aI1178
aa(lp88
I1245
aI1023
aI2390
aI2308
aI721
aI1099
aa(lp89
I2111
aI2249
aI1505
aI2618
aI1254
aI1877
aI2791
aa(lp90
I1752
aI820
aI792
aI224
aI2791
aI2888
aI2995
aI78
aI2544
aa(lp91
I1187
aI1016
aI2179
aI1178
aI1578
aI748
aI225
aI2429
aI2995
aa(lp92
I1961
aI2102
aI608
aI569
aI2155
aI1002
aI362
aI2961
aI2951
aa(lp93
I973
aI1505
aI920
aI1833
aI608
aI674
aI1786
aI157
aI1178
aa(lp94
I2283
aI157
aI576
aI804
aI608
aI5
aI233
aI578
aI1515
aa(lp95
I600
aI1002
aI1178
aI1786
aI1635
aI973
aI157
aI582
aa(lp96
I885
aI2995
aI1054
aI2297
aI2948
aI2129
aI2900
aI60
aI1178
aa(lp97
I682
aI1023
aI42
aI1798
aI688
aI1771
aI1368
aI2651
aI688
aa(lp98
I826
aI1505
aI374
aI621
aI1704
aI2129
aI145
aI1590
aI871
aI1635
aa(lp99
I2678
aI792
aI1776
aI967
aI2995
aI920
aI1635
aI2794
aI1892
aa(lp100
I361
aI157
aI576
aI2544
aI1911
aI555
aI1541
aI1385
aI1159
aI688
aa(lp101
I1296
aI2888
aI157
aI1178
aI3021
aI725
aI136
aI157
aa(lp102
I476
aI248
aI3134
aI1255
aI228
aI2516
aI1892
aa(lp103
I2421
aI1635
aI871
aI2078
aI936
aI1178
aI2298
aI1664
aI228
aI2008
aa(lp104
I944
aI1154
aI1102
aI13
aI1588
aI2098
aI1523
aa(lp105
I2833
aI1635
aI714
aI1417
aI47
aI1635
aI644
aI1417
aa(lp106
I1961
aI2278
aI2766
aI1588
aI1964
aI1354
aI1610
aI576
aa(lp107
I973
aI2367
aI688
aI1588
aI1756
aI1756
aI3045
aI1588
aI2791
aa(lp108
I1975
aI541
aI1178
aI2061
aI1588
aI1505
aI1023
aI1178
aa(lp109
I2651
aI1528
aI1414
aI1440
aI157
aI220
aI2290
aI1159
aI1418
aa(lp110
I2339
aI1999
aI1528
aI1159
aI2990
aI621
aI998
aI1023
aa(lp111
I1156
aI2513
aI576
aI327
aI1178
aI2544
aI576
aI940
aI1588
aa(lp112
I1110
aI1505
aI1696
aI1417
aI2777
aI990
aI570
aI736
aI1515
aa(lp113
I3091
aI1735
aI2435
aI1735
aI542
aI809
aI1438
aI2495
aa(lp114
I2953
aI1528
aI576
aI1159
aI920
aI569
aI1372
aI1798
aI758
aI1023
aa(lp115
I506
aI792
aI1477
aI3134
aI1118
aI1196
aI429
aI1588
aI385
aa(lp116
I1824
aI2297
aI1023
aI2058
aI385
aI2160
aI1635
aI1567
aI2995
aa(lp117
I2998
aI1515
aI506
aI570
aI2297
aI1809
aI1528
aI1308
aI1066
aa(lp118
I296
aI1633
aI1505
aI2773
aI621
aI1567
aI2995
aI1211
aI708
aa(lp119
I2547
aI2406
aI283
aI2766
aI170
aI379
aI1635
aa(lp120
I1511
aI2290
aI1440
aI157
aI2833
aI576
aI169
aI1635
aI638
aI1178
aa(lp121
I599
aI3146
aI2561
aI440
aI27
aI608
aI373
aa(lp122
I2340
aI1353
aI3018
aI2129
aI2611
aI2995
aI2585
aI228
aI688
aa(lp123
I563
aI326
aI1610
aI2482
aI1549
aI2994
aI180
aI145
aI2516
aa(lp124
I2547
aI2995
aI1999
aI157
aI688
aI1159
aI1999
aI157
aI228
aI1262
aa(lp125
I296
aI608
aI1505
aI188
aI1549
aI2404
aI157
aI2805
aa(lp126
I2194
aI2297
aI2596
aI1256
aI1364
aI576
aI2290
aI188
aI2561
aa(lp127
I1206
aI1039
aI225
aI576
aI3134
aI1178
aI940
aI2290
aI233
aI1178
aa(lp128
I2631
aI1265
aI2777
aI2122
aI1798
aI2951
aI569
aI2999
aI2544
aa(lp129
I3052
aI1635
aI2382
aI570
aI2777
aI1159
aI2766
aI1635
aI1403
aI2791
aa(lp130
I1845
aI2766
aI1464
aI2544
aI2781
aI1756
aI708
aa(lp131
I1241
aI2309
aI1039
aI1007
aI920
aI157
aI3159
aI1256
aI576
aI1159
aa(lp132
I1559
aI2297
aI2995
aI119
aI1364
aI2516
aI1364
aI1610
aI1549
aI51
aa(lp133
I907
aI920
aI157
aI871
aI2995
aI869
aI1635
aI1159
aI653
aa(lp134
I644
aI2853
aI931
aI1680
aI1237
aI1635
aI3008
aI2853
aI2078
aI708
aa(lp135
I2675
aI1023
aI2126
aI1364
aI218
aI1892
aI1134
aI296
aI576
aa(lp136
I1953
aI490
aI555
aI1003
aI1798
aI688
aI2951
aI2078
aI1178
aa(lp137
I2688
aI1505
aI737
aI188
aI1680
aI2092
aI2757
aI1237
aI1635
aa(lp138
I1237
aI608
aI1066
aI74
aI2188
aI608
aI2794
aI2791
aa(lp139
I1016
aI2086
aI3018
aI2129
aI1159
aI2544
aI569
aI1732
aI621
aa(lp140
I1237
aI608
aI1066
aI3075
aI506
aI1505
aI895
aI2278
aI578
aa(lp141
I3104
aI2054
aI620
aI1505
aI167
aI907
aI2129
aI224
aa(lp142
I1940
aI1528
aI1056
aI2178
aI2827
aI1458
aI3137
aI621
aI3005
aa(lp143
I1559
aI1567
aI2995
aI189
aI145
aI1549
aI1588
aI2387
aI1178
aa(lp144
I276
aI2814
aI2995
aI2777
aI1159
aI2308
aI1949
aI1567
aI2995
aI688
aa(lp145
I27
aI2017
aI585
aI920
aI1635
aI1588
aI2827
aI1023
aI1178
aa(lp146
I1706
aI1735
aI920
aI608
aI2495
aI2777
aI831
aI2129
aI2544
aa(lp147
I1134
aI154
aI871
aI144
aI2129
aI2777
aI2998
aI1159
aI920
aI1635
aa(lp148
I1728
aI570
aI2777
aI1159
aI569
aI1159
aI1505
aI27
aI621
aa(lp149
I2517
aI228
aI1549
aI2544
aI1178
aI2544
aI569
aI1159
aI1178
aa(lp150
I2642
aI2308
aI2642
aI1079
aI1178
aI897
aI2995
aI429
aI2961
aa(lp151
I472
aI1610
aI1515
aI1610
aI1501
aI1375
aI1515
aa(lp152
I675
aI1178
aI75
aI822
aI569
aI1685
aI621
aI2951
aI688
aa(lp153
I78
aI569
aI1680
aI2445
aI1039
aI920
aI157
aI569
aI1023
aa(lp154
I2178
aI2948
aI2129
aI2951
aI3001
aI1023
aI670
aI1364
aa(lp155
I3172
aI608
aI227
aI536
aI1178
aI228
aI1093
aI2290
aa(lp156
I1111
aI3018
aI1178
aI2092
aI157
aI1610
aI2092
aI2129
aI2791
aa(lp157
I492
aI1791
aI157
aI1333
aI2951
aI2559
aI2951
aa(lp158
I1189
aI555
aI3134
aI2777
aI1159
aI688
aI1066
aI2078
aI1044
aI224
aa(lp159
I1384
aI3018
aI1999
aI608
aI2129
aI228
aI2193
aI3134
aI1680
aI1892
aa(lp160
I472
aI1367
aI2297
aI2995
aI1178
aI2115
aI3134
aI578
aI224
aa(lp161
I2625
aI157
aI737
aI920
aI157
aI2544
aI737
aI1651
aI621
aa(lp162
I1574
aI157
aI4
aI956
aI2710
aI940
aI2290
aI1039
aI1588
aa(lp163
I487
aI1505
aI1091
aI621
aI576
aI60
aI398
aI2013
aI1343
aI1274
aa(lp164
I2211
aI219
aI2297
aI1845
aI2805
aI1478
aI2721
aI1178
aa(lp165
I1551
aI569
aI570
aI228
aI576
aI1794
aI2768
aI2526
aI1274
aa(lp166
I1156
aI461
aI1528
aI1505
aI235
aI576
aI545
aI1735
aI2173
aI1533
aa(lp167
I3154
aI2547
aI576
aI967
aI3077
aI1528
aI2124
aI1169
aa(lp168
I889
aI1798
aI3025
aI3096
aI2061
aI1528
aI1635
aI1588
aa(lp169
I170
aI842
aI1528
aI2495
aI2777
aI2547
aI1501
aI2043
aI1417
aa(lp170
I1707
aI2841
aI1505
aI1343
aI621
aI688
aI2482
aI224
aa(lp171
I2985
aI576
aI1153
aI605
aI2749
aI157
aI688
aI145
aa(lp172
I2350
aI2561
aI1278
aI899
aI1310
aI1528
aI1418
aI2791
aa(lp173
I362
aI2868
aI1159
aI345
aI2995
aI714
aI224
aa(lp174
I676
aI555
aI1812
aI1798
aI2951
aI228
aI644
aI2995
aI2766
aI2961
aa(lp175
I345
aI2710
aI792
aI2459
aI2791
aI1965
aI1798
aI5
aI576
aa(lp176
I2203
aI1023
aI2995
aI228
aI1635
aI920
aI157
aI569
aI2710
aa(lp177
I190
aI1610
aI2839
aI2953
aI1999
aI157
aI674
aI608
aI688
aI1159
aa(lp178
I2818
aI2191
aI1664
aI1999
aI157
aI507
aI228
aI688
aa(lp179
I11
aI3018
aI2129
aI2157
aI2078
aI920
aI64
aI144
aI2995
aI688
aa(lp180
I2111
aI369
aI1067
aI2777
aI2111
aI1505
aI1383
aI3026
aI1178
aa(lp181
I1023
aI369
aI1066
aI2953
aI228
aI1505
aI3043
aI1549
aI3166
aa(lp182
I1204
aI1129
aI2129
aI1159
aI907
aI2544
aI576
aI1737
aa(lp183
I586
aI2218
aI2013
aI145
aI1178
aI472
aI2544
aI1610
aa(lp184
I1432
aI792
aI2382
aI1159
aI110
aI1023
aI3177
aI2791
aa(lp185
I1066
aI570
aI3039
aI2995
aI638
aI1178
aI2757
aI2297
aI1129
aI2129
aa(lp186
I1016
aI188
aI608
aI555
aI2500
aI2450
aI3045
aI3080
aa(lp187
I1237
aI608
aI1066
aI183
aI956
aI2141
aI608
aI578
aa(lp188
I1834
aI2721
aI2308
aI1234
aI2769
aI585
aI17
aI688
aa(lp189
I1861
aI1169
aI170
aI180
aI802
aI2915
aI1159
aI761
aa(lp190
I539
aI263
aI2544
aI1505
aI973
aI682
aI3051
aI1204
aa(lp191
I2229
aI2561
aI3052
aI555
aI1138
aI1487
aI965
aI621
aa(lp192
I2366
aI2710
aI576
aI228
aI920
aI2995
aI1023
aI1066
aI429
aI2791
aa(lp193
I441
aI1850
aI608
aI569
aI362
aI362
aI1417
aI2129
aI2951
aa(lp194
I2228
aI1798
aI2351
aI1023
aI1549
aI1262
aI2484
aI233
aI578
aI1515
aa(lp195
I563
aI231
aI621
aI1937
aI2285
aI2178
aI97
aI1159
aa(lp196
I472
aI1588
aI1178
aI1039
aI990
aI570
aI2423
aI638
aa(lp197
I2279
aI868
aI1364
aI1549
aI2995
aI661
aI1528
aI1549
aI2951
aa(lp198
I545
aI2020
aI1591
aI1169
aI1626
aI1379
aI920
aI157
aI936
aa(lp199
I1487
aI1292
aI1178
aI2478
aI2561
aI970
aI2129
aI1023
aa(lp200
I3080
aI228
aI1912
aI2995
aI134
aI209
aI608
aI429
aI224
aa(lp201
I1067
aI1101
aI3134
aI2951
aI2699
aI1134
aI369
aI2078
aI586
aI1635
aa(lp202
I3099
aI157
aI142
aI783
aI2995
aI2690
aI3045
aI124
aa(lp203
I1644
aI157
aI1549
aI1588
aI2351
aI1066
aI119
aI2995
aI2325
aa(lp204
I2573
aI967
aI1440
aI157
aI576
aI1169
aI1735
aI536
aI1735
aI1178
aa(lp205
I570
aI576
aI2178
aI1588
aI1418
aI1588
aI1101
aI137
aI3102
aI1528
aa(lp206
I2030
aI2404
aI2129
aI2544
aI752
aI2777
aI1505
aI885
aI688
aa(lp207
I680
aI1415
aI780
aI737
aI681
aI1176
aI1588
aI154
aa(lp208
I907
aI2164
aI2274
aI2766
aI758
aI1178
aI1966
aI461
aa(lp209
I235
aI576
aI2720
aI607
aI83
aI1067
aI998
aI532
aI2777
aa(lp210
I296
aI1636
aI1364
aI3176
aI1067
aI2777
aI486
aI688
aa(lp211
I2547
aI1635
aI1983
aI1615
aI2791
aI1288
aI1635
aI1156
aI2766
aa(lp212
I3149
aI608
aI2049
aI394
aI2544
aI576
aI2129
aI1178
aa(lp213
I363
aI2098
aI1595
aI1505
aI2416
aI1178
aI1676
aI1382
aI1418
aa(lp214
I2799
aI1533
aI920
aI1505
aI2489
aI1127
aI621
aI2003
aa(lp215
I680
aI570
aI1237
aI119
aI742
aI2102
aI1178
aI1591
aI1274
aa(lp216
I736
aI2995
aI2307
aI1171
aI2544
aI2017
aI688
aa(lp217
I1610
aI157
aI2092
aI2129
aI570
aI576
aI1436
aI157
aI2129
aI653
aa(lp218
I467
aI621
aI1657
aI157
aI2519
aI809
aI145
aI936
aI224
aa(lp219
I2073
aI945
aI2013
aI2013
aI1178
aI1921
aI608
aI1635
aI60
aa(lp220
I1855
aI55
aI2995
aI1178
aI349
aI682
aI224
aI145
aI500
aa(lp221
I145
aI622
aI1635
aI1542
aI569
aI500
aI1528
aI1159
aI60
aa(lp222
I2799
aI2217
aI157
aI576
aI1558
aI1023
aI2098
aI1588
aa(lp223
I680
aI2098
aI3184
aI1758
aI1458
aI621
aI1610
aI1159
aa(lp224
I1588
aI1549
aI1797
aI1735
aI1505
aI618
aa(lp225
I2859
aI362
aI633
aI2961
aI361
aI758
aI2013
aI157
aa(lp226
I2582
aI561
aI621
aI1262
aI2088
aI2297
aI570
aI578
aa(lp227
I1210
aI1127
aI555
aI1178
aI570
aI2747
aI1725
aI362
aI1159
aa(lp228
I1023
aI1189
aI1066
aI2995
aI1845
aI224
aI2529
aI1798
aI569
aI920
aa(lp229
I1016
aI555
aI1039
aI2777
aI1159
aI1635
aI3066
aI1696
aI936
aI1635
aa(lp230
I1334
aI145
aI2984
aI1178
aI2872
aI2297
aI2544
aI578
aa(lp231
I2737
aI77
aI1017
aI792
aI1069
aI2598
aI83
aI2995
aa(lp232
I932
aI1635
aI2644
aI868
aI2995
aI877
aI898
aI157
aI1892
aa(lp233
I920
aI1528
aI1505
aI956
aI1178
aI395
aI621
aa(lp234
I758
aI2327
aI621
aI2049
aI1178
aI1761
aI2995
aI2900
aI2791
aa(lp235
I1588
aI1505
aI3174
aI1507
aI1023
aI1159
aI2078
aI411
aI549
aa(lp236
I270
aI157
aI1635
aI2442
aI1378
aI2995
aI1023
aa(lp237
I363
aI2766
aI2995
aI1169
aI1735
aI542
aI2659
aI2308
aI3129
aI1178
aa(lp238
I2305
aI1798
aI2385
aI1067
aI1240
aI1528
aI1159
aI2791
aa(lp239
I145
aI2966
aI144
aI623
aI1178
aI623
aI1416
aI362
aa(lp240
I199
aI233
aI289
aI2934
aI2544
aI2781
aa(lp241
I813
aI2725
aI2721
aI576
aI1178
aI2675
aI2098
aI487
aI1610
aa(lp242
I228
aI1019
aI1635
aI2776
aI1569
aI2693
aI1635
aa(lp243
I145
aI576
aI1495
aI1300
aI1635
aI1176
aa(lp244
I2297
aI77
aI2290
aI2544
aI1178
aI2191
aI429
aI2995
aI2544
aa(lp245
I228
aI1178
aI2478
aI608
aI440
aI758
aI2297
aI2953
aI2995
aa(lp246
I1591
aI1505
aI3042
aI621
aI736
aI3173
aI2995
aI2544
aI1635
aa(lp247
I1253
aI688
aI2164
aI2766
aI2784
aI3158
aI688
aI869
aI2777
aa(lp248
I963
aI758
aI1798
aI1347
aI3113
aI2129
aI2699
aa(lp249
I2553
aI608
aI576
aI1947
aI2022
aI1910
aI2013
aI1418
aa(lp250
I2111
aI2721
aI1505
aI745
aI858
aI233
aI1023
aI638
aa(lp251
I1023
aI2178
aI2827
aI188
aI877
aI3099
aI35
aI1159
aa(lp252
I2544
aI576
aI2098
aI739
aI1023
aI1197
aI1827
aI1892
aa(lp253
I3009
aI1635
aI2281
aI608
aI145
aI67
aI608
aI225
aI936
aa(lp254
I2998
aI1739
aI1756
aI638
aI1739
aI2998
aI1458
aI621
aI2544
aI1610
aa(lp255
I1824
aI2544
aI1635
aI487
aI835
aI1159
aI1657
aI621
aI1692
aI1635
aa(lp256
I3091
aI2951
aI920
aI157
aI1125
aI2995
aI1657
aI2308
aI638
aI1178
aa(lp257
I1765
aI2757
aI1549
aI1903
aI2853
aI1196
aI2951
aa(lp258
I1834
aI608
aI576
aI653
aI1256
aI2129
aI2092
aI2017
aI576
aa(lp259
I2970
aI1125
aI2995
aI2951
aI2361
aI2544
aI2900
aI1178
aa(lp260
I1256
aI569
aI420
aI188
aI2578
aI2995
aI2953
aI224
aa(lp261
I1615
aI1298
aI608
aI1159
aI36
aI233
aI1610
aI1178
aa(lp262
I228
aI576
aI1829
aI1417
aI2995
aI688
aI2948
aI2129
aI638
aI1178
aa(lp263
I145
aI576
aI569
aI1159
aI1610
aI1178
aI1119
aI1567
aI2731
aa(lp264
I145
aI1178
aI2078
aI2124
aI1704
aI2129
aI3046
aI2995
aI2766
aI2078
aa(lp265
I284
aI1066
aI2995
aI1567
aI638
aI1178
aI2996
aI621
aI720
aI3134
aa(lp266
I2087
aI3050
aI461
aI792
aI1247
aI792
aI2480
aa(lp267
I2670
aI1646
aI235
aI1159
aI576
aI145
aI1178
aI235
aI2791
aI1610
aI1125
aa(lp268
I1039
aI1159
aI920
aI1178
aI920
aI608
aI1072
aI157
aI2791
aI586
aa(lp269
I2953
aI569
aI1072
aI157
aI688
aI145
aI794
aI2129
aI224
aI1178
aa(lp270
I548
aI2766
aI1156
aI1178
aI973
aI157
aI758
aI674
aI585
aI576
aa(lp271
I1175
aI1067
aI233
aI2098
aI3128
aI2757
aI2544
aI1635
aI1178
aa(lp272
I145
aI1549
aI2853
aI1178
aI2690
aI1549
aI2212
aI2995
aI124
aa(lp273
I2297
aI1208
aI486
aI725
aI2308
aI1309
aI2664
aI576
aI1178
aa(lp274
I1331
aI563
aI1567
aI2995
aI1892
aI2791
aI1023
aI1066
aI429
aI638
aa(lp275
I1212
aI157
aI2195
aI1178
aI2615
aI1549
aI2264
aI145
aI2087
aa(lp276
I1903
aI2129
aI1069
aI1023
aI2297
aI1066
aI1007
aI2995
aI1159
aa(lp277
I1171
aI2421
aI973
aI1226
aI608
aI385
aI2179
aI1156
aI1119
aI2839
aa(lp278
I3129
aI157
aI3135
aI2995
aI180
aI2961
aI3128
aI157
aI937
aa(lp279
I1212
aI145
aI1320
aI2582
aI145
aI2495
aI1159
aI2853
aI1159
aa(lp280
I63
aI3018
aI2129
aI1680
aI2766
aI1635
aI370
aI3018
aI2129
aI578
aa(lp281
I693
aI2297
aI2129
aI1129
aI3192
aI2308
aa(lp282
I2953
aI608
aI2766
aI1129
aI2129
aI1159
aI1832
aI2995
aI2953
aI1023
aa(lp283
I1039
aI2248
aI304
aI157
aI1178
aI748
aI2769
aI2129
aI578
aa(lp284
I2521
aI576
aI940
aI2791
aI3039
aI64
aI2995
aI2290
aI2544
aI638
aa(lp285
I2668
aI235
aI1850
aI157
aI2168
aI1180
aI2675
aI157
aI998
aa(lp286
I544
aI2853
aI472
aI11
aI2516
aI2267
aI432
aa(lp287
I1543
aI2438
aI1242
aI545
aI157
aI1647
aI1178
aa(lp288
I487
aI1501
aI1499
aI1159
aI2122
aI1501
aI1924
aI2129
aI2290
aI1023
aa(lp289
I224
aI791
aI1735
aI792
aI20
aI680
aI2412
aI2122
aI1178
aa(lp290
I1241
aI228
aI2999
aI1178
aI461
aI228
aI1001
aI2766
aI2995
aI688
aa(lp291
I671
aI2951
aI602
aI2951
aI1824
aI2951
aI1256
aI2951
aI2092
aI2784
aa(lp292
I1128
aI145
aI1634
aI2129
aI1254
aI1549
aI920
aI1753
aI708
aa(lp293
I2049
aI2827
aI1309
aI36
aI608
aI1772
aI1156
aI3005
aa(lp294
I361
aI608
aI3039
aI2995
aI1067
aI688
aI1501
aI11
aI920
aI2791
aa(lp295
I1128
aI1567
aI2995
aI1178
aI794
aI2129
aI2096
aI967
aI1159
aI1359
aa(lp296
I145
aI576
aI920
aI716
aI2148
aI608
aI578
aa(lp297
I228
aI1505
aI649
aI2297
aI1635
aI2995
aI3083
aI1735
aa(lp298
I736
aI2995
aI1159
aI570
aI142
aI1678
aI1505
aI976
aI792
aa(lp299
I1653
aI1178
aI2394
aI2995
aI920
aI682
aI13
aI688
aI920
aI2690
aa(lp300
I2995
aI1807
aI1735
aI461
aI228
aI1001
aI2766
aI2995
aI688
aa(lp301
I2297
aI1798
aI36
aI1023
aI2651
aI621
aI507
aI2578
aI1635
aa(lp302
I725
aI1815
aI157
aI688
aI715
aI621
aI622
aI792
aI1876
aI2791
aa(lp303
I1156
aI1865
aI157
aI2168
aI75
aI274
aI421
aI1274
aa(lp304
I932
aI2995
aI1159
aI2308
aI2544
aI1178
aI622
aI688
aI1533
aI2408
aa(lp305
I920
aI1066
aI583
aI905
aI905
aI2407
aI2168
aI946
aa.