(dp1
S'fawn'
p2
(lp3
I1
asS'pardon'
p4
(lp5
I2
asS'both'
p6
(lp7
I1
asS'yellow'
p8
(lp9
I2
asS'four'
p10
(lp11
I1
asS'hath'
p12
(lp13
I1
asS'sleep'
p14
(lp15
I1
asS"friend's"
p16
(lp17
I1
asS'hanging'
p18
(lp19
I2
asS'mansion'
p20
(lp21
I2
asS'appetite'
p22
(lp23
I3
asS'captain'
p24
(lp25
I2
asS'hate'
p26
(lp27
I1
asS'poorly'
p28
(lp29
I2
asS'whose'
p30
(lp31
I1
asS'feeding'
p32
(lp33
I2
asS'pointing'
p34
(lp35
I2
asS'granting'
p36
(lp37
I2
asS"wretch's"
p38
I1
sS'sweetest'
p39
(lp40
I2
asS'presents'
p41
(lp42
I2
asS'whatsoever'
p43
(lp44
I4
asS'under'
p45
(lp46
I2
asS'lord'
p47
(lp48
I1
asS'sorry'
p49
(lp50
I2
asS'pride'
p51
(lp52
I1
asS'sway'
p53
(lp54
I1
asS'worth'
p55
(lp56
I1
asS'frowns'
p57
(lp58
I1
asS'discased'
p59
I2
sS'dispense'
p60
(lp61
I2
asS'desired'
p62
(lp63
I3
asS'rise'
p64
(lp65
I1
asS'inhearse'
p66
I2
sS"women's"
p67
(lp68
I2
asS'every'
p69
(lp70
I2
aI3
asS'foul'
p71
(lp72
I1
asS'nourished'
p73
(lp74
I2
asS'utmost'
p75
(lp76
I2
asS'prizing'
p77
I2
sS'uttering'
p78
(lp79
I3
asS'prize'
p80
(lp81
I1
asS'sunk'
p82
(lp83
I1
asS'graced'
p84
(lp85
I1
asS'succession'
p86
(lp87
I3
asS'graces'
p88
(lp89
I2
asS'triumph'
p90
(lp91
I2
asS"consum'st"
p92
I2
sS'enjoy'
p93
(lp94
I2
asS'charter'
p95
(lp96
I2
asS'force'
p97
(lp98
I1
asS'tired'
p99
(lp100
I2
asS'awake'
p101
(lp102
I2
asS'razed'
p103
(lp104
I1
asS'feathers'
p105
(lp106
I2
asS'tires'
p107
(lp108
I2
asS'crave'
p109
(lp110
I1
asS'persuade'
p111
(lp112
I2
asS'down-rased'
p113
I2
sS'happies'
p114
I2
sS'quill'
p115
(lp116
I1
asS'even'
p117
(lp118
I2
asS'beated'
p119
I2
sS'evermore'
p120
(lp121
I3
asS'hide'
p122
(lp123
I1
asS"ne'er"
p124
(lp125
I1
asS'solemn'
p126
(lp127
I2
asS'thunder'
p128
(lp129
I2
asS'fingers'
p130
(lp131
I2
asS'liberty'
p132
(lp133
I3
asS"gild'st"
p134
I1
sS'worser'
p135
I2
sS'wakened'
p136
I2
sS'above'
p137
(lp138
I2
asS'matcheth'
p139
I2
sS'new'
p140
(lp141
I1
asS'increasing'
p142
(lp143
I3
asS'ever'
p144
(lp145
I2
asS'told'
p146
(lp147
I1
asS'deemed'
p148
(lp149
I1
asS'merchandized'
p150
I3
sS'sinks'
p151
(lp152
I1
asS'never'
p153
(lp154
I2
asS'here'
p155
(lp156
I1
asS'herd'
p157
(lp158
I1
asS'beck'
p159
(lp160
I1
asS"sweet'st"
p161
I1
sS'pursuit'
p162
(lp163
I2
asS'amazeth'
p164
I3
sS'active'
p165
(lp166
I2
asS'spies'
p167
(lp168
I1
asS'a-doting'
p169
I3
sS'effectually'
p170
I4
sS'dry'
p171
(lp172
I1
asS'resty'
p173
I2
sS'substance'
p174
(lp175
I2
asS'gaol'
p176
I1
sS'leaves'
p177
(lp178
I1
asS'climbed'
p179
(lp180
I1
asS'credit'
p181
(lp182
I2
asS'smoke'
p183
(lp184
I1
asS'permit'
p185
(lp186
I2
asS'bettered'
p187
(lp188
I2
asS'weakens'
p189
(lp190
I2
asS'settled'
p191
(lp192
I2
asS'golden'
p193
(lp194
I2
asS'swearing'
p195
(lp196
I2
asS'divide'
p197
(lp198
I2
asS'blessed-fair'
p199
I3
sS'sorrows'
p200
(lp201
I2
asS'patience'
p202
(lp203
I2
asS'stern'
p204
(lp205
I1
asS'glance'
p206
(lp207
I1
asS"light's"
p208
(lp209
I1
asS'plot'
p210
(lp211
I1
asS'would'
p212
(lp213
I1
asS'crowning'
p214
(lp215
I2
asS"world's"
p216
(lp217
I1
asS'junes'
p218
(lp219
I1
asS'music'
p220
(lp221
I2
asS'therefore'
p222
(lp223
I2
asS'survive'
p224
(lp225
I2
asS'gilding'
p226
(lp227
I2
asS'tell'
p228
(lp229
I1
asS'breathe'
p230
(lp231
I1
asS'leese'
p232
(lp233
I1
asS'posting'
p234
(lp235
I2
asS'holy'
p236
(lp237
I2
asS'wary'
p238
(lp239
I2
asS'brings'
p240
(lp241
I1
asS'muse'
p242
(lp243
I1
asS'hurt'
p244
(lp245
I1
asS'grief'
p246
(lp247
I1
asS'glass'
p248
(lp249
I1
asS'warm'
p250
(lp251
I1
asS'excellent'
p252
(lp253
I3
asS'robbing'
p254
(lp255
I2
asS'ward'
p256
(lp257
I1
asS'hold'
p258
(lp259
I1
asS'striving'
p260
(lp261
I2
asS'must'
p262
(lp263
I1
asS'me'
p264
(lp265
I1
asS'locked'
p266
(lp267
I1
asS'room'
p268
(lp269
I1
asS'err'
p270
(lp271
I1
asS'rights'
p272
(lp273
I1
asS'work'
p274
(lp275
I1
asS'eclipse'
p276
(lp277
I2
asS'roof'
p278
(lp279
I1
asS'meadows'
p280
(lp281
I2
asS'ere'
p282
(lp283
I1
asS"batt'ring"
p284
I2
sS'leaped'
p285
(lp286
I1
asS'revenues'
p287
(lp288
I3
asS'my'
p289
(lp290
I1
asS'example'
p291
(lp292
I3
asS'shook'
p293
(lp294
I1
asS'fresher'
p295
(lp296
I2
asS'wane'
p297
(lp298
I1
asS'unjust'
p299
(lp300
I2
asS'honey'
p301
(lp302
I2
asS"wand'rest"
p303
I2
sS'want'
p304
(lp305
I1
asS'story'
p306
(lp307
I2
asS'returned'
p308
(lp309
I2
asS'ceremony'
p310
(lp311
I4
asS'end'
p312
(lp313
I1
asS'thing'
p314
(lp315
I1
asS'provide'
p316
(lp317
I2
asS'dignifies'
p318
I3
sS'travel'
p319
(lp320
I2
asS'song'
p321
(lp322
I1
asS'feature'
p323
(lp324
I2
asS'wights'
p325
I1
sS'faults'
p326
(lp327
I1
asS'hot'
p328
(lp329
I1
asS'writers'
p330
(lp331
I2
asS'answer'
p332
(lp333
I2
asS'gate'
p334
(lp335
I1
asS'dignified'
p336
(lp337
I3
asS"o'er-snowed"
p338
I3
sS'blanks'
p339
(lp340
I1
asS'beauty'
p341
(lp342
I2
asS'shorn'
p343
(lp344
I1
asS'after'
p345
(lp346
I2
asS'wrong'
p347
(lp348
I1
asS'lay'
p349
(lp350
I1
asS'lap'
p351
(lp352
I1
asS'wronk'
p353
I1
sS"grow'st"
p354
I1
sS'grant'
p355
(lp356
I1
asS'revolt'
p357
(lp358
I2
asS'greet'
p359
(lp360
I1
asS'purging'
p361
(lp362
I2
asS'wink'
p363
(lp364
I1
asS'maintain'
p365
(lp366
I2
asS'green'
p367
(lp368
I1
asS'keeps'
p369
(lp370
I1
asS'enjoyer'
p371
I3
sS'alack'
p372
I2
sS'masonry'
p373
(lp374
I3
asS'wing'
p375
(lp376
I1
asS'wind'
p377
(lp378
I1
asS'bed-vow'
p379
I2
sS'determinate'
p380
(lp381
I4
asS'couplement'
p382
I3
sS'untold'
p383
(lp384
I2
asS'office'
p385
(lp386
I2
asS'consent'
p387
(lp388
I2
asS'profaned'
p389
I2
sS'sickly'
p390
(lp391
I2
asS'fortify'
p392
(lp393
I3
asS'ghastly'
p394
(lp395
I2
asS"o'er-read"
p396
I3
sS'budding'
p397
(lp398
I2
asS"bestow'st"
p399
I2
sS'wrought'
p400
(lp401
I1
asS'before'
p402
(lp403
I2
asS'thrust'
p404
(lp405
I1
asS'better'
p406
(lp407
I2
asS'fade'
p408
(lp409
I1
asS'carve'
p410
(lp411
I1
asS'hidden'
p412
(lp413
I2
asS'savour'
p414
I2
sS'then'
p415
(lp416
I1
asS'them'
p417
(lp418
I1
asS'blots'
p419
(lp420
I1
asS'vouchsafe'
p421
I2
sS'weakness'
p422
(lp423
I2
asS'thee'
p424
(lp425
I1
asS"truth's"
p426
I1
sS'break'
p427
(lp428
I1
asS"winter's"
p429
(lp430
I2
asS'diseased'
p431
(lp432
I2
asS'they'
p433
(lp434
I1
asS'glazed'
p435
(lp436
I1
asS"lovers'"
p437
(lp438
I2
asS'silver'
p439
(lp440
I2
asS'shadows'
p441
(lp442
I2
asS'rhetoric'
p443
(lp444
I3
asS'brightness'
p445
(lp446
I2
asS'slavery'
p447
(lp448
I3
asS'rocks'
p449
(lp450
I1
asS'herald'
p451
(lp452
I2
asS'victories'
p453
(lp454
I2
aI3
asS'each'
p455
(lp456
I1
asS'wantonly'
p457
(lp458
I3
asS'dulness'
p459
I2
sS'went'
p460
(lp461
I1
asS'side'
p462
(lp463
I1
asS'bond'
p464
(lp465
I1
asS'true-telling'
p466
I2
sS'woes'
p467
(lp468
I1
asS'concord'
p469
(lp470
I2
asS"'will'"
p471
I1
sS'taught'
p472
(lp473
I1
asS'forgot'
p474
(lp475
I2
asS'misprision'
p476
(lp477
I3
asS'whit'
p478
(lp479
I1
asS'truant'
p480
(lp481
I2
asS'sounds'
p482
(lp483
I1
asS'borne'
p484
(lp485
I1
asS'contend'
p486
(lp487
I2
asS'silvered'
p488
I2
sS'decree'
p489
(lp490
I2
asS'god'
p491
(lp492
I1
asS'forty'
p493
(lp494
I2
asS'moiety'
p495
I2
sS'content'
p496
(lp497
I2
asS'laid'
p498
(lp499
I1
asS'heart-inflaming'
p500
I4
sS'heavenly'
p501
(lp502
I3
asS'got'
p503
(lp504
I1
asS'marigold'
p505
(lp506
I3
asS'forth'
p507
(lp508
I1
asS'assured'
p509
(lp510
I2
asS'fadeth'
p511
I2
sS'tops'
p512
(lp513
I1
asS'eternal'
p514
(lp515
I3
asS'little'
p516
(lp517
I2
asS'free'
p518
(lp519
I1
asS'mourning'
p520
(lp521
I2
asS'small'
p522
(lp523
I1
asS'bestow'
p524
(lp525
I2
asS'whereupon'
p526
(lp527
I3
asS'rain'
p528
(lp529
I1
asS"t'"
p530
I1
sS'rearward'
p531
I2
sS'crowned'
p532
(lp533
I1
asS'mistress'
p534
(lp535
I2
asS'knit'
p536
(lp537
I1
asS'delves'
p538
(lp539
I1
asS'created'
p540
(lp541
I3
asS'days'
p542
(lp543
I1
asS'ordering'
p544
(lp545
I3
asS'renew'
p546
(lp547
I2
asS'tempting'
p548
(lp549
I2
asS'tied'
p550
(lp551
I1
asS'potions'
p552
(lp553
I2
asS'loud'
p554
(lp555
I1
asS'ruinate'
p556
I3
sS'penury'
p557
(lp558
I3
asS'recite'
p559
(lp560
I2
asS'untutored'
p561
I3
sS'already'
p562
(lp563
I3
asS'hearsay'
p564
(lp565
I2
asS"'greeing"
p566
I1
sS'thereof'
p567
(lp568
I2
asS'hearing'
p569
(lp570
I2
asS'jealous'
p571
(lp572
I2
asS'featured'
p573
(lp574
I2
asS'another'
p575
(lp576
I3
asS'sober'
p577
(lp578
I2
asS'filching'
p579
I2
sS'exchequer'
p580
(lp581
I3
asS'service'
p582
(lp583
I2
asS'their'
p584
(lp585
I1
asS'top'
p586
(lp587
I1
asS'hawks'
p588
(lp589
I1
asS'millioned'
p590
I3
sS'master'
p591
(lp592
I2
asS'too'
p593
(lp594
I1
asS'outworn'
p595
I2
sS'dwell'
p596
(lp597
I1
asS'bitter'
p598
(lp599
I2
asS'saith'
p600
I1
sS'broils'
p601
I1
sS'out-going'
p602
I3
sS'griefs'
p603
I1
sS'took'
p604
(lp605
I1
asS'wisdom'
p606
(lp607
I2
asS'wardrobe'
p608
(lp609
I2
asS"youth's"
p610
(lp611
I1
asS'begins'
p612
(lp613
I2
asS'distance'
p614
(lp615
I2
asS'coward'
p616
(lp617
I2
asS'singleness'
p618
I3
sS'bitterness'
p619
(lp620
I3
asS'idly'
p621
(lp622
I2
asS'matter'
p623
(lp624
I2
asS'idle'
p625
(lp626
I2
asS"others'"
p627
(lp628
I2
asS'flame'
p629
(lp630
I1
asS'speaking'
p631
(lp632
I2
asS'deserving'
p633
(lp634
I3
asS'knights'
p635
(lp636
I1
asS'feeling'
p637
(lp638
I2
asS'powers'
p639
(lp640
I2
asS'swift-footed'
p641
I3
sS'fashion'
p642
(lp643
I2
asS'sees'
p644
(lp645
I1
asS'gaudy'
p646
(lp647
I2
asS"mind's"
p648
(lp649
I1
asS'modern'
p650
(lp651
I2
asS'mind'
p652
(lp653
I1
asS'mine'
p654
(lp655
I1
asS'loathsome'
p656
(lp657
I2
asS'manner'
p658
(lp659
I2
asS'bewailed'
p660
I2
sS"deserv'st"
p661
I2
sS'seen'
p662
(lp663
I1
asS'seem'
p664
(lp665
I1
asS'seek'
p666
(lp667
I1
asS'tells'
p668
(lp669
I1
asS'contents'
p670
(lp671
I2
asS'praising'
p672
(lp673
I2
asS'strength'
p674
(lp675
I1
asS'shamefully'
p676
I4
sS'snow'
p677
(lp678
I1
asS'chest'
p679
(lp680
I1
asS'subjects'
p681
(lp682
I2
asS'laughed'
p683
(lp684
I1
asS'pilgrimage'
p685
(lp686
I3
asS'rider'
p687
(lp688
I2
asS'maiden'
p689
(lp690
I2
asS'though'
p691
(lp692
I1
asS'object'
p693
(lp694
I2
asS'dial'
p695
(lp696
I1
aI2
asS'dulling'
p697
(lp698
I2
asS'errors'
p699
(lp700
I2
asS'disarmed'
p701
(lp702
I2
asS'grave'
p703
(lp704
I1
asS'shalt'
p705
(lp706
I1
asS'constancy'
p707
(lp708
I3
asS'foist'
p709
(lp710
I1
asS'flow'
p711
(lp712
I1
asS'breathes'
p713
(lp714
I1
asS'steeled'
p715
I1
sS'points'
p716
(lp717
I1
asS'breathed'
p718
(lp719
I1
asS'sum'
p720
(lp721
I1
asS'fitted'
p722
(lp723
I2
asS'reserve'
p724
(lp725
I2
asS'saying'
p726
(lp727
I2
asS'bait'
p728
(lp729
I1
asS'random'
p730
(lp731
I2
asS'ending'
p732
(lp733
I2
asS'poison'
p734
(lp735
I2
asS'earth'
p736
(lp737
I1
asS'bail'
p738
(lp739
I1
asS'enjoyed'
p740
(lp741
I2
asS'touches'
p742
(lp743
I2
asS'busy'
p744
(lp745
I2
asS'just'
p746
(lp747
I1
asS'spite'
p748
(lp749
I1
asS'spites'
p750
I2
sS'cupid'
p751
(lp752
I2
asS'bliss'
p753
(lp754
I1
asS'deepest'
p755
(lp756
I2
asS'rich'
p757
(lp758
I1
asS'pursuing'
p759
(lp760
I3
asS'mend'
p761
(lp762
I1
asS"'thou"
p763
I1
sS'soundless'
p764
I2
sS'borrowed'
p765
(lp766
I2
asS'do'
p767
(lp768
I1
asS'blenches'
p769
I2
sS'forsworn'
p770
(lp771
I2
asS"'i"
p772
I1
sS'stop'
p773
(lp774
I1
asS'perceive'
p775
(lp776
I2
asS'leisure'
p777
(lp778
I2
asS'unfair'
p779
(lp780
I2
asS'gored'
p781
(lp782
I1
asS'bootless'
p783
I2
sS'despite'
p784
(lp785
I2
asS'report'
p786
(lp787
I2
asS'aught'
p788
I1
sS'saturn'
p789
(lp790
I2
asS'nurse'
p791
(lp792
I1
asS'runs'
p793
(lp794
I1
asS'bar'
p795
(lp796
I1
asS'beseem'
p797
I2
sS'thrusts'
p798
(lp799
I1
asS'public'
p800
(lp801
I2
asS'twice'
p802
(lp803
I1
asS'eyelids'
p804
(lp805
I2
asS'esteeming'
p806
I3
sS'hasten'
p807
(lp808
I2
asS'steal'
p809
(lp810
I1
asS'farther'
p811
(lp812
I2
asS'fragrant'
p813
(lp814
I2
asS'penance'
p815
(lp816
I2
asS"wond'ring"
p817
I2
sS'unrespected'
p818
I4
sS'fair'
p819
(lp820
I1
asS'habit'
p821
(lp822
I2
asS'imitate'
p823
(lp824
I3
asS'tillage'
p825
I2
sS'proclaims'
p826
(lp827
I2
asS'depends'
p828
(lp829
I2
asS'corrupt'
p830
(lp831
I2
asS'best'
p832
(lp833
I1
asS'subject'
p834
(lp835
I2
asS'said'
p836
(lp837
I1
asS'temptation'
p838
(lp839
I3
asS"bett'ring"
p840
I2
sS'away'
p841
(lp842
I2
asS'afloat'
p843
(lp844
I2
asS'bier'
p845
(lp846
I1
asS'injuries'
p847
(lp848
I3
asS'wilful-slow'
p849
I3
sS'mud'
p850
(lp851
I1
asS'score'
p852
(lp853
I1
asS'finger'
p854
(lp855
I2
asS'pebbled'
p856
I1
sS'scorn'
p857
(lp858
I1
asS'drawn'
p859
(lp860
I1
asS'vices'
p861
(lp862
I2
asS'preserve'
p863
(lp864
I2
asS'warrior'
p865
(lp866
I2
aI3
asS'we'
p867
(lp868
I1
asS'men'
p869
(lp870
I1
asS'terms'
p871
(lp872
I1
asS'parallels'
p873
(lp874
I3
asS'nature'
p875
(lp876
I2
asS'lover'
p877
(lp878
I2
asS'weak'
p879
(lp880
I1
asS'ignorance'
p881
(lp882
I3
asS'authorizing'
p883
(lp884
I4
asS'devour'
p885
(lp886
I3
asS'wear'
p887
(lp888
I1
asS'diest'
p889
I1
sS'news'
p890
(lp891
I1
asS'debt'
p892
(lp893
I1
asS'tempests'
p894
I2
sS'pity'
p895
(lp896
I2
asS'foes'
p897
(lp898
I1
asS'goddess'
p899
(lp900
I2
asS'accident'
p901
(lp902
I3
asS'disdain'
p903
(lp904
I2
asS'fault'
p905
(lp906
I1
asS'ill'
p907
(lp908
I1
asS'against'
p909
(lp910
I2
asS'brag'
p911
(lp912
I1
asS'receives'
p913
(lp914
I2
asS'faces'
p915
(lp916
I2
asS'exceeds'
p917
(lp918
I2
asS'expense'
p919
(lp920
I2
asS'groans'
p921
(lp922
I1
asS'asked'
p923
(lp924
I1
asS'vexed'
p925
(lp926
I1
asS'honouring'
p927
I3
sS'had'
p928
(lp929
I1
asS'height'
p930
(lp931
I1
asS'hers'
p932
(lp933
I1
asS'springs'
p934
(lp935
I1
aI2
asS'over-plus'
p936
I3
sS'trust'
p937
(lp938
I1
asS'heals'
p939
(lp940
I1
asS'speak'
p941
(lp942
I1
asS'petty'
p943
(lp944
I2
asS'unhappily'
p945
(lp946
I4
asS'puts'
p947
(lp948
I1
asS'hues'
p949
(lp950
I1
asS'time-bettering'
p951
I4
sS'three'
p952
(lp953
I1
asS'been'
p954
(lp955
I1
asS'particulars'
p956
(lp957
I4
asS'twain'
p958
(lp959
I1
asS'much'
p960
(lp961
I1
asS'interest'
p962
(lp963
I2
aI3
asS'incertainty'
p964
I4
sS'privilege'
p965
(lp966
I2
aI3
asS'lovely'
p967
(lp968
I2
asS'burthen'
p969
I2
sS'thrice'
p970
(lp971
I1
asS'idol'
p972
(lp973
I2
asS'threw'
p974
(lp975
I1
asS'life'
p976
(lp977
I1
asS'fleeting'
p978
(lp979
I2
asS'beloved'
p980
(lp981
I2
aI3
asS'drugs'
p982
(lp983
I1
asS'maladies'
p984
(lp985
I3
asS'decrepit'
p986
(lp987
I3
asS'dote'
p988
(lp989
I1
asS'child'
p990
(lp991
I1
asS'catch'
p992
(lp993
I1
asS"ne'er-cloying"
p994
I3
sS'doth'
p995
(lp996
I1
asS'erst'
p997
I1
sS'gracious'
p998
(lp999
I2
asS'physician'
p1000
(lp1001
I3
asS'save'
p1002
(lp1003
I1
asS'gentle'
p1004
(lp1005
I2
asS'air'
p1006
(lp1007
I1
asS'lesser'
p1008
(lp1009
I2
asS'ugly'
p1010
(lp1011
I2
asS'near'
p1012
(lp1013
I1
asS'suppose'
p1014
(lp1015
I2
asS'aid'
p1016
(lp1017
I1
asS'voice'
p1018
(lp1019
I1
asS'mistake'
p1020
(lp1021
I2
asS'played'
p1022
(lp1023
I1
asS'is'
p1024
(lp1025
I1
asS'it'
p1026
(lp1027
I1
asS'defeated'
p1028
(lp1029
I3
asS'shame'
p1030
(lp1031
I1
asS'to-morrow'
p1032
I3
sS'splendour'
p1033
I2
sS'watching'
p1034
(lp1035
I2
asS'in'
p1036
(lp1037
I1
asS'bounteous'
p1038
I3
sS'if'
p1039
(lp1040
I1
asS'grown'
p1041
(lp1042
I1
asS'wooing'
p1043
(lp1044
I2
asS'memorial'
p1045
(lp1046
I4
asS'awakes'
p1047
I3
sS'cools'
p1048
(lp1049
I1
asS'patent'
p1050
(lp1051
I2
asS'suggest'
p1052
(lp1053
I2
asS'make'
p1054
(lp1055
I1
asS'wound'
p1056
(lp1057
I1
asS"lords'"
p1058
I1
sS'beside'
p1059
(lp1060
I2
asS'bosoms'
p1061
I2
sS"th'"
p1062
I1
sS'several'
p1063
(lp1064
I2
aI3
asS'grows'
p1065
(lp1066
I1
asS'entitled'
p1067
(lp1068
I3
asS'lusty'
p1069
(lp1070
I2
asS'fairly'
p1071
(lp1072
I2
asS'hang'
p1073
(lp1074
I1
asS'evil'
p1075
(lp1076
I2
asS'hand'
p1077
(lp1078
I1
asS'delight'
p1079
(lp1080
I2
asS'supposing'
p1081
(lp1082
I3
asS'workings'
p1083
(lp1084
I2
asS'bequest'
p1085
(lp1086
I2
asS'blamed'
p1087
(lp1088
I1
asS'thoughts'
p1089
(lp1090
I1
asS'censures'
p1091
I3
sS'kept'
p1092
(lp1093
I1
asS'thy'
p1094
(lp1095
I1
asS"mother's"
p1096
(lp1097
I2
asS'askance'
p1098
(lp1099
I2
asS'possessed'
p1100
(lp1101
I2
asS'humble'
p1102
(lp1103
I2
asS'inherit'
p1104
(lp1105
I3
asS'ocean'
p1106
(lp1107
I2
asS'ragged'
p1108
(lp1109
I2
asS'fulness'
p1110
I2
sS'greatest'
p1111
(lp1112
I2
asS'incapable'
p1113
(lp1114
I4
asS'mother'
p1115
(lp1116
I2
asS'hearts'
p1117
(lp1118
I1
asS'the'
p1119
(lp1120
I1
asS'cure'
p1121
(lp1122
I1
asS'yours'
p1123
(lp1124
I1
asS'left'
p1125
(lp1126
I1
asS'proposed'
p1127
(lp1128
I2
asS'wasteful'
p1129
(lp1130
I2
asS'yea'
p1131
(lp1132
I1
asS"poet's"
p1133
(lp1134
I2
asS'forsaken'
p1135
(lp1136
I3
asS'repose'
p1137
(lp1138
I2
asS'verses'
p1139
(lp1140
I2
asS'maketh'
p1141
I2
sS'thanks'
p1142
(lp1143
I1
asS'swears'
p1144
(lp1145
I1
asS'prognosticate'
p1146
(lp1147
I4
asS'plight'
p1148
(lp1149
I1
asS'yet'
p1150
(lp1151
I1
asS'succeeding'
p1152
(lp1153
I3
asS'enlighten'
p1154
(lp1155
I3
asS'adding'
p1156
(lp1157
I2
asS'dearer'
p1158
(lp1159
I2
asS'compeers'
p1160
I2
sS'character'
p1161
(lp1162
I3
asS'presagers'
p1163
I3
sS'alchemy'
p1164
(lp1165
I3
asS'belongs'
p1166
(lp1167
I2
asS'easy'
p1168
(lp1169
I2
asS'prison'
p1170
(lp1171
I2
asS'hap'
p1172
(lp1173
I1
asS'pitiful'
p1174
(lp1175
I3
asS'east'
p1176
(lp1177
I1
asS'gave'
p1178
(lp1179
I1
asS'reviewest'
p1180
I3
sS'birth'
p1181
(lp1182
I1
asS'shadow'
p1183
(lp1184
I2
asS'dreams'
p1185
(lp1186
I1
asS"feed'st"
p1187
I2
sS'desire'
p1188
(lp1189
I3
asS'dignity'
p1190
(lp1191
I3
asS"picture's"
p1192
(lp1193
I2
asS'gift'
p1194
(lp1195
I1
asS'new-found'
p1196
I2
sS'vilest'
p1197
I2
sS'offices'
p1198
(lp1199
I3
asS'night'
p1200
(lp1201
I1
asS'hung'
p1202
(lp1203
I1
asS'antique'
p1204
(lp1205
I2
asS'right'
p1206
(lp1207
I1
asS'old'
p1208
(lp1209
I1
asS'flatter'
p1210
(lp1211
I2
asS'all-oblivious'
p1212
I5
sS'deaf'
p1213
(lp1214
I1
asS'short-numbered'
p1215
I3
sS'dead'
p1216
(lp1217
I1
asS'born'
p1218
(lp1219
I1
asS'kind-hearted'
p1220
I3
sS'dear'
p1221
(lp1222
I1
asS'pain'
p1223
(lp1224
I1
asS'bore'
p1225
(lp1226
I1
asS'creep'
p1227
(lp1228
I1
asS'enemies'
p1229
(lp1230
I3
asS'for'
p1231
(lp1232
I1
asS"bosom's"
p1233
I2
sS'rehearse'
p1234
(lp1235
I2
asS'comments'
p1236
(lp1237
I2
asS'foe'
p1238
(lp1239
I1
asS'denied'
p1240
(lp1241
I2
asS'bold'
p1242
(lp1243
I1
asS'burn'
p1244
(lp1245
I1
asS'translated'
p1246
(lp1247
I3
asS'shifting'
p1248
(lp1249
I2
asS'losing'
p1250
(lp1251
I2
asS'eye'
p1252
(lp1253
I1
asS'peep'
p1254
(lp1255
I1
asS'disdains'
p1256
(lp1257
I2
asS'shaken'
p1258
(lp1259
I2
asS'takes'
p1260
(lp1261
I1
asS'theirs'
p1262
(lp1263
I1
asS'coral'
p1264
(lp1265
I2
asS'haply'
p1266
I2
sS'frailer'
p1267
I2
sS'o'
(lp1268
I1
asS'despair'
p1269
(lp1270
I2
asS'cherish'
p1271
(lp1272
I2
asS'commit'
p1273
(lp1274
I2
asS'lacked'
p1275
(lp1276
I1
asS'raised'
p1277
(lp1278
I1
asS'contains'
p1279
(lp1280
I2
asS'presence'
p1281
(lp1282
I2
asS'civil'
p1283
(lp1284
I2
asS'pays'
p1285
(lp1286
I1
asS'tract'
p1287
(lp1288
I1
asS'bound'
p1289
(lp1290
I1
asS'bath'
p1291
(lp1292
I1
asS'down'
p1293
(lp1294
I1
asS'lies'
p1295
(lp1296
I1
asS'refined'
p1297
(lp1298
I2
asS"pour'st"
p1299
I1
sS'often'
p1300
(lp1301
I2
asS'strangely'
p1302
(lp1303
I2
asS'despised'
p1304
(lp1305
I2
asS'wombs'
p1306
I1
sS'jealousy'
p1307
(lp1308
I3
asS'sovereign'
p1309
(lp1310
I2
asS'fight'
p1311
(lp1312
I1
asS'virgin'
p1313
(lp1314
I2
asS'way'
p1315
(lp1316
I1
asS'call'
p1317
(lp1318
I1
asS'was'
p1319
(lp1320
I1
asS'war'
p1321
(lp1322
I1
asS'happy'
p1323
(lp1324
I2
asS'head'
p1325
(lp1326
I1
asS'perfumes'
p1327
(lp1328
I2
asS'form'
p1329
(lp1330
I1
asS'afresh'
p1331
(lp1332
I2
asS'crown'
p1333
(lp1334
I1
asS'becoming'
p1335
(lp1336
I3
asS'forgetful'
p1337
(lp1338
I3
asS'fore'
p1339
(lp1340
I1
asS'heinous'
p1341
(lp1342
I2
asS'pricked'
p1343
(lp1344
I1
asS'heat'
p1345
(lp1346
I1
asS'hear'
p1347
(lp1348
I1
asS'odours'
p1349
I2
sS'astonished'
p1350
(lp1351
I3
asS'blindness'
p1352
(lp1353
I2
asS'removed'
p1354
(lp1355
I2
asS'true'
p1356
(lp1357
I1
asS'absent'
p1358
(lp1359
I2
asS'lilies'
p1360
(lp1361
I2
asS'captive'
p1362
(lp1363
I2
asS'extremity'
p1364
(lp1365
I4
asS"for't"
p1366
I1
sS'bids'
p1367
(lp1368
I1
asS'ruined'
p1369
(lp1370
I2
asS'crystal'
p1371
(lp1372
I2
asS'unfathered'
p1373
I3
sS'adore'
p1374
(lp1375
I2
asS'anew'
p1376
(lp1377
I2
asS'engraft'
p1378
I2
sS'bide'
p1379
(lp1380
I1
asS'latch'
p1381
(lp1382
I1
asS'trim'
p1383
(lp1384
I1
asS'disgrace'
p1385
(lp1386
I2
asS'sight'
p1387
(lp1388
I1
asS'up'
p1389
(lp1390
I1
asS'fury'
p1391
(lp1392
I2
asS'sinful'
p1393
(lp1394
I2
asS'steep-up'
p1395
I2
sS"beauty's"
p1396
I2
sS'huswife'
p1397
I2
sS'sometime'
p1398
(lp1399
I2
asS'subsist'
p1400
(lp1401
I2
asS'shines'
p1402
(lp1403
I1
asS'face'
p1404
(lp1405
I1
asS'check'
p1406
(lp1407
I1
asS'unbless'
p1408
I2
sS'willingly'
p1409
(lp1410
I3
asS'pipe'
p1411
(lp1412
I1
asS'dying'
p1413
(lp1414
I2
asS'no'
p1415
(lp1416
I1
asS'gluttoning'
p1417
I3
sS'when'
p1418
(lp1419
I1
asS"lov'st"
p1420
I1
sS'actor'
p1421
(lp1422
I2
asS'thriftless'
p1423
I2
sS'despising'
p1424
(lp1425
I3
asS'falsely'
p1426
(lp1427
I2
asS'papers'
p1428
(lp1429
I2
asS'tie'
p1430
(lp1431
I1
asS'vanished'
p1432
(lp1433
I2
asS'smell'
p1434
(lp1435
I1
asS'eternity'
p1436
(lp1437
I4
asS'picture'
p1438
(lp1439
I2
asS'intend'
p1440
(lp1441
I2
asS'phoenix'
p1442
(lp1443
I2
asS'delivered'
p1444
(lp1445
I3
asS'dies'
p1446
(lp1447
I1
asS'felt'
p1448
(lp1449
I1
asS'first-born'
p1450
I2
sS'present-absent'
p1451
I4
sS'fell'
p1452
(lp1453
I1
asS'reign'
p1454
(lp1455
I1
asS'dateless'
p1456
I3
sS'rolling'
p1457
(lp1458
I2
asS'pierced'
p1459
(lp1460
I1
asS'died'
p1461
(lp1462
I1
asS'wrackful'
p1463
I2
sS'to-day'
p1464
I2
sS'faster'
p1465
(lp1466
I2
asS'blushing'
p1467
(lp1468
I2
asS'daily'
p1469
(lp1470
I2
asS'cheater'
p1471
(lp1472
I2
asS'time'
p1473
(lp1474
I1
asS"dian's"
p1475
I2
sS'backward'
p1476
(lp1477
I2
asS'restored'
p1478
(lp1479
I2
asS'songs'
p1480
(lp1481
I1
asS'ensconce'
p1482
(lp1483
I2
asS'whoever'
p1484
(lp1485
I3
asS"perceiv'st"
p1486
I2
sS'souls'
p1487
(lp1488
I1
asS'vermilion'
p1489
(lp1490
I3
asS'engrafted'
p1491
I3
sS'leads'
p1492
(lp1493
I1
asS'continual'
p1494
(lp1495
I4
asS'idolatry'
p1496
(lp1497
I4
asS'abundant'
p1498
(lp1499
I3
asS'retention'
p1500
(lp1501
I3
asS'doom'
p1502
(lp1503
I1
asS'praises'
p1504
(lp1505
I2
asS'april'
p1506
(lp1507
I2
asS'father'
p1508
(lp1509
I2
asS'pen'
p1510
(lp1511
I1
asS'vex'
p1512
(lp1513
I1
asS'charge'
p1514
(lp1515
I1
asS'praised'
p1516
(lp1517
I1
asS'suffered'
p1518
(lp1519
I2
asS'addeth'
p1520
I2
sS'furrows'
p1521
I2
sS'shoot'
p1522
(lp1523
I1
asS'strumpeted'
p1524
I3
sS'string'
p1525
(lp1526
I1
asS'advantage'
p1527
(lp1528
I3
asS'buriest'
p1529
I2
sS'nought'
p1530
I1
sS'drudge'
p1531
(lp1532
I1
asS'none'
p1533
(lp1534
I1
asS'votary'
p1535
I3
sS'mourn'
p1536
(lp1537
I1
asS'advised'
p1538
(lp1539
I2
asS'join'
p1540
(lp1541
I1
asS'trouble'
p1542
(lp1543
I2
asS'feeble'
p1544
(lp1545
I2
asS'cool'
p1546
(lp1547
I1
asS"soul's"
p1548
I1
sS'perceived'
p1549
(lp1550
I2
asS'clouds'
p1551
(lp1552
I1
asS'level'
p1553
(lp1554
I2
asS'did'
p1555
(lp1556
I1
asS'die'
p1557
(lp1558
I1
asS'dig'
p1559
(lp1560
I1
asS'equipage'
p1561
I4
sS'leave'
p1562
(lp1563
I1
asS'excellence'
p1564
(lp1565
I3
asS'quick'
p1566
(lp1567
I1
asS'prevent'
p1568
(lp1569
I2
asS'brave'
p1570
(lp1571
I1
asS'says'
p1572
(lp1573
I1
asS'fearing'
p1574
(lp1575
I2
asS"offender's"
p1576
I3
sS'double-vantage'
p1577
I3
sS'sigh'
p1578
(lp1579
I1
asS'wherefore'
p1580
I4
sS'cost'
p1581
(lp1582
I1
asS'run'
p1583
(lp1584
I1
asS'rough'
p1585
(lp1586
I1
asS'drinks'
p1587
(lp1588
I1
asS'hymn'
p1589
(lp1590
I1
asS'unswayed'
p1591
(lp1592
I2
asS'curse'
p1593
(lp1594
I1
asS'appear'
p1595
(lp1596
I2
asS'assistance'
p1597
(lp1598
I3
asS'contracted'
p1599
(lp1600
I3
asS'favour'
p1601
I2
sS'debate'
p1602
(lp1603
I2
asS'suspect'
p1604
(lp1605
I2
asS'goes'
p1606
(lp1607
I1
asS'view'
p1608
(lp1609
I1
asS'appeal'
p1610
(lp1611
I2
asS'filled'
p1612
(lp1613
I1
asS"april's"
p1614
(lp1615
I2
asS'prescriptions'
p1616
(lp1617
I3
asS'wail'
p1618
(lp1619
I1
asS'heavily'
p1620
(lp1621
I3
asS'honour'
p1622
I2
sS'clerk'
p1623
(lp1624
I1
asS'water'
p1625
(lp1626
I2
asS'entertain'
p1627
(lp1628
I3
asS'alone'
p1629
(lp1630
I2
asS'appears'
p1631
(lp1632
I2
asS'change'
p1633
(lp1634
I1
asS'blunter'
p1635
(lp1636
I2
asS'boy'
p1637
(lp1638
I1
asS'boast'
p1639
(lp1640
I1
asS'root'
p1641
(lp1642
I1
asS'guilty'
p1643
(lp1644
I2
asS'bow'
p1645
(lp1646
I1
asS'spheres'
p1647
(lp1648
I1
asS'recounting'
p1649
(lp1650
I3
asS'stained'
p1651
(lp1652
I1
asS'love'
p1653
(lp1654
I1
asS'humour'
p1655
I2
sS'tempteth'
p1656
I2
sS'bloody'
p1657
(lp1658
I2
asS'withal'
p1659
I2
sS'betraying'
p1660
(lp1661
I3
asS'surmount'
p1662
(lp1663
I2
asS'swallowed'
p1664
(lp1665
I2
asS"suff'ring"
p1666
I2
sS"o'erworn"
p1667
I3
sS'wealth'
p1668
(lp1669
I1
asS'prove'
p1670
(lp1671
I1
asS'sake'
p1672
(lp1673
I1
asS'confounded'
p1674
(lp1675
I3
asS'angry'
p1676
(lp1677
I2
asS'give'
p1678
(lp1679
I1
asS'tears'
p1680
(lp1681
I1
asS'by'
p1682
(lp1683
I1
asS'wrongs'
p1684
(lp1685
I1
asS'live'
p1686
(lp1687
I1
asS'wood'
p1688
(lp1689
I1
asS'prey'
p1690
(lp1691
I1
asS'memory'
p1692
(lp1693
I3
asS'scope'
p1694
(lp1695
I1
asS'loving'
p1696
(lp1697
I2
asS"love's"
p1698
(lp1699
I1
asS'love-god'
p1700
I2
sS'riot'
p1701
(lp1702
I2
asS'sessions'
p1703
(lp1704
I2
asS'towers'
p1705
(lp1706
I2
asS'share'
p1707
(lp1708
I1
asS'acceptable'
p1709
(lp1710
I4
asS"strength's"
p1711
I1
sS'fuel'
p1712
(lp1713
I1
aI2
asS'drown'
p1714
(lp1715
I1
asS'everywhere'
p1716
(lp1717
I3
asS'virtue'
p1718
(lp1719
I2
asS'robe'
p1720
(lp1721
I1
asS'epitaph'
p1722
(lp1723
I3
asS'fly'
p1724
(lp1725
I1
asS'impair'
p1726
(lp1727
I2
asS'sheds'
p1728
(lp1729
I1
asS'car'
p1730
(lp1731
I1
asS'soul'
p1732
(lp1733
I1
asS'purge'
p1734
(lp1735
I1
asS'hardest'
p1736
(lp1737
I2
asS'sour'
p1738
(lp1739
I1
aI2
asS'can'
p1740
(lp1741
I1
asS'believed'
p1742
(lp1743
I2
asS'making'
p1744
(lp1745
I2
asS"prevent'st"
p1746
I2
sS'deceased'
p1747
(lp1748
I2
asS'breeds'
p1749
(lp1750
I1
asS'heart'
p1751
(lp1752
I1
asS'dedicated'
p1753
(lp1754
I4
asS"servant's"
p1755
I2
sS'respose'
p1756
I2
sS'figure'
p1757
(lp1758
I2
asS'predict'
p1759
(lp1760
I2
asS'sense'
p1761
(lp1762
I1
asS'distillation'
p1763
(lp1764
I4
asS'heard'
p1765
(lp1766
I1
asS'critic'
p1767
(lp1768
I2
asS'purity'
p1769
(lp1770
I3
asS'hides'
p1771
(lp1772
I1
asS'sharp'
p1773
(lp1774
I1
asS'provoke'
p1775
(lp1776
I2
asS'stole'
p1777
(lp1778
I1
asS'churls'
p1779
I1
sS'winter'
p1780
(lp1781
I2
asS'allege'
p1782
(lp1783
I2
asS'divided'
p1784
(lp1785
I3
asS'bonds'
p1786
(lp1787
I1
asS'vainly'
p1788
(lp1789
I2
asS'pine'
p1790
(lp1791
I1
asS"lour'st"
p1792
I1
sS'write'
p1793
(lp1794
I1
asS'till'
p1795
(lp1796
I1
asS'sword'
p1797
(lp1798
I1
asS'dispraise'
p1799
I2
sS'husbandry'
p1800
(lp1801
I3
asS'sworn'
p1802
(lp1803
I1
asS"eye's"
p1804
(lp1805
I1
asS'map'
p1806
(lp1807
I1
asS'mar'
p1808
(lp1809
I1
asS'where-through'
p1810
I2
sS'all-tyrant'
p1811
I3
sS'may'
p1812
(lp1813
I1
asS'spot'
p1814
(lp1815
I1
asS'needs'
p1816
(lp1817
I1
asS'mad'
p1818
(lp1819
I1
asS'date'
p1820
(lp1821
I1
asS'such'
p1822
(lp1823
I1
asS'hateth'
p1824
I2
sS'flourish'
p1825
(lp1826
I2
asS'grow'
p1827
(lp1828
I1
asS'man'
p1829
(lp1830
I1
asS'temperate'
p1831
(lp1832
I2
aI3
asS'neck'
p1833
(lp1834
I1
asS'liquid'
p1835
(lp1836
I2
asS'candles'
p1837
(lp1838
I2
asS'needy'
p1839
(lp1840
I2
asS'so'
p1841
(lp1842
I1
asS'youthful'
p1843
(lp1844
I2
asS'deceive'
p1845
(lp1846
I2
asS'thorns'
p1847
(lp1848
I1
asS'tall'
p1849
(lp1850
I1
asS'augurs'
p1851
(lp1852
I2
asS'serving'
p1853
(lp1854
I2
asS'seeing'
p1855
(lp1856
I2
asS'food'
p1857
(lp1858
I1
asS'indeed'
p1859
(lp1860
I2
asS'forfeit'
p1861
(lp1862
I2
asS'wishing'
p1863
(lp1864
I2
asS'years'
p1865
(lp1866
I1
asS'brain'
p1867
(lp1868
I1
asS'pitch'
p1869
(lp1870
I1
asS'cold'
p1871
(lp1872
I1
asS'still'
p1873
(lp1874
I1
asS'birds'
p1875
(lp1876
I1
asS'trifle'
p1877
(lp1878
I2
asS'limbs'
p1879
(lp1880
I1
asS'derive'
p1881
(lp1882
I2
asS'odour'
p1883
I2
sS'thank'
p1884
(lp1885
I1
asS'acknowledge'
p1886
(lp1887
I3
asS'muses'
p1888
(lp1889
I2
asS'spur'
p1890
(lp1891
I1
asS'torn'
p1892
(lp1893
I1
asS'curls'
p1894
(lp1895
I1
asS"offence's"
p1896
I3
sS'maid'
p1897
(lp1898
I1
asS'spacious'
p1899
(lp1900
I2
asS"play'st"
p1901
I1
sS'policy'
p1902
(lp1903
I3
asS"stol'n"
p1904
I1
sS'main'
p1905
(lp1906
I1
asS'conquest'
p1907
(lp1908
I2
asS'correspondence'
p1909
(lp1910
I4
asS'closure'
p1911
(lp1912
I2
asS'truest'
p1913
(lp1914
I2
asS'halt'
p1915
(lp1916
I1
asS'thereby'
p1917
(lp1918
I2
asS'sooner'
p1919
(lp1920
I2
asS'delighted'
p1921
(lp1922
I3
asS'records'
p1923
(lp1924
I2
asS'half'
p1925
(lp1926
I1
asS'not'
p1927
(lp1928
I1
asS'son'
p1929
(lp1930
I1
asS'twilight'
p1931
(lp1932
I2
asS'nor'
p1933
(lp1934
I1
asS'wont'
p1935
(lp1936
I1
asS'term'
p1937
(lp1938
I1
asS'name'
p1939
(lp1940
I1
asS'servant'
p1941
(lp1942
I2
asS'times'
p1943
(lp1944
I1
asS'drop'
p1945
(lp1946
I1
asS'thievish'
p1947
I2
sS'veins'
p1948
(lp1949
I1
asS'orphans'
p1950
(lp1951
I2
asS'surfeit'
p1952
(lp1953
I2
asS"another's"
p1954
(lp1955
I3
asS'receipt'
p1956
(lp1957
I2
asS'richly'
p1958
(lp1959
I2
asS'fever'
p1960
(lp1961
I2
asS'farewell'
p1962
(lp1963
I2
asS'seeting'
p1964
I2
sS'year'
p1965
(lp1966
I1
asS'hymns'
p1967
(lp1968
I1
asS'living'
p1969
(lp1970
I2
asS'shown'
p1971
(lp1972
I1
asS'mouths'
p1973
(lp1974
I1
asS'space'
p1975
(lp1976
I1
asS'profit'
p1977
(lp1978
I2
asS'conceit'
p1979
(lp1980
I2
asS'haste'
p1981
(lp1982
I1
asS'abide'
p1983
(lp1984
I2
asS'increase'
p1985
(lp1986
I2
asS'boundless'
p1987
(lp1988
I2
asS'grecian'
p1989
(lp1990
I2
asS'receiving'
p1991
(lp1992
I3
asS'correct'
p1993
(lp1994
I2
asS'shows'
p1995
(lp1996
I1
asS'worthiness'
p1997
(lp1998
I3
asS'state'
p1999
(lp2000
I1
asS'siege'
p2001
(lp2002
I1
asS'cars'
p2003
(lp2004
I1
asS'sweet-seasoned'
p2005
I3
sS'quite'
p2006
(lp2007
I1
asS'rebel'
p2008
(lp2009
I2
asS'plea'
p2010
(lp2011
I1
asS"feel'st"
p2012
I1
sS'care'
p2013
(lp2014
I1
asS'advance'
p2015
(lp2016
I2
asS"age's"
p2017
(lp2018
I2
asS'embassage'
p2019
I3
sS'contented'
p2020
(lp2021
I3
asS'kingdoms'
p2022
(lp2023
I2
asS'honest'
p2024
(lp2025
I2
asS'motion'
p2026
(lp2027
I2
asS'gusts'
p2028
(lp2029
I1
asS'thine'
p2030
(lp2031
I1
asS'place'
p2032
(lp2033
I1
asS'recompense'
p2034
(lp2035
I3
asS'sufferance'
p2036
I3
sS'widow'
p2037
(lp2038
I2
asS'star'
p2039
(lp2040
I1
asS'think'
p2041
(lp2042
I1
asS'frequent'
p2043
(lp2044
I2
asS'first'
p2045
(lp2046
I1
asS'blind'
p2047
(lp2048
I1
asS'mayst'
p2049
I1
sS'coming'
p2050
(lp2051
I2
asS'one'
p2052
(lp2053
I1
asS'nativity'
p2054
(lp2055
I4
asS'consecrate'
p2056
(lp2057
I3
asS'chide'
p2058
(lp2059
I1
asS'directly'
p2060
(lp2061
I3
asS'habitation'
p2062
(lp2063
I4
asS'carry'
p2064
(lp2065
I2
asS'ill-used'
p2066
I2
sS'array'
p2067
(lp2068
I2
asS'tame'
p2069
(lp2070
I1
asS'open'
p2071
(lp2072
I2
asS'affords'
p2073
(lp2074
I2
asS'millions'
p2075
(lp2076
I2
asS'interchange'
p2077
(lp2078
I3
asS'given'
p2079
(lp2080
I2
asS'checked'
p2081
(lp2082
I1
asS'silent'
p2083
(lp2084
I2
asS'breed'
p2085
(lp2086
I1
asS'fiery'
p2087
(lp2088
I3
asS'bounty'
p2089
(lp2090
I2
asS'white'
p2091
(lp2092
I1
asS"tiger's"
p2093
(lp2094
I2
asS'friend'
p2095
(lp2096
I1
asS'gives'
p2097
(lp2098
I1
asS'hue'
p2099
(lp2100
I1
asS'eyes'
p2101
(lp2102
I1
asS'pomp'
p2103
(lp2104
I1
asS'blazon'
p2105
I2
sS'that'
p2106
(lp2107
I1
asS'brains'
p2108
(lp2109
I1
asS"men's"
p2110
(lp2111
I1
asS'proving'
p2112
(lp2113
I2
asS'alas'
p2114
(lp2115
I2
asS'eyed'
p2116
(lp2117
I1
asS'girded'
p2118
I2
sS'reproving'
p2119
I3
sS'copy'
p2120
(lp2121
I2
asS'than'
p2122
(lp2123
I1
asS"here's"
p2124
(lp2125
I1
asS'wide'
p2126
(lp2127
I1
asS'wert'
p2128
(lp2129
I1
asS'require'
p2130
(lp2131
I2
aI3
asS'folly'
p2132
(lp2133
I2
asS'transferred'
p2134
(lp2135
I2
asS'were'
p2136
(lp2137
I1
asS'carcanet'
p2138
I3
sS'and'
p2139
(lp2140
I1
asS'tenure'
p2141
(lp2142
I2
asS"rud'st"
p2143
I1
sS'desperate'
p2144
(lp2145
I2
aI3
asS'angel'
p2146
(lp2147
I2
asS'slay'
p2148
(lp2149
I1
asS'correction'
p2150
(lp2151
I3
asS'confessed'
p2152
(lp2153
I2
asS'turned'
p2154
(lp2155
I1
asS'argument'
p2156
(lp2157
I3
asS'jewels'
p2158
(lp2159
I1
aI2
asS'voices'
p2160
(lp2161
I2
asS'entombed'
p2162
(lp2163
I2
asS'say'
p2164
(lp2165
I1
asS'faring'
p2166
(lp2167
I2
asS'buried'
p2168
(lp2169
I2
asS'foiled'
p2170
(lp2171
I1
asS'anger'
p2172
(lp2173
I2
asS'sap'
p2174
(lp2175
I1
asS'pry'
p2176
(lp2177
I1
asS'any'
p2178
(lp2179
I2
asS'elsewhere'
p2180
(lp2181
I2
asS'defaced'
p2182
(lp2183
I2
asS'mourners'
p2184
(lp2185
I2
asS'aside'
p2186
(lp2187
I2
asS'purest'
p2188
(lp2189
I2
asS'note'
p2190
(lp2191
I1
asS'wretch'
p2192
I1
sS'take'
p2193
(lp2194
I1
asS'resembling'
p2195
(lp2196
I3
aI4
asS'wanting'
p2197
(lp2198
I2
asS'blunt'
p2199
(lp2200
I1
asS'flattered'
p2201
(lp2202
I2
asS'urge'
p2203
(lp2204
I1
asS'begin'
p2205
(lp2206
I2
asS'sure'
p2207
(lp2208
I1
asS'altered'
p2209
(lp2210
I2
asS'tallies'
p2211
(lp2212
I2
asS'knew'
p2213
(lp2214
I1
asS'clearer'
p2215
(lp2216
I2
asS'paid'
p2217
(lp2218
I1
asS'remover'
p2219
(lp2220
I3
asS'unkindness'
p2221
I3
sS'staineth'
p2222
I2
sS'flatterer'
p2223
I3
sS'successive'
p2224
(lp2225
I3
asS'winters'
p2226
(lp2227
I2
asS'garments'
p2228
(lp2229
I2
asS'proud'
p2230
(lp2231
I1
asS'hungry'
p2232
(lp2233
I2
asS'wouldst'
p2234
I1
sS"perfect'st"
p2235
I2
sS'sunset'
p2236
(lp2237
I2
asS'amis'
p2238
(lp2239
I2
asS'glutton'
p2240
I2
sS'perfumed'
p2241
(lp2242
I2
asS'sourest'
p2243
I2
sS'erred'
p2244
(lp2245
I1
asS'shop'
p2246
(lp2247
I1
asS'show'
p2248
(lp2249
I1
asS'cheap'
p2250
(lp2251
I1
asS'merit'
p2252
(lp2253
I2
asS'trespass'
p2254
(lp2255
I2
asS'bright'
p2256
(lp2257
I1
asS'after-loss'
p2258
I3
sS'tend'
p2259
(lp2260
I1
asS'ground'
p2261
(lp2262
I1
asS'slow'
p2263
(lp2264
I1
asS'woos'
p2265
(lp2266
I1
asS'unkind'
p2267
(lp2268
I2
asS'stormy'
p2269
(lp2270
I2
asS'title'
p2271
(lp2272
I2
asS'treasure'
p2273
(lp2274
I2
asS'robs'
p2275
(lp2276
I1
asS'cloak'
p2277
(lp2278
I1
asS'crime'
p2279
(lp2280
I1
asS'only'
p2281
(lp2282
I2
asS'going'
p2283
(lp2284
I2
asS'black'
p2285
(lp2286
I1
asS'compiled'
p2287
(lp2288
I2
asS'partake'
p2289
(lp2290
I2
asS'stain'
p2291
(lp2292
I1
asS'wilfully'
p2293
(lp2294
I3
asS'hindmost'
p2295
I2
sS'mouthed'
p2296
(lp2297
I1
asS"'tis"
p2298
(lp2299
I1
asS'limbecks'
p2300
I2
sS'truly'
p2301
(lp2302
I2
asS'cannot'
p2303
(lp2304
I2
asS'nearly'
p2305
(lp2306
I2
asS'dye'
p2307
(lp2308
I1
asS'prime'
p2309
(lp2310
I1
asS'seldom'
p2311
(lp2312
I2
asS'yield'
p2313
(lp2314
I1
asS'morning'
p2315
(lp2316
I2
asS'naked'
p2317
(lp2318
I2
asS'over-goes'
p2319
I4
sS'miles'
p2320
(lp2321
I1
aI2
asS'where'
p2322
(lp2323
I1
asS'husband'
p2324
(lp2325
I2
asS'signs'
p2326
(lp2327
I1
asS'sullied'
p2328
(lp2329
I2
asS"fortune's"
p2330
(lp2331
I2
asS'asleep'
p2332
(lp2333
I2
asS'expiate'
p2334
(lp2335
I3
asS'seal'
p2336
(lp2337
I1
asS'salutation'
p2338
I4
sS'sport'
p2339
(lp2340
I1
asS'strangle'
p2341
(lp2342
I2
asS'wonder'
p2343
(lp2344
I2
asS'invoked'
p2345
(lp2346
I2
asS'tongue-tied'
p2347
I2
sS'compounds'
p2348
(lp2349
I2
asS'crooked'
p2350
(lp2351
I2
asS'review'
p2352
(lp2353
I2
asS'abhor'
p2354
(lp2355
I2
asS'ornament'
p2356
(lp2357
I3
asS'enough'
p2358
(lp2359
I2
asS'departest'
p2360
I3
sS'complexion'
p2361
(lp2362
I3
asS'sable'
p2363
(lp2364
I2
asS'import'
p2365
(lp2366
I2
asS'enjoys'
p2367
(lp2368
I2
asS'presage'
p2369
(lp2370
I2
asS'untainted'
p2371
(lp2372
I3
asS'forsake'
p2373
(lp2374
I2
asS'lays'
p2375
(lp2376
I1
asS'style'
p2377
(lp2378
I1
asS'pluck'
p2379
(lp2380
I1
asS'blame'
p2381
(lp2382
I1
asS'countenance'
p2383
(lp2384
I3
asS'awards'
p2385
(lp2386
I2
asS'profitless'
p2387
I3
sS'come'
p2388
(lp2389
I1
asS'grieved'
p2390
(lp2391
I1
asS'dates'
p2392
(lp2393
I1
asS'many'
p2394
(lp2395
I2
asS'region'
p2396
(lp2397
I2
asS'quiet'
p2398
(lp2399
I2
asS'dwellers'
p2400
(lp2401
I2
asS'reigns'
p2402
(lp2403
I1
asS"sea's"
p2404
(lp2405
I1
asS'duty'
p2406
(lp2407
I2
asS'among'
p2408
(lp2409
I2
asS'impediments'
p2410
(lp2411
I4
asS'madness'
p2412
(lp2413
I2
asS'afterwards'
p2414
(lp2415
I3
asS'unthrifty'
p2416
I3
sS'swerving'
p2417
I2
sS'dispatch'
p2418
(lp2419
I2
asS'eisel'
p2420
(lp2421
I2
asS'slain'
p2422
(lp2423
I1
asS'stretched'
p2424
(lp2425
I1
asS'learning'
p2426
(lp2427
I2
asS'proved'
p2428
(lp2429
I1
asS'famished'
p2430
I2
sS'consider'
p2431
(lp2432
I3
asS'boat'
p2433
(lp2434
I1
asS'doctor-like'
p2435
I3
sS'arts'
p2436
(lp2437
I1
asS'self-doing'
p2438
I3
sS'west'
p2439
(lp2440
I1
asS'absence'
p2441
(lp2442
I2
asS'mark'
p2443
(lp2444
I1
asS'breath'
p2445
(lp2446
I1
asS'subscribes'
p2447
(lp2448
I2
asS"self's"
p2449
(lp2450
I1
asS'mars'
p2451
(lp2452
I1
asS'informer'
p2453
(lp2454
I3
asS'straying'
p2455
(lp2456
I2
asS'robbed'
p2457
(lp2458
I1
asS'thousand'
p2459
(lp2460
I2
asS'blessing'
p2461
(lp2462
I2
asS'nobler'
p2463
(lp2464
I2
asS'figured'
p2465
(lp2466
I2
asS'wake'
p2467
(lp2468
I1
asS'external'
p2469
(lp2470
I3
asS'frantic-mad'
p2471
I3
sS'extant'
p2472
(lp2473
I2
asS'careful'
p2474
(lp2475
I2
asS'former'
p2476
(lp2477
I2
asS'those'
p2478
(lp2479
I1
asS'sound'
p2480
(lp2481
I1
asS'profane'
p2482
(lp2483
I2
asS'rarities'
p2484
(lp2485
I3
asS'these'
p2486
(lp2487
I1
asS'sheaves'
p2488
(lp2489
I1
asS'compile'
p2490
(lp2491
I2
asS'cast'
p2492
(lp2493
I1
asS'self-substantial'
p2494
I5
sS'mightier'
p2495
(lp2496
I3
asS'graven'
p2497
(lp2498
I2
asS'cancelled'
p2499
(lp2500
I2
asS'situation'
p2501
(lp2502
I4
asS'endured'
p2503
(lp2504
I2
asS'anchored'
p2505
(lp2506
I2
asS'forbear'
p2507
I2
sS'endowed'
p2508
(lp2509
I2
asS'brow'
p2510
(lp2511
I1
asS'sleeping'
p2512
(lp2513
I2
asS'middle'
p2514
(lp2515
I2
asS'limping'
p2516
(lp2517
I2
asS'throned'
p2518
I1
sS'commanded'
p2519
(lp2520
I3
asS'fame'
p2521
(lp2522
I1
asS'different'
p2523
(lp2524
I2
aI3
asS'harsh'
p2525
(lp2526
I1
asS"tyrants'"
p2527
I2
sS'strains'
p2528
(lp2529
I1
asS'pay'
p2530
(lp2531
I1
asS'same'
p2532
(lp2533
I1
asS'injurious'
p2534
(lp2535
I4
asS'shifts'
p2536
(lp2537
I1
asS'enrich'
p2538
(lp2539
I2
asS'streams'
p2540
(lp2541
I1
asS"'truth"
p2542
I1
sS'wires'
p2543
(lp2544
I1
aI2
asS'sickness'
p2545
(lp2546
I2
asS'tyrannous'
p2547
I3
sS'defy'
p2548
(lp2549
I2
asS'weed'
p2550
(lp2551
I1
asS'fruit'
p2552
(lp2553
I1
asS'scorned'
p2554
(lp2555
I1
asS'extern'
p2556
I2
sS'changing'
p2557
(lp2558
I2
asS'weep'
p2559
(lp2560
I1
asS"slander's"
p2561
I2
sS'vowed'
p2562
(lp2563
I1
asS'vantage'
p2564
(lp2565
I2
asS'dear-purchased'
p2566
I3
sS'mortgaged'
p2567
(lp2568
I2
asS'vacant'
p2569
(lp2570
I2
asS'costs'
p2571
(lp2572
I1
asS'relief'
p2573
(lp2574
I2
asS'justify'
p2575
(lp2576
I3
asS'distills'
p2577
(lp2578
I2
asS'summer'
p2579
(lp2580
I2
asS'recured'
p2581
I2
sS'ransoms'
p2582
(lp2583
I2
asS'being'
p2584
(lp2585
I2
asS'excel'
p2586
(lp2587
I2
asS'weeds'
p2588
(lp2589
I1
asS'unthrifts'
p2590
I2
sS'rest'
p2591
(lp2592
I1
asS'imprint'
p2593
(lp2594
I2
asS'foot'
p2595
(lp2596
I1
asS'cease'
p2597
(lp2598
I1
asS'disperse'
p2599
(lp2600
I2
asS'aspect'
p2601
(lp2602
I2
asS'touch'
p2603
(lp2604
I1
asS'speed'
p2605
(lp2606
I1
asS'guides'
p2607
(lp2608
I1
asS'blow'
p2609
(lp2610
I1
asS'renewed'
p2611
(lp2612
I2
asS'grounded'
p2613
(lp2614
I2
asS'charactered'
p2615
I3
sS'thinking'
p2616
(lp2617
I2
asS'rose'
p2618
(lp2619
I1
asS'seems'
p2620
(lp2621
I1
asS"summer's"
p2622
(lp2623
I2
asS"summers'"
p2624
I2
sS'verse'
p2625
(lp2626
I1
asS'suppressed'
p2627
(lp2628
I2
asS'worthier'
p2629
(lp2630
I3
asS'yellowed'
p2631
I2
sS'overthrow'
p2632
(lp2633
I3
asS'valley-fountain'
p2634
I4
sS'struck'
p2635
(lp2636
I1
asS'kingdom'
p2637
(lp2638
I2
asS'frown'
p2639
(lp2640
I1
asS'kills'
p2641
(lp2642
I1
asS'read'
p2643
(lp2644
I1
asS'offence'
p2645
I2
sS'sums'
p2646
(lp2647
I1
asS'dart'
p2648
(lp2649
I1
asS'dark'
p2650
(lp2651
I1
asS'traffic'
p2652
(lp2653
I2
asS'beseechers'
p2654
I3
sS'confined'
p2655
(lp2656
I2
asS'world'
p2657
(lp2658
I1
asS'reap'
p2659
(lp2660
I1
asS'dare'
p2661
(lp2662
I1
asS'acquainted'
p2663
(lp2664
I3
asS'fortune'
p2665
(lp2666
I2
asS'achieve'
p2667
(lp2668
I2
asS'miracle'
p2669
(lp2670
I3
asS'benefit'
p2671
(lp2672
I3
asS'beguiled'
p2673
(lp2674
I2
asS'either'
p2675
(lp2676
I2
asS'robbery'
p2677
(lp2678
I3
asS'offenders'
p2679
(lp2680
I3
asS'warrantise'
p2681
I3
sS'tombed'
p2682
I2
sS'fulfil'
p2683
I2
sS'falsehood'
p2684
(lp2685
I2
asS'kings'
p2686
(lp2687
I1
asS'images'
p2688
(lp2689
I3
asS'divine'
p2690
(lp2691
I2
asS'thinks'
p2692
(lp2693
I1
asS'reasons'
p2694
(lp2695
I2
asS'gross'
p2696
(lp2697
I1
asS'courses'
p2698
(lp2699
I2
asS'noon'
p2700
(lp2701
I1
asS'besiege'
p2702
(lp2703
I2
asS'stops'
p2704
(lp2705
I1
asS'moon'
p2706
(lp2707
I1
asS'forgoing'
p2708
(lp2709
I3
asS'expressing'
p2710
(lp2711
I3
asS'self-loving'
p2712
I3
sS'knife'
p2713
(lp2714
I1
asS'destroys'
p2715
(lp2716
I2
asS'welcome'
p2717
(lp2718
I2
asS'power'
p2719
(lp2720
I2
asS'seconds'
p2721
(lp2722
I2
asS'strained'
p2723
(lp2724
I1
asS'olives'
p2725
(lp2726
I2
asS'forgetfulness'
p2727
I4
sS'broken'
p2728
(lp2729
I2
asS"o'er-green"
p2730
I3
sS'assemble'
p2731
(lp2732
I3
asS'feeds'
p2733
(lp2734
I1
asS'death-bed'
p2735
I2
sS'on'
p2736
(lp2737
I1
asS'stone'
p2738
(lp2739
I1
asS'subdued'
p2740
(lp2741
I2
asS'basest'
p2742
I2
sS'zealous'
p2743
(lp2744
I2
asS'of'
p2745
(lp2746
I1
asS'choirs'
p2747
(lp2748
I1
asS'feil'
p2749
(lp2750
I1
asS'fearful'
p2751
(lp2752
I2
asS'whence'
p2753
(lp2754
I1
asS'journey'
p2755
(lp2756
I2
asS'wolf'
p2757
(lp2758
I1
asS'stand'
p2759
(lp2760
I1
asS'act'
p2761
(lp2762
I1
asS'mixed'
p2763
(lp2764
I1
asS'luck'
p2765
(lp2766
I1
asS'or'
p2767
(lp2768
I1
asS'imitated'
p2769
(lp2770
I4
asS'ladies'
p2771
(lp2772
I2
asS'long-lived'
p2773
I2
sS'burning'
p2774
(lp2775
I2
asS"put'st"
p2776
I1
sS'distempered'
p2777
I3
sS'image'
p2778
(lp2779
I2
asS'blessed'
p2780
(lp2781
I1
asS'rising'
p2782
(lp2783
I2
asS'lively'
p2784
(lp2785
I2
asS'dreaming'
p2786
(lp2787
I2
asS'blesses'
p2788
(lp2789
I2
asS'your'
p2790
(lp2791
I1
asS'buds'
p2792
(lp2793
I1
asS"oaths'"
p2794
I1
sS'fast'
p2795
(lp2796
I1
asS'prepare'
p2797
(lp2798
I2
asS'there'
p2799
(lp2800
I1
asS'disposed'
p2801
(lp2802
I2
asS'desert'
p2803
(lp2804
I2
asS'stealth'
p2805
(lp2806
I1
asS"whate'er"
p2807
I2
sS'low'
p2808
(lp2809
I1
asS'stars'
p2810
(lp2811
I1
asS'house'
p2812
(lp2813
I1
asS'groan'
p2814
(lp2815
I1
asS'wits'
p2816
(lp2817
I1
asS"you'"
p2818
I1
sS"dyer's"
p2819
I2
sS'strikes'
p2820
(lp2821
I1
asS'meetness'
p2822
I2
sS'land'
p2823
(lp2824
I1
asS'with'
p2825
(lp2826
I1
asS'longer'
p2827
(lp2828
I2
asS'abused'
p2829
(lp2830
I2
asS'applying'
p2831
(lp2832
I3
asS'naming'
p2833
(lp2834
I2
asS'rage'
p2835
(lp2836
I1
asS'niggarding'
p2837
I3
sS'self-same'
p2838
I2
sS'impute'
p2839
(lp2840
I2
asS'abuses'
p2841
(lp2842
I3
asS'strongly'
p2843
(lp2844
I2
asS'gone'
p2845
(lp2846
I1
asS'intents'
p2847
(lp2848
I2
asS'palate'
p2849
(lp2850
I2
asS'surly'
p2851
(lp2852
I2
asS'taste'
p2853
(lp2854
I1
asS'ah'
p2855
(lp2856
I1
asS'accents'
p2857
(lp2858
I2
asS'stealing'
p2859
(lp2860
I2
asS'am'
p2861
(lp2862
I1
aI2
asS'deep'
p2863
(lp2864
I1
asS'an'
p2865
(lp2866
I1
asS'toiled'
p2867
(lp2868
I1
asS'excusing'
p2869
(lp2870
I3
asS'deem'
p2871
(lp2872
I1
asS'carved'
p2873
(lp2874
I1
asS'walks'
p2875
(lp2876
I1
asS'ay'
p2877
(lp2878
I1
asS'horse'
p2879
(lp2880
I1
asS'spends'
p2881
(lp2882
I1
asS'fill'
p2883
(lp2884
I1
asS'again'
p2885
(lp2886
I2
asS'proudly'
p2887
(lp2888
I2
asS"judgment's"
p2889
I2
sS'deserve'
p2890
(lp2891
I2
asS'ever-fixed'
p2892
I3
sS"helen's"
p2893
(lp2894
I2
asS'repent'
p2895
(lp2896
I2
asS'incertainties'
p2897
I4
sS'roses'
p2898
(lp2899
I2
asS"wand'ring"
p2900
I2
sS'you'
p2901
(lp2902
I1
asS'abysm'
p2903
I3
sS'poor'
p2904
(lp2905
I1
asS'teeth'
p2906
(lp2907
I1
asS'gifts'
p2908
(lp2909
I1
asS'lovers'
p2910
(lp2911
I2
asS'highmost'
p2912
I2
sS'suited'
p2913
(lp2914
I2
asS'brass'
p2915
(lp2916
I1
asS'sequent'
p2917
(lp2918
I2
asS'building'
p2919
(lp2920
I2
asS'remote'
p2921
(lp2922
I2
asS'calls'
p2923
(lp2924
I1
asS'wife'
p2925
(lp2926
I1
asS"life's"
p2927
(lp2928
I1
asS'dyed'
p2929
(lp2930
I1
asS'repay'
p2931
(lp2932
I2
asS'hugely'
p2933
(lp2934
I2
asS'treason'
p2935
(lp2936
I2
asS'apparel'
p2937
(lp2938
I3
asS'tanned'
p2939
(lp2940
I1
asS'unset'
p2941
(lp2942
I2
asS'maturity'
p2943
(lp2944
I4
asS'all'
p2945
(lp2946
I1
asS'lace'
p2947
(lp2948
I1
asS'vile'
p2949
(lp2950
I1
asS'suns'
p2951
(lp2952
I1
asS'forbidden'
p2953
(lp2954
I3
asS'lack'
p2955
(lp2956
I1
asS'neigh'
p2957
I1
sS'worms'
p2958
(lp2959
I1
asS'importune'
p2960
I3
sS'seals'
p2961
(lp2962
I1
asS'unrest'
p2963
(lp2964
I2
asS"'gainst"
p2965
I1
sS'forged'
p2966
(lp2967
I1
asS'welfare'
p2968
(lp2969
I2
asS'follow'
p2970
(lp2971
I2
asS'meditation'
p2972
(lp2973
I4
asS'religious'
p2974
(lp2975
I3
asS'children'
p2976
(lp2977
I2
asS'oaths'
p2978
(lp2979
I1
asS'wanton'
p2980
(lp2981
I2
asS'homage'
p2982
(lp2983
I2
asS'sparkling'
p2984
(lp2985
I2
aI3
asS'spirit'
p2986
(lp2987
I2
asS"keep'st"
p2988
I1
sS'to'
p2989
(lp2990
I1
asS'painter'
p2991
(lp2992
I2
asS'dressing'
p2993
(lp2994
I2
asS"is't"
p2995
I1
sS'nurseth'
p2996
I2
sS'hideous'
p2997
(lp2998
I3
asS'subtleties'
p2999
(lp3000
I3
asS'case'
p3001
(lp3002
I1
asS'woman'
p3003
(lp3004
I2
asS'worse'
p3005
(lp3006
I1
asS'laws'
p3007
(lp3008
I1
asS'very'
p3009
(lp3010
I2
asS"'will"
p3011
I1
sS'saved'
p3012
(lp3013
I1
asS'coloured'
p3014
(lp3015
I2
asS'oblation'
p3016
I3
sS'medicine'
p3017
(lp3018
I3
asS'worst'
p3019
(lp3020
I1
asS'minded'
p3021
(lp3022
I2
asS'fall'
p3023
(lp3024
I1
asS'hems'
p3025
(lp3026
I1
asS'difference'
p3027
(lp3028
I2
aI3
asS'darling'
p3029
(lp3030
I2
asS'themes'
p3031
(lp3032
I1
asS'heaven'
p3033
(lp3034
I2
asS'list'
p3035
(lp3036
I1
asS'large'
p3037
(lp3038
I1
asS'sang'
p3039
(lp3040
I1
asS'plain'
p3041
(lp3042
I1
asS'mistaking'
p3043
(lp3044
I3
asS'tear'
p3045
(lp3046
I1
asS'wantonness'
p3047
I3
sS"i'll"
p3048
(lp3049
I1
asS'quicker'
p3050
(lp3051
I2
asS'ten'
p3052
(lp3053
I1
asS'appearance'
p3054
(lp3055
I3
asS'past'
p3056
(lp3057
I1
asS'winds'
p3058
(lp3059
I1
asS'invention'
p3060
(lp3061
I3
asS'perspective'
p3062
(lp3063
I3
asS'pass'
p3064
(lp3065
I1
asS'affable'
p3066
(lp3067
I3
asS'befriends'
p3068
(lp3069
I2
asS'crests'
p3070
(lp3071
I1
asS'creatures'
p3072
(lp3073
I2
asS'conscience'
p3074
(lp3075
I2
asS'gazers'
p3076
I2
sS'what'
p3077
(lp3078
I1
asS'defence'
p3079
(lp3080
I2
asS'darkness'
p3081
(lp3082
I2
asS'sweetly'
p3083
(lp3084
I2
asS'clock'
p3085
(lp3086
I1
asS'sun'
p3087
(lp3088
I1
asS'wrecked'
p3089
(lp3090
I1
asS'gardens'
p3091
(lp3092
I2
asS'brief'
p3093
(lp3094
I1
asS'prevailed'
p3095
(lp3096
I2
asS'foison'
p3097
I2
sS'unseen'
p3098
(lp3099
I2
asS'ill-wresting'
p3100
I3
sS'learned'
p3101
(lp3102
I1
aI2
asS'doting'
p3103
(lp3104
I2
asS'womb'
p3105
(lp3106
I1
asS'quenched'
p3107
I1
sS'full'
p3108
(lp3109
I1
asS'ranged'
p3110
(lp3111
I1
asS'love-suit'
p3112
I3
sS'answers'
p3113
(lp3114
I2
asS'revenge'
p3115
(lp3116
I2
asS'hours'
p3117
(lp3118
I1
aI2
asS'dregs'
p3119
(lp3120
I1
asS'excess'
p3121
(lp3122
I2
asS'hast'
p3123
(lp3124
I1
asS'depend'
p3125
(lp3126
I2
asS'strong'
p3127
(lp3128
I1
asS'respect'
p3129
(lp3130
I2
asS'enmity'
p3131
(lp3132
I3
asS'losses'
p3133
(lp3134
I2
asS'dearths'
p3135
I1
sS'qualify'
p3136
(lp3137
I3
asS'action'
p3138
(lp3139
I2
asS'steepy'
p3140
I2
sS'sweetness'
p3141
(lp3142
I2
asS"day's"
p3143
(lp3144
I1
asS'followed'
p3145
(lp3146
I2
asS'impiety'
p3147
I3
sS'seemly'
p3148
I2
sS'tendered'
p3149
(lp3150
I2
asS"lion's"
p3151
(lp3152
I2
asS'estimate'
p3153
(lp3154
I3
asS'unthrift'
p3155
I2
sS'self-love'
p3156
I2
sS'taker'
p3157
(lp3158
I2
asS'proceed'
p3159
(lp3160
I2
asS'cherubins'
p3161
I3
sS'faint'
p3162
(lp3163
I1
asS'two'
p3164
(lp3165
I1
asS'pearl'
p3166
(lp3167
I1
asS'morn'
p3168
(lp3169
I1
asS'soil'
p3170
(lp3171
I1
asS'taken'
p3172
(lp3173
I2
asS'undivided'
p3174
(lp3175
I4
asS'injury'
p3176
(lp3177
I3
asS'more'
p3178
(lp3179
I1
asS'horses'
p3180
(lp3181
I2
asS'wretched'
p3182
(lp3183
I2
asS'unlearned'
p3184
I2
sS'knows'
p3185
(lp3186
I1
asS"receiv'st"
p3187
I2
sS"ow'st"
p3188
I1
sS'foregone'
p3189
(lp3190
I2
asS'spoils'
p3191
(lp3192
I1
asS'excuse'
p3193
(lp3194
I2
asS'lameness'
p3195
I3
sS'controlling'
p3196
(lp3197
I3
asS'broke'
p3198
(lp3199
I1
asS'varying'
p3200
(lp3201
I3
asS'known'
p3202
(lp3203
I1
asS'mounted'
p3204
(lp3205
I2
asS'glad'
p3206
(lp3207
I1
asS'cunning'
p3208
(lp3209
I2
asS'lascivious'
p3210
(lp3211
I4
asS'fleece'
p3212
(lp3213
I1
asS'hour'
p3214
(lp3215
I1
aI2
asS'besides'
p3216
(lp3217
I2
asS'remain'
p3218
(lp3219
I2
asS'nine'
p3220
(lp3221
I1
asS'learn'
p3222
(lp3223
I1
asS'marble'
p3224
(lp3225
I2
asS'history'
p3226
(lp3227
I2
aI3
asS'beautiful'
p3228
(lp3229
I3
asS'compare'
p3230
(lp3231
I2
asS"woman's"
p3232
(lp3233
I2
asS'visage'
p3234
(lp3235
I2
asS'neglected'
p3236
(lp3237
I3
asS'conspire'
p3238
(lp3239
I3
asS'autumn'
p3240
(lp3241
I2
asS'well-seeing'
p3242
I2
sS'numbers'
p3243
(lp3244
I2
asS'arise'
p3245
(lp3246
I2
asS'phrase'
p3247
(lp3248
I1
asS'dress'
p3249
(lp3250
I1
asS'huge'
p3251
(lp3252
I1
asS'siren'
p3253
(lp3254
I2
asS'drained'
p3255
(lp3256
I1
asS'rather'
p3257
(lp3258
I2
asS"'thus"
p3259
I1
sS'comfort'
p3260
(lp3261
I2
asS'chopt'
p3262
I1
sS"adder's"
p3263
I2
sS'glowing'
p3264
(lp3265
I2
asS"heart's"
p3266
(lp3267
I1
asS'sacred'
p3268
(lp3269
I2
asS'new-fangled'
p3270
I2
sS'creature'
p3271
(lp3272
I2
asS'simplicity'
p3273
(lp3274
I4
asS'rude'
p3275
(lp3276
I1
asS'disgraced'
p3277
(lp3278
I2
asS'mended'
p3279
(lp3280
I2
asS'blood'
p3281
(lp3282
I1
asS'faculty'
p3283
(lp3284
I3
asS'replete'
p3285
(lp3286
I2
asS'a'
(lp3287
I1
asS'refuse'
p3288
(lp3289
I2
asS'short'
p3290
(lp3291
I1
asS'resemble'
p3292
(lp3293
I3
asS'shady'
p3294
(lp3295
I2
asS'register'
p3296
(lp3297
I3
asS"present'st"
p3298
I2
sS'shore'
p3299
(lp3300
I1
asS'shade'
p3301
(lp3302
I1
asS'perjured'
p3303
(lp3304
I2
asS'banks'
p3305
(lp3306
I1
asS'pleasure'
p3307
(lp3308
I2
asS"gav'st"
p3309
I1
sS'lasting'
p3310
(lp3311
I2
asS'dream'
p3312
(lp3313
I1
asS"that's"
p3314
(lp3315
I1
asS'separable'
p3316
I4
sS'help'
p3317
(lp3318
I1
asS'winged'
p3319
(lp3320
I1
asS'flowers'
p3321
(lp3322
I2
asS'stays'
p3323
(lp3324
I1
asS'soon'
p3325
(lp3326
I1
asS'disabled'
p3327
(lp3328
I3
asS'held'
p3329
(lp3330
I1
asS'paper'
p3331
(lp3332
I2
asS'through'
p3333
(lp3334
I1
asS'committed'
p3335
(lp3336
I3
asS'hell'
p3337
(lp3338
I1
asS'smiling'
p3339
(lp3340
I2
asS'suffer'
p3341
(lp3342
I2
asS'saucy'
p3343
(lp3344
I2
asS'discloses'
p3345
(lp3346
I3
asS'pent'
p3347
(lp3348
I1
asS'render'
p3349
(lp3350
I2
asS'termed'
p3351
(lp3352
I1
asS'pray'
p3353
(lp3354
I1
asS'inward'
p3355
(lp3356
I2
asS'deeds'
p3357
(lp3358
I1
asS'bosom'
p3359
(lp3360
I2
asS'teeming'
p3361
(lp3362
I2
asS'hounds'
p3363
(lp3364
I1
asS'late'
p3365
(lp3366
I1
asS'resort'
p3367
(lp3368
I2
asS'dross'
p3369
(lp3370
I1
asS'parts'
p3371
(lp3372
I1
asS'threescore'
p3373
I3
sS'ruining'
p3374
(lp3375
I3
asS'self-willed'
p3376
I2
sS'bereft'
p3377
(lp3378
I2
asS'alter'
p3379
(lp3380
I2
asS'crawls'
p3381
(lp3382
I1
asS'fool'
p3383
(lp3384
I1
asS'good'
p3385
(lp3386
I1
asS'return'
p3387
(lp3388
I2
asS'freezings'
p3389
I2
sS'seeking'
p3390
(lp3391
I2
asS'motley'
p3392
(lp3393
I2
asS'distilled'
p3394
(lp3395
I2
asS'ye'
p3396
(lp3397
I1
asS'storm-beaten'
p3398
I3
sS'speechless'
p3399
(lp3400
I2
asS'walls'
p3401
(lp3402
I1
asS'nymphs'
p3403
(lp3404
I1
asS'rank'
p3405
(lp3406
I1
asS'compound'
p3407
(lp3408
I2
asS'accumulate'
p3409
(lp3410
I4
asS'hunted'
p3411
(lp3412
I2
asS'breathers'
p3413
I2
sS"mistress'"
p3414
I2
sS'complain'
p3415
(lp3416
I2
asS'likeness'
p3417
(lp3418
I2
asS'imprisoned'
p3419
(lp3420
I3
asS'always'
p3421
(lp3422
I2
asS'truths'
p3423
(lp3424
I1
asS'eloquence'
p3425
(lp3426
I3
asS'ashes'
p3427
(lp3428
I2
asS'stopped'
p3429
(lp3430
I1
asS'blest'
p3431
(lp3432
I1
asS'found'
p3433
(lp3434
I1
asS'heavy'
p3435
(lp3436
I2
asS'weighs'
p3437
(lp3438
I1
asS'proud-pied'
p3439
I2
sS'bends'
p3440
(lp3441
I1
asS'weight'
p3442
(lp3443
I1
asS'jaws'
p3444
(lp3445
I1
asS'hard'
p3446
(lp3447
I1
asS'oppressed'
p3448
(lp3449
I2
asS'fist'
p3450
(lp3451
I1
asS"nature's"
p3452
(lp3453
I2
asS'beyond'
p3454
(lp3455
I2
asS'orient'
p3456
(lp3457
I3
asS'travels'
p3458
(lp3459
I2
asS'flower'
p3460
(lp3461
I2
asS'missed'
p3462
(lp3463
I1
asS'since'
p3464
(lp3465
I1
asS'publish'
p3466
(lp3467
I2
asS'health'
p3468
(lp3469
I1
asS'hill'
p3470
(lp3471
I1
asS'print'
p3472
(lp3473
I1
asS'get'
p3474
(lp3475
I1
asS'issue'
p3476
(lp3477
I2
asS'sympathized'
p3478
(lp3479
I3
asS'stewards'
p3480
(lp3481
I2
asS'boldness'
p3482
(lp3483
I2
asS'belied'
p3484
(lp3485
I2
asS'commits'
p3486
(lp3487
I2
asS'fore-bemoaned'
p3488
I3
sS'forgive'
p3489
(lp3490
I2
asS'pleasant'
p3491
(lp3492
I2
asS'reason'
p3493
(lp3494
I2
asS'base'
p3495
(lp3496
I1
asS'impeached'
p3497
(lp3498
I2
asS'put'
p3499
(lp3500
I1
asS'teach'
p3501
(lp3502
I1
asS'reproach'
p3503
(lp3504
I2
asS"know'st"
p3505
I1
sS'nightly'
p3506
(lp3507
I2
asS'owners'
p3508
(lp3509
I2
asS'usurer'
p3510
I3
sS'needing'
p3511
(lp3512
I2
asS'rack'
p3513
(lp3514
I1
asS'sicken'
p3515
(lp3516
I2
asS'corrupting'
p3517
(lp3518
I3
asS'feed'
p3519
(lp3520
I1
asS'gazed'
p3521
(lp3522
I1
asS'seeming'
p3523
(lp3524
I2
asS'forwards'
p3525
(lp3526
I2
asS'blush'
p3527
(lp3528
I1
asS'feel'
p3529
(lp3530
I1
asS'number'
p3531
(lp3532
I2
asS'antiquity'
p3533
(lp3534
I4
asS'elder'
p3535
(lp3536
I2
asS'enlarged'
p3537
(lp3538
I2
asS'revolution'
p3539
(lp3540
I4
asS'done'
p3541
(lp3542
I1
asS'defects'
p3543
(lp3544
I2
asS'rents'
p3545
(lp3546
I1
asS'moan'
p3547
(lp3548
I1
asS'guess'
p3549
(lp3550
I1
asS'guest'
p3551
(lp3552
I1
asS'unperfect'
p3553
I3
sS'twenty'
p3554
(lp3555
I2
asS'slanderers'
p3556
I3
sS'least'
p3557
(lp3558
I1
asS'hallowed'
p3559
(lp3560
I2
asS'steals'
p3561
(lp3562
I1
asS'passed'
p3563
(lp3564
I1
asS'essays'
p3565
(lp3566
I2
asS'hundred'
p3567
(lp3568
I2
asS'store'
p3569
(lp3570
I1
asS'lease'
p3571
(lp3572
I1
asS'youngly'
p3573
I2
sS'selling'
p3574
(lp3575
I2
asS'imperfect'
p3576
(lp3577
I3
asS'saint'
p3578
(lp3579
I1
asS'behind'
p3580
(lp3581
I2
asS'adonis'
p3582
(lp3583
I3
asS'part'
p3584
(lp3585
I1
asS'bower'
p3586
(lp3587
I2
asS'deceivest'
p3588
I3
sS'believe'
p3589
(lp3590
I2
asS'grace'
p3591
(lp3592
I1
asS'king'
p3593
(lp3594
I1
asS'kind'
p3595
(lp3596
I1
asS'grew'
p3597
(lp3598
I1
asS'mortality'
p3599
(lp3600
I4
asS'vial'
p3601
(lp3602
I2
asS'double'
p3603
(lp3604
I2
asS'anticipate'
p3605
(lp3606
I4
asS'grey'
p3607
(lp3608
I1
asS'shallowest'
p3609
I3
sS'youth'
p3610
(lp3611
I1
asS'determined'
p3612
(lp3613
I3
asS'contrary'
p3614
(lp3615
I3
asS'supposed'
p3616
(lp3617
I2
asS'toward'
p3618
(lp3619
I1
aI2
asS'restful'
p3620
(lp3621
I2
asS'tongues'
p3622
(lp3623
I1
asS'trifles'
p3624
(lp3625
I2
asS'ages'
p3626
(lp3627
I2
asS'defect'
p3628
(lp3629
I2
asS'livery'
p3630
(lp3631
I3
asS'new-fired'
p3632
I2
sS'alike'
p3633
(lp3634
I2
asS'showers'
p3635
(lp3636
I2
asS'travail'
p3637
(lp3638
I2
asS'fading'
p3639
(lp3640
I2
asS'sensual'
p3641
(lp3642
I3
asS'sell'
p3643
(lp3644
I1
asS'mountain'
p3645
(lp3646
I2
asS'nights'
p3647
(lp3648
I1
asS'built'
p3649
(lp3650
I1
asS'dancing'
p3651
(lp3652
I2
asS'self'
p3653
(lp3654
I1
asS"hate's"
p3655
I2
sS'onset'
p3656
(lp3657
I2
asS'without'
p3658
(lp3659
I2
asS'lip'
p3660
(lp3661
I1
asS'finding'
p3662
(lp3663
I2
asS'chary'
p3664
(lp3665
I2
asS"art's"
p3666
(lp3667
I1
asS'play'
p3668
(lp3669
I1
asS'towards'
p3670
(lp3671
I1
aI2
asS'reckon'
p3672
(lp3673
I2
asS'sets'
p3674
(lp3675
I1
asS"fleet'st"
p3676
I1
sS'unused'
p3677
(lp3678
I2
asS'most'
p3679
(lp3680
I1
asS'offences'
p3681
I3
sS'blunting'
p3682
(lp3683
I2
asS'nothing'
p3684
(lp3685
I2
asS'seasons'
p3686
(lp3687
I2
asS"o'ercharged"
p3688
I3
sS'wastes'
p3689
(lp3690
I1
asS'measured'
p3691
(lp3692
I2
asS'stands'
p3693
(lp3694
I1
asS'chronicle'
p3695
(lp3696
I3
asS'feasting'
p3697
(lp3698
I2
asS'windows'
p3699
(lp3700
I2
asS'builded'
p3701
I3
sS'clear'
p3702
(lp3703
I1
asS'sometimes'
p3704
(lp3705
I2
asS'cover'
p3706
(lp3707
I2
asS'unbred'
p3708
I1
sS'clean'
p3709
(lp3710
I1
asS'barren'
p3711
(lp3712
I2
asS'weigh'
p3713
(lp3714
I1
asS'charged'
p3715
(lp3716
I1
asS'lying'
p3717
(lp3718
I2
asS'stones'
p3719
(lp3720
I1
asS'lest'
p3721
(lp3722
I1
asS'despise'
p3723
(lp3724
I2
asS'gold'
p3725
(lp3726
I1
asS'gates'
p3727
(lp3728
I1
asS"y'have"
p3729
I1
sS'wailing'
p3730
(lp3731
I2
asS'fond'
p3732
(lp3733
I1
asS'page'
p3734
(lp3735
I1
asS'rhymers'
p3736
I2
sS'wasted'
p3737
(lp3738
I2
asS'registers'
p3739
(lp3740
I3
asS'fine'
p3741
(lp3742
I1
asS'find'
p3743
(lp3744
I1
asS'viewest'
p3745
I2
sS'sportive'
p3746
I2
sS'gilded'
p3747
(lp3748
I2
asS'aggravate'
p3749
(lp3750
I3
asS'shouldst'
p3751
I1
sS'deserts'
p3752
(lp3753
I2
asS'ruin'
p3754
(lp3755
I2
asS'hope'
p3756
(lp3757
I1
asS'rotten'
p3758
(lp3759
I2
asS'vision'
p3760
(lp3761
I2
asS'betray'
p3762
(lp3763
I2
asS'pretty'
p3764
(lp3765
I2
asS'fiend'
p3766
(lp3767
I1
asS"painter's"
p3768
(lp3769
I2
asS'his'
p3770
(lp3771
I1
asS'dust'
p3772
(lp3773
I1
asS'gains'
p3774
(lp3775
I1
asS'mercy'
p3776
(lp3777
I2
asS'beams'
p3778
(lp3779
I1
asS'express'
p3780
(lp3781
I2
asS'impregnable'
p3782
(lp3783
I4
asS'trees'
p3784
(lp3785
I1
asS'remedy'
p3786
(lp3787
I3
asS'hid'
p3788
(lp3789
I1
asS'breast'
p3790
(lp3791
I1
asS'compass'
p3792
(lp3793
I2
asS'swart-complexioned'
p3794
I5
sS'sepulchres'
p3795
I3
sS"send'st"
p3796
I1
sS'him'
p3797
(lp3798
I1
asS'distraction'
p3799
(lp3800
I3
asS'grievances'
p3801
(lp3802
I3
asS'bareness'
p3803
I3
sS'pleasures'
p3804
(lp3805
I2
asS'cry'
p3806
(lp3807
I1
asS'alteration'
p3808
(lp3809
I4
asS'remove'
p3810
(lp3811
I2
asS'common'
p3812
(lp3813
I2
asS'kill'
p3814
(lp3815
I1
asS'poisoned'
p3816
(lp3817
I2
asS'wrongfully'
p3818
(lp3819
I3
asS'bars'
p3820
(lp3821
I1
asS'set'
p3822
(lp3823
I1
asS'art'
p3824
(lp3825
I1
asS'declines'
p3826
(lp3827
I2
asS'jade'
p3828
(lp3829
I1
asS"o'ersways"
p3830
I3
sS'see'
p3831
(lp3832
I1
asS'bare'
p3833
(lp3834
I1
asS'are'
p3835
(lp3836
I1
asS'sea'
p3837
(lp3838
I1
asS'tender'
p3839
(lp3840
I2
asS'bark'
p3841
(lp3842
I1
asS'outward'
p3843
(lp3844
I2
asS'spirits'
p3845
(lp3846
I2
asS'forlorn'
p3847
(lp3848
I2
asS'please'
p3849
(lp3850
I1
asS'drooping'
p3851
(lp3852
I2
asS'unions'
p3853
(lp3854
I2
asS'won'
p3855
(lp3856
I1
asS'dost'
p3857
(lp3858
I1
asS'affairs'
p3859
(lp3860
I2
asS'woe'
p3861
(lp3862
I1
asS'guilt'
p3863
(lp3864
I1
asS'burned'
p3865
(lp3866
I1
asS'monsters'
p3867
(lp3868
I2
asS'thrive'
p3869
(lp3870
I1
asS'endure'
p3871
(lp3872
I2
asS'knowing'
p3873
(lp3874
I2
asS'creating'
p3875
(lp3876
I3
asS'sold'
p3877
(lp3878
I1
asS'sole'
p3879
(lp3880
I1
asS'vanishing'
p3881
(lp3882
I3
asS'death'
p3883
(lp3884
I1
asS'alters'
p3885
(lp3886
I2
asS'hoisted'
p3887
(lp3888
I2
asS'last'
p3889
(lp3890
I1
asS'unwooed'
p3891
I2
sS'nimble'
p3892
(lp3893
I2
asS'thou'
p3894
(lp3895
I1
asS'anon'
p3896
I2
sS'forgotten'
p3897
(lp3898
I3
asS'let'
p3899
(lp3900
I1
asS'possesseth'
p3901
I3
sS'afar'
p3902
(lp3903
I2
asS'finds'
p3904
(lp3905
I1
asS'league'
p3906
(lp3907
I1
asS'usest'
p3908
I2
sS'flies'
p3909
(lp3910
I1
asS'onward'
p3911
(lp3912
I2
asS'majesty'
p3913
(lp3914
I3
asS'point'
p3915
(lp3916
I1
asS'simple'
p3917
(lp3918
I2
asS'sweet'
p3919
(lp3920
I1
asS'loan'
p3921
(lp3922
I1
asS'manners'
p3923
(lp3924
I2
asS'except'
p3925
(lp3926
I2
asS'key'
p3927
(lp3928
I1
asS'simply'
p3929
(lp3930
I2
asS'worthless'
p3931
(lp3932
I2
asS'devil'
p3933
(lp3934
I2
asS'unworthiness'
p3935
I4
sS'dun'
p3936
(lp3937
I1
asS'stamp'
p3938
(lp3939
I1
asS'devouring'
p3940
(lp3941
I4
asS'acceptance'
p3942
(lp3943
I3
asS'satire'
p3944
(lp3945
I3
asS'due'
p3946
(lp3947
I1
asS'miser'
p3948
(lp3949
I2
asS'whom'
p3950
(lp3951
I1
asS'secret'
p3952
(lp3953
I2
asS"wood's"
p3954
(lp3955
I1
asS'wait'
p3956
(lp3957
I1
asS'delights'
p3958
(lp3959
I2
asS'rosy'
p3960
(lp3961
I2
asS'firm'
p3962
(lp3963
I1
asS'lived'
p3964
(lp3965
I1
asS'partly'
p3966
(lp3967
I2
asS'gay'
p3968
(lp3969
I1
asS"'twixt"
p3970
I1
sS'fire'
p3971
(lp3972
I1
aI2
asS"what's"
p3973
(lp3974
I1
asS'dully'
p3975
I2
sS'great'
p3976
(lp3977
I1
asS'else'
p3978
(lp3979
I1
asS'lives'
p3980
(lp3981
I1
asS'mournful'
p3982
(lp3983
I2
asS'plants'
p3984
(lp3985
I1
asS'uncertain'
p3986
(lp3987
I3
asS'look'
p3988
(lp3989
I1
asS'straight'
p3990
(lp3991
I1
asS'hadst'
p3992
I1
sS'admire'
p3993
(lp3994
I2
asS'pace'
p3995
(lp3996
I1
asS'while'
p3997
(lp3998
I1
asS'rigour'
p3999
I2
sS'error'
p4000
(lp4001
I2
asS'kissing'
p4002
(lp4003
I2
asS'eclipses'
p4004
(lp4005
I3
asS'costly'
p4006
(lp4007
I2
asS'wherever'
p4008
(lp4009
I3
asS'herein'
p4010
(lp4011
I2
asS'confound'
p4012
(lp4013
I2
asS'vow'
p4014
(lp4015
I1
asS'lodged'
p4016
(lp4017
I1
asS'owes'
p4018
(lp4019
I1
asS'churl'
p4020
I1
sS'rid'
p4021
(lp4022
I1
asS'seest'
p4023
I1
sS'fairer'
p4024
(lp4025
I2
asS'chase'
p4026
(lp4027
I1
asS'twofold'
p4028
(lp4029
I2
asS'trial'
p4030
(lp4031
I1
aI2
asS'lengths'
p4032
(lp4033
I1
asS'bristly'
p4034
I2
sS'belong'
p4035
(lp4036
I2
asS'engrossed'
p4037
(lp4038
I2
asS'wherein'
p4039
(lp4040
I2
asS'discourse'
p4041
(lp4042
I2
asS'esteemed'
p4043
(lp4044
I2
asS'ruth'
p4045
(lp4046
I1
asS'miscalled'
p4047
I2
sS'composition'
p4048
(lp4049
I4
asS'covetous'
p4050
I3
sS'used'
p4051
(lp4052
I1
asS'forced'
p4053
(lp4054
I1
asS'mow'
p4055
(lp4056
I1
asS'moment'
p4057
(lp4058
I2
asS'flown'
p4059
(lp4060
I1
asS'moving'
p4061
(lp4062
I2
asS'user'
p4063
(lp4064
I2
asS'wretchcd'
p4065
I1
sS'early'
p4066
(lp4067
I2
asS'task'
p4068
(lp4069
I1
asS'older'
p4070
(lp4071
I2
asS'cheek'
p4072
(lp4073
I1
asS'spent'
p4074
(lp4075
I1
asS"frown'st"
p4076
I1
sS'grind'
p4077
(lp4078
I1
asS'morrow'
p4079
(lp4080
I2
asS'cheer'
p4081
(lp4082
I1
asS'edge'
p4083
(lp4084
I1
asS'starved'
p4085
(lp4086
I1
asS'clears'
p4087
(lp4088
I1
asS'stelled'
p4089
I1
sS'spend'
p4090
(lp4091
I1
asS'things'
p4092
(lp4093
I1
asS'plagues'
p4094
(lp4095
I1
asS'bearer'
p4096
(lp4097
I2
asS'salve'
p4098
(lp4099
I1
asS'shape'
p4100
(lp4101
I1
asS'aright'
p4102
I2
sS'madding'
p4103
(lp4104
I2
asS'unto'
p4105
(lp4106
I2
asS'gems'
p4107
(lp4108
I1
asS'tables'
p4109
(lp4110
I2
asS'cut'
p4111
(lp4112
I1
asS'cup'
p4113
(lp4114
I1
asS'hated'
p4115
(lp4116
I2
asS'decayed'
p4117
(lp4118
I2
asS'sire'
p4119
(lp4120
I2
asS'eager'
p4121
(lp4122
I2
asS'lifts'
p4123
(lp4124
I1
asS'crying'
p4125
(lp4126
I2
asS"either's"
p4127
I2
sS"tongue's"
p4128
I2
sS'march'
p4129
(lp4130
I1
asS'lacking'
p4131
(lp4132
I2
asS'big'
p4133
(lp4134
I1
asS'showing'
p4135
(lp4136
I2
asS'advocate'
p4137
(lp4138
I3
asS'rondure'
p4139
I3
sS'judgement'
p4140
(lp4141
I2
asS'redeem'
p4142
(lp4143
I2
asS'quest'
p4144
(lp4145
I1
asS'private'
p4146
(lp4147
I2
asS'dearly'
p4148
(lp4149
I2
asS'sharpened'
p4150
(lp4151
I2
asS"garments'"
p4152
I2
sS'outright'
p4153
(lp4154
I2
asS'lost'
p4155
(lp4156
I1
asS'follows'
p4157
(lp4158
I2
asS"hate'"
p4159
I1
sS'strife'
p4160
(lp4161
I1
asS'shapes'
p4162
(lp4163
I1
asS'divining'
p4164
(lp4165
I3
asS'tribes'
p4166
(lp4167
I1
asS'foolish'
p4168
(lp4169
I2
asS'canst'
p4170
I1
sS'methods'
p4171
(lp4172
I2
asS'sue'
p4173
(lp4174
I1
asS'spring'
p4175
(lp4176
I1
aI2
asS'creation'
p4177
(lp4178
I3
asS'some'
p4179
(lp4180
I1
asS'back'
p4181
(lp4182
I1
asS'rich-proud'
p4183
I2
sS'sighs'
p4184
(lp4185
I1
asS'lips'
p4186
(lp4187
I1
asS'added'
p4188
(lp4189
I2
asS'ornaments'
p4190
(lp4191
I3
asS'curious'
p4192
(lp4193
I3
asS'pale'
p4194
(lp4195
I1
asS'sauces'
p4196
(lp4197
I2
asS'savage'
p4198
(lp4199
I2
asS'acquaintance'
p4200
(lp4201
I3
asS'fairing'
p4202
I2
sS'shall'
p4203
(lp4204
I1
asS'oblivion'
p4205
(lp4206
I4
asS'balmy'
p4207
(lp4208
I2
asS'confounds'
p4209
(lp4210
I2
asS'barrenly'
p4211
I3
sS'lark'
p4212
(lp4213
I1
asS'be'
p4214
(lp4215
I1
asS'patient'
p4216
(lp4217
I2
asS'remembered'
p4218
(lp4219
I3
asS'word'
p4220
(lp4221
I1
asS'clay'
p4222
(lp4223
I1
asS'use'
p4224
(lp4225
I1
asS"'this"
p4226
I1
sS'aloft'
p4227
(lp4228
I2
asS'rent'
p4229
(lp4230
I1
asS'cheered'
p4231
(lp4232
I1
asS'concealed'
p4233
(lp4234
I2
asS'nerves'
p4235
(lp4236
I1
asS'tripping'
p4237
(lp4238
I2
asS'shine'
p4239
(lp4240
I1
asS'faith'
p4241
(lp4242
I1
asS'deserved'
p4243
(lp4244
I2
asS'wrinkles'
p4245
(lp4246
I2
asS'deserves'
p4247
(lp4248
I2
asS'ambush'
p4249
(lp4250
I2
asS'together'
p4251
(lp4252
I3
asS'hatred'
p4253
(lp4254
I2
asS'behaviour'
p4255
I4
sS'tenants'
p4256
(lp4257
I2
asS'silence'
p4258
(lp4259
I2
asS'misplaced'
p4260
(lp4261
I2
asS'repair'
p4262
(lp4263
I2
asS'into'
p4264
(lp4265
I2
asS'within'
p4266
(lp4267
I2
asS'exceed'
p4268
(lp4269
I2
asS'debateth'
p4270
I3
sS'services'
p4271
(lp4272
I3
asS'inconstant'
p4273
I3
sS'remembrance'
p4274
(lp4275
I3
asS'lesson'
p4276
(lp4277
I2
asS'next'
p4278
(lp4279
I1
asS"sharp'st"
p4280
I1
sS'sad'
p4281
(lp4282
I1
asS'featureless'
p4283
(lp4284
I3
asS'spending'
p4285
(lp4286
I2
asS'question'
p4287
(lp4288
I2
asS'long'
p4289
(lp4290
I1
asS'whereto'
p4291
I3
sS'suit'
p4292
(lp4293
I1
asS'translate'
p4294
(lp4295
I2
asS'himself'
p4296
(lp4297
I2
asS'jacks'
p4298
(lp4299
I1
asS'governs'
p4300
(lp4301
I2
asS'graciously'
p4302
(lp4303
I3
asS'healthful'
p4304
(lp4305
I2
asS'frost'
p4306
(lp4307
I1
asS'vowing'
p4308
(lp4309
I2
asS'alive'
p4310
(lp4311
I2
asS'newer'
p4312
(lp4313
I2
asS'filed'
p4314
(lp4315
I1
asS'hopes'
p4316
(lp4317
I1
asS'line'
p4318
(lp4319
I1
asS'dull'
p4320
(lp4321
I1
asS'usury'
p4322
(lp4323
I3
asS'directed'
p4324
(lp4325
I3
asS'bevel'
p4326
(lp4327
I2
asS'immured'
p4328
I2
sS"lover's"
p4329
(lp4330
I2
asS"monarch's"
p4331
(lp4332
I2
asS'us'
p4333
(lp4334
I1
aI2
asS'lords'
p4335
(lp4336
I1
asS'politic'
p4337
(lp4338
I3
asS'slander'
p4339
(lp4340
I2
asS'hied'
p4341
I1
sS'cheeks'
p4342
(lp4343
I1
asS'proves'
p4344
(lp4345
I1
asS'called'
p4346
(lp4347
I1
asS'vassalage'
p4348
I3
sS'possession'
p4349
(lp4350
I3
asS'constant'
p4351
(lp4352
I2
asS'goodly'
p4353
(lp4354
I2
asS'allayed'
p4355
(lp4356
I2
asS'influence'
p4357
(lp4358
I3
asS'scarlet'
p4359
(lp4360
I2
asS'single'
p4361
(lp4362
I2
asS'warning'
p4363
(lp4364
I2
asS'babe'
p4365
(lp4366
I1
asS'surmise'
p4367
(lp4368
I2
asS'rainy'
p4369
(lp4370
I2
asS'sullen'
p4371
(lp4372
I2
asS'sunken'
p4373
(lp4374
I2
asS'peace'
p4375
(lp4376
I1
asS'fears'
p4377
(lp4378
I1
asS'dimmed'
p4379
(lp4380
I1
asS'afford'
p4381
(lp4382
I2
asS'confine'
p4383
(lp4384
I2
asS'mock'
p4385
(lp4386
I1
asS'perusal'
p4387
(lp4388
I3
asS'draw'
p4389
(lp4390
I1
asS'elements'
p4391
(lp4392
I3
asS'titles'
p4393
(lp4394
I2
asS'reeleth'
p4395
I2
sS'lend'
p4396
(lp4397
I1
asS'breasts'
p4398
(lp4399
I1
asS'nay'
p4400
(lp4401
I1
asS'convertest'
p4402
I3
sS'makeless'
p4403
I3
sS'wrinkle'
p4404
(lp4405
I2
asS'sides'
p4406
(lp4407
I1
asS'bases'
p4408
(lp4409
I2
asS'suffers'
p4410
(lp4411
I2
asS'happier'
p4412
(lp4413
I3
asS"excuse'"
p4414
I2
sS"spend'st"
p4415
I1
sS'vice'
p4416
(lp4417
I1
asS'age'
p4418
(lp4419
I1
asS'wards'
p4420
(lp4421
I1
asS'admiring'
p4422
(lp4423
I3
asS'heats'
p4424
(lp4425
I1
asS'came'
p4426
(lp4427
I1
asS'far'
p4428
(lp4429
I1
asS'fresh'
p4430
(lp4431
I1
asS'marvel'
p4432
(lp4433
I2
asS'having'
p4434
(lp4435
I2
asS'once'
p4436
(lp4437
I1
asS'wilfulness'
p4438
I3
sS'discontent'
p4439
(lp4440
I3
asS'hooks'
p4441
(lp4442
I1
asS'tombs'
p4443
(lp4444
I1
asS"deformed'st"
p4445
I3
sS'alien'
p4446
(lp4447
I3
asS'windy'
p4448
(lp4449
I2
asS'special-blest'
p4450
I4
sS'amiss'
p4451
(lp4452
I2
asS'ruminate'
p4453
(lp4454
I3
asS'seemed'
p4455
(lp4456
I1
asS'graves'
p4457
(lp4458
I1
asS'tincture'
p4459
(lp4460
I2
asS'uphold'
p4461
(lp4462
I2
asS'reckoned'
p4463
(lp4464
I2
asS'young'
p4465
(lp4466
I1
asS'send'
p4467
(lp4468
I1
asS'breach'
p4469
(lp4470
I1
asS'pleasing'
p4471
(lp4472
I2
asS'virtuous'
p4473
(lp4474
I3
asS'over-partial'
p4475
I5
sS'queen'
p4476
(lp4477
I1
asS'wished'
p4478
(lp4479
I1
asS'torture'
p4480
(lp4481
I2
asS"'now"
p4482
I1
sS"'not"
p4483
I1
sS'confounding'
p4484
(lp4485
I3
asS'rhyme'
p4486
(lp4487
I1
asS'languished'
p4488
(lp4489
I2
asS'blot'
p4490
(lp4491
I1
asS'rebuked'
p4492
(lp4493
I2
asS'scanted'
p4494
I2
sS'accuse'
p4495
(lp4496
I2
asS'telling'
p4497
(lp4498
I2
asS'false-speaking'
p4499
I3
sS'iniquity'
p4500
(lp4501
I4
asS'try'
p4502
(lp4503
I1
asS"eve's"
p4504
I2
sS'race'
p4505
(lp4506
I1
asS'verdict'
p4507
(lp4508
I2
asS'betwixt'
p4509
(lp4510
I2
asS'noted'
p4511
(lp4512
I2
asS"alt'ring"
p4513
I2
sS'teachest'
p4514
I2
sS'crow'
p4515
(lp4516
I1
asS"work's"
p4517
(lp4518
I1
asS'poets'
p4519
(lp4520
I2
asS'waking'
p4521
(lp4522
I2
asS'jump'
p4523
(lp4524
I1
asS'issueless'
p4525
(lp4526
I3
asS'go'
p4527
(lp4528
I1
asS'plead'
p4529
(lp4530
I1
asS'decrees'
p4531
(lp4532
I2
asS'pity-wanting'
p4533
I4
sS'victor'
p4534
(lp4535
I2
asS'giving'
p4536
(lp4537
I2
asS'saw'
p4538
(lp4539
I1
asS'expressed'
p4540
(lp4541
I2
asS"man's"
p4542
(lp4543
I1
asS'paying'
p4544
(lp4545
I2
asS'waiting'
p4546
(lp4547
I2
asS"seasons'"
p4548
I2
sS'famoused'
p4549
I2
sS'bird'
p4550
(lp4551
I1
asS'body'
p4552
(lp4553
I2
asS'melancholy'
p4554
(lp4555
I4
asS'chose'
p4556
(lp4557
I1
asS'gathered'
p4558
(lp4559
I2
asS"shadow's"
p4560
I2
sS'sins'
p4561
(lp4562
I1
asS'growing'
p4563
(lp4564
I2
asS'scythe'
p4565
(lp4566
I1
asS'objects'
p4567
(lp4568
I2
asS'poverty'
p4569
(lp4570
I3
asS'separation'
p4571
(lp4572
I4
asS'others'
p4573
(lp4574
I2
asS'dissuade'
p4575
(lp4576
I2
asS'sing'
p4577
(lp4578
I1
asS'adulterate'
p4579
(lp4580
I4
asS'extreme'
p4581
(lp4582
I2
asS'convert'
p4583
(lp4584
I2
asS'burthens'
p4585
I2
sS'receive'
p4586
(lp4587
I2
asS'until'
p4588
(lp4589
I2
asS'metre'
p4590
I2
sS'leaving'
p4591
(lp4592
I2
asS'survey'
p4593
(lp4594
I2
asS'defeat'
p4595
(lp4596
I2
asS'vaunt'
p4597
I1
sS'makes'
p4598
(lp4599
I1
asS'writes'
p4600
(lp4601
I1
asS'composed'
p4602
(lp4603
I2
asS'thralled'
p4604
I1
sS'chaste'
p4605
(lp4606
I1
asS'apple'
p4607
(lp4608
I2
asS'admired'
p4609
(lp4610
I3
asS'forbid'
p4611
(lp4612
I2
asS'win'
p4613
(lp4614
I1
asS"whoe'er"
p4615
I2
sS'messengers'
p4616
(lp4617
I3
asS'uprear'
p4618
I2
sS'posterity'
p4619
(lp4620
I4
asS'wit'
p4621
(lp4622
I1
asS'decrease'
p4623
(lp4624
I2
asS'scandal'
p4625
(lp4626
I2
asS'cloud'
p4627
(lp4628
I1
asS'desiring'
p4629
(lp4630
I4
asS'fed'
p4631
(lp4632
I1
asS'fee'
p4633
(lp4634
I1
asS'from'
p4635
(lp4636
I1
asS'remains'
p4637
(lp4638
I2
asS'hammered'
p4639
(lp4640
I2
asS'throw'
p4641
(lp4642
I1
asS'few'
p4643
(lp4644
I1
asS'doubt'
p4645
(lp4646
I1
asS'themselves'
p4647
(lp4648
I2
asS'stage'
p4649
(lp4650
I1
asS"sun's"
p4651
(lp4652
I1
asS'defendant'
p4653
(lp4654
I3
asS'touched'
p4655
(lp4656
I1
asS'sort'
p4657
(lp4658
I1
asS'pencil'
p4659
(lp4660
I2
asS'assailed'
p4661
(lp4662
I2
asS'beauteous'
p4663
I2
sS'becomes'
p4664
(lp4665
I2
asS'freedom'
p4666
(lp4667
I2
asS'heir'
p4668
(lp4669
I1
asS"need'st"
p4670
I2
sS'infection'
p4671
(lp4672
I3
asS'fools'
p4673
(lp4674
I1
asS'meant'
p4675
(lp4676
I1
asS'insufficiency'
p4677
I5
sS'tattered'
p4678
(lp4679
I2
asS'gladly'
p4680
(lp4681
I2
asS'harvest'
p4682
(lp4683
I2
asS'annoy'
p4684
(lp4685
I2
asS"none'"
p4686
I1
sS'account'
p4687
(lp4688
I2
asS'salving'
p4689
I2
sS'this'
p4690
(lp4691
I1
asS'ride'
p4692
(lp4693
I1
asS'crossed'
p4694
(lp4695
I1
asS'praise'
p4696
(lp4697
I1
asS'executor'
p4698
(lp4699
I4
asS'meet'
p4700
(lp4701
I1
asS'drops'
p4702
(lp4703
I1
asS'befits'
p4704
(lp4705
I2
asS'proof'
p4706
(lp4707
I1
asS'control'
p4708
(lp4709
I2
asS'unswept'
p4710
I2
sS'bent'
p4711
(lp4712
I1
asS'ushers'
p4713
(lp4714
I2
asS'process'
p4715
(lp4716
I2
asS"mak'st"
p4717
I1
sS'high'
p4718
(lp4719
I1
asS'bones'
p4720
(lp4721
I1
asS'niggard'
p4722
(lp4723
I2
asS'something'
p4724
(lp4725
I2
asS'sought'
p4726
(lp4727
I1
asS'darkening'
p4728
(lp4729
I2
aI3
asS'paws'
p4730
(lp4731
I1
asS'tan'
p4732
(lp4733
I1
asS'counterfeit'
p4734
(lp4735
I3
asS'lamb'
p4736
(lp4737
I1
asS'counting'
p4738
(lp4739
I2
asS'compounded'
p4740
(lp4741
I3
asS'falls'
p4742
(lp4743
I1
asS'sit'
p4744
(lp4745
I1
asS"sickle's"
p4746
I2
sS'purpose'
p4747
(lp4748
I2
asS'holds'
p4749
(lp4750
I1
asS'thrall'
p4751
(lp4752
I1
asS'moods'
p4753
(lp4754
I1
asS'blessings'
p4755
(lp4756
I2
asS'slandering'
p4757
(lp4758
I3
asS'mightst'
p4759
I1
sS'sin'
p4760
(lp4761
I1
asS'watery'
p4762
(lp4763
I3
asS'attend'
p4764
(lp4765
I2
asS'watch'
p4766
(lp4767
I1
asS'canker'
p4768
(lp4769
I2
asS'abuse'
p4770
(lp4771
I2
asS'fits'
p4772
(lp4773
I1
asS'raiment'
p4774
I2
sS"worth's"
p4775
(lp4776
I1
asS'tongue'
p4777
(lp4778
I1
asS'physic'
p4779
I2
sS'bankrupt'
p4780
(lp4781
I2
asS"bear'st"
p4782
I1
sS'untrimmed'
p4783
I2
sS'light'
p4784
(lp4785
I1
asS'lame'
p4786
(lp4787
I1
asS'lines'
p4788
(lp4789
I1
asS'chief'
p4790
(lp4791
I1
asS'writ'
p4792
(lp4793
I1
asS'allow'
p4794
(lp4795
I2
asS'pyramids'
p4796
(lp4797
I3
asS'favourites'
p4798
I4
sS'looking'
p4799
(lp4800
I2
asS'counted'
p4801
(lp4802
I2
asS'neglect'
p4803
(lp4804
I2
asS'beauties'
p4805
(lp4806
I2
asS'stamped'
p4807
(lp4808
I1
asS'transfix'
p4809
(lp4810
I2
asS'move'
p4811
(lp4812
I1
asS'widowed'
p4813
(lp4814
I2
asS"o'erlook"
p4815
I3
sS'whilst'
p4816
(lp4817
I1
asS'beguile'
p4818
(lp4819
I2
asS'dearest'
p4820
(lp4821
I2
asS'enclose'
p4822
(lp4823
I2
asS'looks'
p4824
(lp4825
I1
asS'tyrant'
p4826
(lp4827
I2
asS'thyself'
p4828
I2
sS'badges'
p4829
(lp4830
I2
asS'perfect'
p4831
(lp4832
I2
asS'refusest'
p4833
I3
sS'frailties'
p4834
(lp4835
I2
asS'brood'
p4836
(lp4837
I1
asS'whereon'
p4838
I2
sS'unstained'
p4839
(lp4840
I2
asS'decay'
p4841
(lp4842
I2
asS'receivest'
p4843
I3
sS'lo'
p4844
(lp4845
I1
asS'whereof'
p4846
I2
sS'banquet'
p4847
(lp4848
I2
asS'willing'
p4849
(lp4850
I2
asS'choose'
p4851
(lp4852
I1
asS'tickled'
p4853
(lp4854
I2
asS'pure'
p4855
(lp4856
I1
asS'flattery'
p4857
(lp4858
I3
asS'sweets'
p4859
(lp4860
I1
asS'stout'
p4861
(lp4862
I1
asS'hands'
p4863
(lp4864
I1
asS'front'
p4865
(lp4866
I1
asS"owner's"
p4867
(lp4868
I2
asS'kindness'
p4869
(lp4870
I2
asS'affections'
p4871
(lp4872
I3
asS'day'
p4873
(lp4874
I1
asS'damasked'
p4875
I2
sS'strive'
p4876
(lp4877
I1
asS'profound'
p4878
(lp4879
I2
asS'eased'
p4880
(lp4881
I1
asS'feast'
p4882
(lp4883
I1
asS'trimmed'
p4884
(lp4885
I1
asS'slide'
p4886
(lp4887
I1
asS'truth'
p4888
(lp4889
I1
asS'presenteth'
p4890
I3
sS'gazing'
p4891
(lp4892
I2
asS'legions'
p4893
(lp4894
I2
asS'esteem'
p4895
(lp4896
I2
asS'lie'
p4897
(lp4898
I1
asS'pitying'
p4899
(lp4900
I3
asS'debarred'
p4901
I2
sS'doing'
p4902
(lp4903
I2
asS"princes'"
p4904
I2
sS'ills'
p4905
(lp4906
I1
asS'impanelled'
p4907
I3
sS'society'
p4908
(lp4909
I4
asS'decays'
p4910
(lp4911
I2
asS'exceeded'
p4912
(lp4913
I3
asS'our'
p4914
(lp4915
I1
aI2
asS'bay'
p4916
(lp4917
I1
asS'tenth'
p4918
(lp4919
I1
asS'witness'
p4920
(lp4921
I2
asS'might'
p4922
(lp4923
I1
asS'respects'
p4924
(lp4925
I2
asS"children's"
p4926
(lp4927
I2
asS'plods'
p4928
I1
sS'confess'
p4929
(lp4930
I2
asS'sufficed'
p4931
(lp4932
I2
asS'bad'
p4933
(lp4934
I1
asS'wondrous'
p4935
(lp4936
I2
asS'impart'
p4937
(lp4938
I2
asS'cause'
p4939
(lp4940
I1
asS'red'
p4941
(lp4942
I1
asS'perish'
p4943
(lp4944
I2
asS'frank'
p4945
(lp4946
I1
asS'darkly'
p4947
(lp4948
I2
asS'embassy'
p4949
(lp4950
I3
asS'attending'
p4951
(lp4952
I3
asS'tresses'
p4953
(lp4954
I2
asS'shun'
p4955
(lp4956
I1
asS'yore'
p4957
(lp4958
I1
asS'cured'
p4959
(lp4960
I1
asS'her'
p4961
(lp4962
I1
asS'misuse'
p4963
(lp4964
I2
asS'could'
p4965
(lp4966
I1
asS'keep'
p4967
(lp4968
I1
asS'counterpart'
p4969
(lp4970
I3
asS'keen'
p4971
(lp4972
I1
asS'length'
p4973
(lp4974
I1
asS'cures'
p4975
(lp4976
I1
asS'mortal'
p4977
(lp4978
I2
asS'hence'
p4979
(lp4980
I1
asS'ears'
p4981
(lp4982
I1
asS'rudely'
p4983
(lp4984
I2
asS'new-appearing'
p4985
I4
sS'unprovident'
p4986
I4
sS'pitied'
p4987
(lp4988
I2
asS'possessing'
p4989
(lp4990
I3
asS'powerful'
p4991
(lp4992
I3
asS'loveliness'
p4993
I4
sS'feasts'
p4994
(lp4995
I1
asS"learned's"
p4996
I1
sS'watchman'
p4997
(lp4998
I2
asS'quality'
p4999
(lp5000
I3
asS"run'st"
p5001
I1
sS'uneared'
p5002
I2
sS"love'"
p5003
I1
sS'sadly'
p5004
(lp5005
I2
asS'bears'
p5006
(lp5007
I1
asS'unknown'
p5008
(lp5009
I2
asS'vulgar'
p5010
(lp5011
I2
asS'seat'
p5012
(lp5013
I1
asS'comes'
p5014
(lp5015
I1
asS'intelligence'
p5016
(lp5017
I4
asS'prouder'
p5018
(lp5019
I2
asS'travelled'
p5020
(lp5021
I2
asS'badness'
p5022
(lp5023
I2
asS'fairest'
p5024
(lp5025
I2
asS'painful'
p5026
(lp5027
I2
asS'prone'
p5028
(lp5029
I1
asS'sealed'
p5030
(lp5031
I1
asS"were't"
p5032
I2
sS'perforce'
p5033
(lp5034
I2
asS'prefiguring'
p5035
I4
sS'herself'
p5036
(lp5037
I2
asS'commence'
p5038
(lp5039
I2
asS'remember'
p5040
(lp5041
I3
asS'steel'
p5042
(lp5043
I1
asS'loved'
p5044
(lp5045
I1
asS'unlooked'
p5046
I2
sS'bid'
p5047
(lp5048
I1
asS"o'er"
p5049
I2
sS'riches'
p5050
(lp5051
I2
asS'richer'
p5052
(lp5053
I2
asS'bed'
p5054
(lp5055
I1
asS'jollity'
p5056
I3
sS'transgression'
p5057
(lp5058
I3
asS"body's"
p5059
(lp5060
I2
asS'loves'
p5061
(lp5062
I1
asS'bind'
p5063
(lp5064
I1
asS'dumb'
p5065
(lp5066
I1
asS'steep'
p5067
(lp5068
I1
asS'descriptions'
p5069
(lp5070
I3
asS'drunk'
p5071
(lp5072
I1
asS'accusing'
p5073
(lp5074
I3
asS'enforced'
p5075
(lp5076
I2
asS'beggared'
p5077
I2
sS'false'
p5078
(lp5079
I1
asS"forget'st"
p5080
I2
sS'beggar'
p5081
(lp5082
I2
asS'labouring'
p5083
I3
sS'gently'
p5084
(lp5085
I2
asS'refigured'
p5086
I3
sS"lily's"
p5087
(lp5088
I2
asS'prophetic'
p5089
(lp5090
I3
asS'torment'
p5091
(lp5092
I2
asS'have'
p5093
(lp5094
I1
asS're-survey'
p5095
I2
sS'need'
p5096
(lp5097
I1
asS'turn'
p5098
(lp5099
I1
asS'sings'
p5100
(lp5101
I1
asS'bastard'
p5102
(lp5103
I2
asS'bough'
p5104
(lp5105
I1
asS'reeks'
p5106
(lp5107
I1
asS'able'
p5108
(lp5109
I2
asS'gravity'
p5110
(lp5111
I3
asS'adjunct'
p5112
(lp5113
I2
asS'which'
p5114
(lp5115
I1
asS'divert'
p5116
(lp5117
I2
asS'adieu'
p5118
(lp5119
I2
asS'unless'
p5120
(lp5121
I2
asS'centre'
p5122
(lp5123
I2
asS'senses'
p5124
(lp5125
I2
asS'who'
p5126
(lp5127
I1
asS'privilage'
p5128
I3
sS"beds'"
p5129
I1
sS"time's"
p5130
(lp5131
I1
asS'harmful'
p5132
(lp5133
I2
asS'offend'
p5134
(lp5135
I2
asS'but'
p5136
(lp5137
I1
asS'prisoner'
p5138
(lp5139
I2
aI3
asS'expired'
p5140
(lp5141
I2
asS'why'
p5142
(lp5143
I1
asS"husband's"
p5144
(lp5145
I2
asS'statute'
p5146
(lp5147
I2
asS'deny'
p5148
(lp5149
I2
asS'wherewith'
p5150
I3
sS'bred'
p5151
(lp5152
I1
asS'stronger'
p5153
(lp5154
I2
asS'disease'
p5155
(lp5156
I2
asS'brought'
p5157
(lp5158
I1
asS"widow's"
p5159
(lp5160
I2
asS'looked'
p5161
(lp5162
I1
asS'wounded'
p5163
(lp5164
I2
asS'sail'
p5165
(lp5166
I1
asS'painting'
p5167
(lp5168
I2
asS'outlive'
p5169
(lp5170
I2
asS'deface'
p5171
(lp5172
I2
asS'impression'
p5173
(lp5174
I3
asS'slandered'
p5175
(lp5176
I2
asS'wilful'
p5177
I2
sS'couldst'
p5178
I1
sS'burden'
p5179
(lp5180
I2
asS'poesy'
p5181
I3
sS'bring'
p5182
(lp5183
I1
asS"many's"
p5184
I2
sS'fear'
p5185
(lp5186
I1
asS'obsequious'
p5187
(lp5188
I4
asS'pleased'
p5189
(lp5190
I1
asS'spurring'
p5191
(lp5192
I2
asS'envy'
p5193
(lp5194
I2
asS'knowledge'
p5195
(lp5196
I2
asS'chiding'
p5197
(lp5198
I2
asS'philomel'
p5199
I3
sS'mute'
p5200
(lp5201
I1
asS'woo'
p5202
(lp5203
I1
asS'world-without-end'
p5204
I4
sS'should'
p5205
(lp5206
I1
asS"there's"
p5207
(lp5208
I1
asS'preposterously'
p5209
I5
sS'tune'
p5210
(lp5211
I1
asS'marriage'
p5212
(lp5213
I2
asS'inhabit'
p5214
(lp5215
I3
asS'inferior'
p5216
(lp5217
I4
asS'exchanged'
p5218
(lp5219
I2
asS'accessary'
p5220
I4
sS'doubting'
p5221
(lp5222
I2
asS'monuments'
p5223
(lp5224
I3
asS'familiar'
p5225
(lp5226
I3
asS'bear'
p5227
(lp5228
I1
asS'sightless'
p5229
I2
sS'abundance'
p5230
(lp5231
I3
asS'perfection'
p5232
(lp5233
I3
asS'words'
p5234
(lp5235
I1
asS'durst'
p5236
(lp5237
I1
asS'leases'
p5238
(lp5239
I2
asS'chips'
p5240
(lp5241
I1
asS'rite'
p5242
(lp5243
I1
asS'endless'
p5244
(lp5245
I2
asS'heretic'
p5246
(lp5247
I3
asS"stick'st"
p5248
I1
sS'glory'
p5249
(lp5250
I2
asS'course'
p5251
(lp5252
I1
asS'gust'
p5253
(lp5254
I1
asS'married'
p5255
(lp5256
I2
asS'summon'
p5257
(lp5258
I2
asS'she'
p5259
(lp5260
I1
asS'contain'
p5261
(lp5262
I2
asS'fixed'
p5263
(lp5264
I1
asS'deceived'
p5265
(lp5266
I2
asS'strengthened'
p5267
(lp5268
I2
asS'sluttish'
p5269
I2
sS'untrue'
p5270
(lp5271
I2
asS'outbraves'
p5272
I3
sS'farthest'
p5273
(lp5274
I2
asS'prayers'
p5275
(lp5276
I1
aI2
asS'frame'
p5277
(lp5278
I1
asS'shake'
p5279
(lp5280
I1
asS'legacy'
p5281
(lp5282
I3
asS'merits'
p5283
(lp5284
I2
asS'changes'
p5285
(lp5286
I2
asS'enfeebled'
p5287
(lp5288
I3
asS'violet'
p5289
(lp5290
I2
aI3
asS'overturn'
p5291
(lp5292
I3
asS"intermixed'"
p5293
I3
sS'closet'
p5294
(lp5295
I2
asS'placed'
p5296
(lp5297
I1
asS'pattern'
p5298
(lp5299
I2
asS'vows'
p5300
(lp5301
I1
asS'unseeing'
p5302
I2
sS'worship'
p5303
(lp5304
I2
asS'written'
p5305
(lp5306
I2
asS'boughs'
p5307
(lp5308
I1
asS'progress'
p5309
(lp5310
I2
asS'neither'
p5311
(lp5312
I2
asS'besmeared'
p5313
I2
sS'wiry'
p5314
(lp5315
I2
asS'dreading'
p5316
(lp5317
I2
asS'amen'
p5318
(lp5319
I2
asS'dressings'
p5320
(lp5321
I2
asS'joy'
p5322
(lp5323
I1
asS'sorrow'
p5324
(lp5325
I2
asS'beweep'
p5326
I2
sS'never-resting'
p5327
I4
sS'spoil'
p5328
(lp5329
I1
asS'precious'
p5330
(lp5331
I2
asS'weary'
p5332
(lp5333
I2
asS'swift'
p5334
(lp5335
I1
asS'purposed'
p5336
I2
sS'hits'
p5337
(lp5338
I1
asS'weeks'
p5339
(lp5340
I1
asS'instant'
p5341
(lp5342
I2
asS'limits'
p5343
(lp5344
I2
asS'invited'
p5345
(lp5346
I3
asS'thence'
p5347
(lp5348
I1
asS'equal'
p5349
(lp5350
I2
asS'minds'
p5351
(lp5352
I1
asS'assure'
p5353
(lp5354
I2
asS'admit'
p5355
(lp5356
I2
asS'disdaineth'
p5357
I3
sS'figures'
p5358
(lp5359
I2
asS"store's"
p5360
(lp5361
I1
asS'conquered'
p5362
(lp5363
I2
asS'canopy'
p5364
(lp5365
I3
asS'lofty'
p5366
(lp5367
I2
asS'glorious'
p5368
(lp5369
I3
asS'aye'
p5370
(lp5371
I1
asS'comment'
p5372
(lp5373
I2
asS'fester'
p5374
(lp5375
I2
asS'statues'
p5376
(lp5377
I2
asS'bearing'
p5378
(lp5379
I2
asS'walk'
p5380
(lp5381
I1
asS'commend'
p5382
(lp5383
I2
asS'celestial'
p5384
(lp5385
I3
asS'table'
p5386
(lp5387
I2
asS'tyrants'
p5388
(lp5389
I2
asS'renewest'
p5390
I3
sS'second'
p5391
(lp5392
I2
asS'addition'
p5393
(lp5394
I3
asS'wills'
p5395
(lp5396
I1
asS'gaze'
p5397
(lp5398
I1
asS'certain'
p5399
(lp5400
I2
asS'poet'
p5401
(lp5402
I2
asS'waste'
p5403
(lp5404
I1
asS'define'
p5405
(lp5406
I2
asS'tyranny'
p5407
(lp5408
I3
asS'describe'
p5409
(lp5410
I2
asS'inheritors'
p5411
I4
sS'proudest'
p5412
(lp5413
I2
asS"war's"
p5414
(lp5415
I1
asS'painted'
p5416
(lp5417
I2
asS'releasing'
p5418
(lp5419
I3
asS"hear'st"
p5420
I1
sS'lets'
p5421
(lp5422
I1
asS'unmoved'
p5423
(lp5424
I2
asS'general'
p5425
(lp5426
I2
aI3
asS'present'
p5427
(lp5428
I2
asS'debtor'
p5429
(lp5430
I2
asS'novel'
p5431
(lp5432
I2
asS'sourly'
p5433
I2
sS'surety-like'
p5434
I4
sS'wilt'
p5435
(lp5436
I1
asS'slept'
p5437
(lp5438
I1
asS'means'
p5439
(lp5440
I1
asS'harder'
p5441
(lp5442
I2
asS'as'
p5443
(lp5444
I1
asS'three-fold'
p5445
I1
sS'will'
p5446
(lp5447
I1
asS'riper'
p5448
I2
sS'wild'
p5449
(lp5450
I1
asS'at'
p5451
(lp5452
I1
asS'ripe'
p5453
(lp5454
I1
asS'physicians'
p5455
(lp5456
I3
asS'almost'
p5457
(lp5458
I2
asS'up-locked'
p5459
I2
sS'thus'
p5460
(lp5461
I1
asS'lust'
p5462
(lp5463
I1
asS'turns'
p5464
(lp5465
I1
asS'lambs'
p5466
(lp5467
I1
asS'sits'
p5468
(lp5469
I1
asS'greater'
p5470
(lp5471
I2
asS'ransom'
p5472
(lp5473
I2
asS'all-eating'
p5474
I3
sS'perhaps'
p5475
(lp5476
I2
asS'cross'
p5477
(lp5478
I1
asS'largess'
p5479
(lp5480
I2
asS'adverse'
p5481
(lp5482
I2
asS'strange'
p5483
(lp5484
I1
asS'duteous'
p5485
I2
sS'kingly'
p5486
(lp5487
I2
asS'party'
p5488
(lp5489
I2
asS'well-contented'
p5490
I4
sS'blooms'
p5491
(lp5492
I1
asS'slave'
p5493
(lp5494
I1
asS'toil'
p5495
(lp5496
I1
asS'flesh'
p5497
(lp5498
I1
asS'shames'
p5499
(lp5500
I1
asS'drink'
p5501
(lp5502
I1
asS'upon'
p5503
(lp5504
I2
asS'effect'
p5505
(lp5506
I2
asS'outcast'
p5507
(lp5508
I2
asS'beast'
p5509
(lp5510
I1
asS"december's"
p5511
(lp5512
I3
asS'fierce'
p5513
(lp5514
I1
asS'judgment'
p5515
(lp5516
I2
asS'shamed'
p5517
(lp5518
I1
asS'audit'
p5519
(lp5520
I2
asS'scarcely'
p5521
(lp5522
I2
asS'off'
p5523
(lp5524
I1
asS'i'
(lp5525
I1
asS'approve'
p5526
(lp5527
I2
asS'colour'
p5528
I2
sS'well'
p5529
(lp5530
I1
asS'thought'
p5531
(lp5532
I1
asS'amends'
p5533
(lp5534
I2
asS'oft'
p5535
(lp5536
I1
asS'drowns'
p5537
(lp5538
I1
asS'tibey'
p5539
I2
sS'arising'
p5540
(lp5541
I3
asS'twire'
p5542
I2
sS'bending'
p5543
(lp5544
I2
asS'restore'
p5545
(lp5546
I2
asS'feathered'
p5547
(lp5548
I2
asS'stores'
p5549
(lp5550
I1
asS'kiss'
p5551
(lp5552
I1
asS'liker'
p5553
I2
sS'less'
p5554
(lp5555
I1
asS"o'erpressed"
p5556
I3
sS'gulls'
p5557
(lp5558
I1
asS'cries'
p5559
(lp5560
I1
asS'interim'
p5561
(lp5562
I2
aI3
asS'skill'
p5563
(lp5564
I1
asS'thither'
p5565
I2
sS'gentlest'
p5566
(lp5567
I3
asS'now'
p5568
(lp5569
I1
asS'field'
p5570
(lp5571
I1
asS'bell'
p5572
(lp5573
I1
asS'sky'
p5574
(lp5575
I1
asS'fled'
p5576
(lp5577
I1
asS'arrest'
p5578
(lp5579
I2
asS'add'
p5580
(lp5581
I1
asS'book'
p5582
(lp5583
I1
asS'wet'
p5584
(lp5585
I1
asS"infant's"
p5586
(lp5587
I2
asS'raven'
p5588
(lp5589
I2
asS'wooed'
p5590
(lp5591
I1
asS'fate'
p5592
(lp5593
I1
asS'testy'
p5594
(lp5595
I2
asS'devised'
p5596
(lp5597
I2
asS'famine'
p5598
(lp5599
I2
asS"who's"
p5600
(lp5601
I1
asS'crushed'
p5602
(lp5603
I1
asS'smother'
p5604
(lp5605
I2
asS'five'
p5606
(lp5607
I1
asS'know'
p5608
(lp5609
I1
asS'presume'
p5610
(lp5611
I2
asS'press'
p5612
(lp5613
I1
asS'woeful'
p5614
(lp5615
I2
asS'loss'
p5616
(lp5617
I1
asS'necessary'
p5618
(lp5619
I4
asS'like'
p5620
(lp5621
I1
asS'inviting'
p5622
(lp5623
I3
asS'perpetual'
p5624
(lp5625
I4
asS"'had"
p5626
I1
sS'admitted'
p5627
(lp5628
I3
asS'dove'
p5629
(lp5630
I1
asS'heed'
p5631
(lp5632
I1
asS'lose'
p5633
(lp5634
I1
asS'become'
p5635
(lp5636
I2
asS'works'
p5637
(lp5638
I1
asS'indigest'
p5639
(lp5640
I3
asS'lends'
p5641
(lp5642
I1
asS'therein'
p5643
(lp5644
I2
asS'decease'
p5645
(lp5646
I2
asS'warmed'
p5647
(lp5648
I1
asS'because'
p5649
(lp5650
I2
asS'thief'
p5651
(lp5652
I1
asS'authority'
p5653
(lp5654
I4
asS'immortal'
p5655
(lp5656
I3
asS'hush'
p5657
(lp5658
I1
asS'growth'
p5659
(lp5660
I1
asS'home'
p5661
(lp5662
I1
asS'transport'
p5663
(lp5664
I2
asS"heaven's"
p5665
(lp5666
I2
asS'lead'
p5667
(lp5668
I1
asS'broad'
p5669
(lp5670
I1
asS'lean'
p5671
(lp5672
I1
asS'whole'
p5673
(lp5674
I1
asS'leap'
p5675
(lp5676
I1
asS'passion'
p5677
(lp5678
I2
asS'masked'
p5679
(lp5680
I1
asS"o'ertake"
p5681
I3
sS'thinly'
p5682
(lp5683
I2
asS'slight'
p5684
(lp5685
I1
asS"death's"
p5686
(lp5687
I1
asS'how'
p5688
(lp5689
I1
asS'expire'
p5690
(lp5691
I2
asS'although'
p5692
(lp5693
I2
asS'worthy'
p5694
(lp5695
I2
asS'instinct'
p5696
(lp5697
I2
asS'imaginary'
p5698
(lp5699
I5
asS'stay'
p5700
(lp5701
I1
asS"travel's"
p5702
I2
sS'worths'
p5703
(lp5704
I1
asS'hiding'
p5705
(lp5706
I2
asS'about'
p5707
(lp5708
I2
asS"murd'rous"
p5709
I2
sS'rare'
p5710
(lp5711
I1
asS"'scaped"
p5712
I1
sS'linger'
p5713
(lp5714
I2
asS'attainted'
p5715
I3
sS'universe'
p5716
(lp5717
I3
asS'swear'
p5718
(lp5719
I1
asS'gainer'
p5720
(lp5721
I2
asS'hairs'
p5722
(lp5723
I1
asS'tomb'
p5724
(lp5725
I1
asS'beshrew'
p5726
I2
sS'outstripped'
p5727
(lp5728
I2
asS'reckoning'
p5729
(lp5730
I2
aI3
asS'own'
p5731
(lp5732
I1
asS'polished'
p5733
(lp5734
I2
asS'depart'
p5735
(lp5736
I2
asS'owe'
p5737
(lp5738
I1
asS'attaint'
p5739
I2
sS'guard'
p5740
(lp5741
I1
asS'promise'
p5742
(lp5743
I2
asS'treads'
p5744
(lp5745
I1
asS'female'
p5746
(lp5747
I2
asS'lawful'
p5748
(lp5749
I2
asS'quickly'
p5750
(lp5751
I2
asS'forget'
p5752
(lp5753
I2
asS'gazeth'
p5754
I2
sS'suborned'
p5755
I2
sS'victors'
p5756
(lp5757
I2
asS'friends'
p5758
(lp5759
I1
asS'trenches'
p5760
(lp5761
I2
asS'reigned'
p5762
(lp5763
I1
asS'spread'
p5764
(lp5765
I1
asS"grief's"
p5766
I1
sS'function'
p5767
(lp5768
I2
asS'beard'
p5769
(lp5770
I1
asS'buy'
p5771
(lp5772
I1
asS'well-tuned'
p5773
I2
sS'invent'
p5774
(lp5775
I2
asS'brand'
p5776
(lp5777
I1
asS'invocate'
p5778
I3
sS'fountains'
p5779
(lp5780
I2
asS'gait'
p5781
(lp5782
I1
asS'prophecies'
p5783
(lp5784
I3
asS'plague'
p5785
(lp5786
I1
asS'gain'
p5787
(lp5788
I1
asS'delivers'
p5789
(lp5790
I3
asS'ear'
p5791
(lp5792
I1
asS'eat'
p5793
(lp5794
I1
asS'bud'
p5795
(lp5796
I1
asS'he'
p5797
(lp5798
I1
asS'count'
p5799
(lp5800
I1
asS'made'
p5801
(lp5802
I1
asS'wise'
p5803
(lp5804
I1
asS'princes'
p5805
(lp5806
I2
asS'evident'
p5807
(lp5808
I3
asS'whether'
p5809
(lp5810
I2
asS'wish'
p5811
(lp5812
I1
asS'grieve'
p5813
(lp5814
I1
asS'triumphant'
p5815
(lp5816
I3
asS"eyes'"
p5817
(lp5818
I1
asS'record'
p5819
(lp5820
I2
asS'cruel'
p5821
(lp5822
I1
aI2
asS'converted'
p5823
(lp5824
I3
asS'limit'
p5825
(lp5826
I2
asS'monument'
p5827
(lp5828
I3
asS'minutes'
p5829
(lp5830
I2
asS'unfolding'
p5831
(lp5832
I3
asS'rightly'
p5833
(lp5834
I2
asS'deaths'
p5835
(lp5836
I1
asS'devise'
p5837
(lp5838
I2
asS'measure'
p5839
(lp5840
I2
asS'dearth'
p5841
(lp5842
I1
asS'denote'
p5843
(lp5844
I2
asS'consumed'
p5845
(lp5846
I2
asS'goodness'
p5847
(lp5848
I2
asS'ink'
p5849
(lp5850
I1
asS"brav'ry"
p5851
I2
sS'self-killed'
p5852
I2
sS'proceeds'
p5853
(lp5854
I2
asS'endeared'
p5855
(lp5856
I2
asS'nursed'
p5857
(lp5858
I1
asS'mutual'
p5859
(lp5860
I3
asS'compared'
p5861
(lp5862
I2
asS'didst'
p5863
I1
sS'dressed'
p5864
(lp5865
I1
asS'boot'
p5866
(lp5867
I1
asS'forests'
p5868
(lp5869
I2
asS'slumbers'
p5870
I2
sS'other'
p5871
(lp5872
I2
asS'special'
p5873
(lp5874
I2
asS'sick'
p5875
(lp5876
I1
asS'unlettered'
p5877
I3
sS'behold'
p5878
(lp5879
I2
asS'out'
p5880
(lp5881
I1
asS"dial's"
p5882
(lp5883
I1
aI2
asS'trophies'
p5884
(lp5885
I2
asS'thrivers'
p5886
I2
sS'semblance'
p5887
(lp5888
I2
asS'kinds'
p5889
(lp5890
I1
asS'waves'
p5891
(lp5892
I1
asS'oppression'
p5893
(lp5894
I3
asS'variation'
p5895
(lp5896
I4
asS'insults'
p5897
(lp5898
I2
asS'methinks'
p5899
I2
sS'chance'
p5900
(lp5901
I1
asS'longing'
p5902
(lp5903
I2
asS'earthly'
p5904
(lp5905
I2
asS'astronomy'
p5906
(lp5907
I4
asS'veil'
p5908
(lp5909
I1
asS'ghost'
p5910
(lp5911
I1
asS'stirred'
p5912
(lp5913
I1
asS'self-example'
p5914
I4
sS'ranks'
p5915
(lp5916
I1
asS"he's"
p5917
(lp5918
I1
asS'love-kindling'
p5919
I3
sS'jewel'
p5920
(lp5921
I1
aI2
asS'pictured'
p5922
(lp5923
I2
asS'pupil'
p5924
(lp5925
I2
asS"sway'st"
p5926
I1
sS'vassal'
p5927
(lp5928
I2
asS'determination'
p5929
(lp5930
I5
asS'accidents'
p5931
(lp5932
I3
asS'indirectly'
p5933
(lp5934
I4
as.